   1              		.syntax unified
   2              		.cpu cortex-m3
   3              		.fpu softvfp
   4              		.eabi_attribute 20, 1
   5              		.eabi_attribute 21, 1
   6              		.eabi_attribute 23, 3
   7              		.eabi_attribute 24, 1
   8              		.eabi_attribute 25, 1
   9              		.eabi_attribute 26, 1
  10              		.eabi_attribute 30, 6
  11              		.eabi_attribute 34, 1
  12              		.eabi_attribute 18, 4
  13              		.thumb
  14              		.file	"stm32f10x_it.c"
  15              		.text
  16              	.Ltext0:
  17              		.cfi_sections	.debug_frame
  18              		.align	2
  19              		.global	NMI_Handler
  20              		.thumb
  21              		.thumb_func
  23              	NMI_Handler:
  24              	.LFB29:
  25              		.file 1 "../src/stm32f10x_it.c"
   1:../src/stm32f10x_it.c **** /**
   2:../src/stm32f10x_it.c ****   ******************************************************************************
   3:../src/stm32f10x_it.c ****   * @file    RC5_Receiver_Demo/src/stm32f10x_it.c 
   4:../src/stm32f10x_it.c ****   * @author  MCD Application Team
   5:../src/stm32f10x_it.c ****   * @version V1.0.0
   6:../src/stm32f10x_it.c ****   * @date    03/16/2010
   7:../src/stm32f10x_it.c ****   * @brief   Main Interrupt Service Routines.
   8:../src/stm32f10x_it.c ****   *          This file provides template for all exceptions handler and peripherals
   9:../src/stm32f10x_it.c ****   *          interrupt service routine.
  10:../src/stm32f10x_it.c ****   ******************************************************************************
  11:../src/stm32f10x_it.c ****   * @copy
  12:../src/stm32f10x_it.c ****   *
  13:../src/stm32f10x_it.c ****   * THE PRESENT FIRMWARE WHICH IS FOR GUIDANCE ONLY AIMS AT PROVIDING CUSTOMERS
  14:../src/stm32f10x_it.c ****   * WITH CODING INFORMATION REGARDING THEIR PRODUCTS IN ORDER FOR THEM TO SAVE
  15:../src/stm32f10x_it.c ****   * TIME. AS A RESULT, STMICROELECTRONICS SHALL NOT BE HELD LIABLE FOR ANY
  16:../src/stm32f10x_it.c ****   * DIRECT, INDIRECT OR CONSEQUENTIAL DAMAGES WITH RESPECT TO ANY CLAIMS ARISING
  17:../src/stm32f10x_it.c ****   * FROM THE CONTENT OF SUCH FIRMWARE AND/OR THE USE MADE BY CUSTOMERS OF THE
  18:../src/stm32f10x_it.c ****   * CODING INFORMATION CONTAINED HEREIN IN CONNECTION WITH THEIR PRODUCTS.
  19:../src/stm32f10x_it.c ****   *
  20:../src/stm32f10x_it.c ****   * <h2><center>&copy; COPYRIGHT 2010 STMicroelectronics</center></h2>
  21:../src/stm32f10x_it.c ****   */ 
  22:../src/stm32f10x_it.c **** 
  23:../src/stm32f10x_it.c **** /* Includes ------------------------------------------------------------------*/
  24:../src/stm32f10x_it.c **** #include "stm32f10x_it.h"
  25:../src/stm32f10x_it.c **** #include "RC5_IR_Emul_Receiver.h"
  26:../src/stm32f10x_it.c **** 
  27:../src/stm32f10x_it.c **** /** @addtogroup STM32F10x_StdPeriph_Examples
  28:../src/stm32f10x_it.c ****   * @{
  29:../src/stm32f10x_it.c ****   */
  30:../src/stm32f10x_it.c **** 
  31:../src/stm32f10x_it.c **** /* Private typedef -----------------------------------------------------------*/
  32:../src/stm32f10x_it.c **** /* Private define ------------------------------------------------------------*/
  33:../src/stm32f10x_it.c **** /* Private macro -------------------------------------------------------------*/
  34:../src/stm32f10x_it.c **** /* Private variables ---------------------------------------------------------*/
  35:../src/stm32f10x_it.c **** /* Private function prototypes -----------------------------------------------*/
  36:../src/stm32f10x_it.c **** /* Private functions ---------------------------------------------------------*/
  37:../src/stm32f10x_it.c **** 
  38:../src/stm32f10x_it.c **** /******************************************************************************/
  39:../src/stm32f10x_it.c **** /*            Cortex-M3 Processor Exceptions Handlers                         */
  40:../src/stm32f10x_it.c **** /******************************************************************************/
  41:../src/stm32f10x_it.c **** 
  42:../src/stm32f10x_it.c **** /**
  43:../src/stm32f10x_it.c ****   * @brief  This function handles NMI exception.
  44:../src/stm32f10x_it.c ****   * @param  None
  45:../src/stm32f10x_it.c ****   * @retval None
  46:../src/stm32f10x_it.c ****   */
  47:../src/stm32f10x_it.c **** void NMI_Handler(void)
  48:../src/stm32f10x_it.c **** {
  26              		.loc 1 48 0
  27              		.cfi_startproc
  28              		@ args = 0, pretend = 0, frame = 0
  29              		@ frame_needed = 1, uses_anonymous_args = 0
  30              		@ link register save eliminated.
  31 0000 80B4     		push	{r7}
  32              	.LCFI0:
  33              		.cfi_def_cfa_offset 4
  34              		.cfi_offset 7, -4
  35 0002 00AF     		add	r7, sp, #0
  36              	.LCFI1:
  37              		.cfi_def_cfa_register 7
  49:../src/stm32f10x_it.c **** }
  38              		.loc 1 49 0
  39 0004 BD46     		mov	sp, r7
  40 0006 80BC     		pop	{r7}
  41 0008 7047     		bx	lr
  42              		.cfi_endproc
  43              	.LFE29:
  45 000a 00BF     		.align	2
  46              		.global	HardFault_Handler
  47              		.thumb
  48              		.thumb_func
  50              	HardFault_Handler:
  51              	.LFB30:
  50:../src/stm32f10x_it.c **** 
  51:../src/stm32f10x_it.c **** /**
  52:../src/stm32f10x_it.c ****   * @brief  This function handles Hard Fault exception.
  53:../src/stm32f10x_it.c ****   * @param  None
  54:../src/stm32f10x_it.c ****   * @retval None
  55:../src/stm32f10x_it.c ****   */
  56:../src/stm32f10x_it.c **** void HardFault_Handler(void)
  57:../src/stm32f10x_it.c **** {
  52              		.loc 1 57 0
  53              		.cfi_startproc
  54              		@ args = 0, pretend = 0, frame = 0
  55              		@ frame_needed = 1, uses_anonymous_args = 0
  56              		@ link register save eliminated.
  57 000c 80B4     		push	{r7}
  58              	.LCFI2:
  59              		.cfi_def_cfa_offset 4
  60              		.cfi_offset 7, -4
  61 000e 00AF     		add	r7, sp, #0
  62              	.LCFI3:
  63              		.cfi_def_cfa_register 7
  64              	.L3:
  58:../src/stm32f10x_it.c ****   /* Go to infinite loop when Hard Fault exception occurs */
  59:../src/stm32f10x_it.c ****   while (1)
  60:../src/stm32f10x_it.c ****   {}
  65              		.loc 1 60 0 discriminator 1
  66 0010 FEE7     		b	.L3
  67              		.cfi_endproc
  68              	.LFE30:
  70 0012 00BF     		.align	2
  71              		.global	MemManage_Handler
  72              		.thumb
  73              		.thumb_func
  75              	MemManage_Handler:
  76              	.LFB31:
  61:../src/stm32f10x_it.c **** }
  62:../src/stm32f10x_it.c **** 
  63:../src/stm32f10x_it.c **** /**
  64:../src/stm32f10x_it.c ****   * @brief  This function handles Memory Manage exception.
  65:../src/stm32f10x_it.c ****   * @param  None
  66:../src/stm32f10x_it.c ****   * @retval None
  67:../src/stm32f10x_it.c ****   */
  68:../src/stm32f10x_it.c **** void MemManage_Handler(void)
  69:../src/stm32f10x_it.c **** {
  77              		.loc 1 69 0
  78              		.cfi_startproc
  79              		@ args = 0, pretend = 0, frame = 0
  80              		@ frame_needed = 1, uses_anonymous_args = 0
  81              		@ link register save eliminated.
  82 0014 80B4     		push	{r7}
  83              	.LCFI4:
  84              		.cfi_def_cfa_offset 4
  85              		.cfi_offset 7, -4
  86 0016 00AF     		add	r7, sp, #0
  87              	.LCFI5:
  88              		.cfi_def_cfa_register 7
  89              	.L5:
  70:../src/stm32f10x_it.c ****   /* Go to infinite loop when Memory Manage exception occurs */
  71:../src/stm32f10x_it.c ****   while (1)
  72:../src/stm32f10x_it.c ****   {}
  90              		.loc 1 72 0 discriminator 1
  91 0018 FEE7     		b	.L5
  92              		.cfi_endproc
  93              	.LFE31:
  95 001a 00BF     		.align	2
  96              		.global	BusFault_Handler
  97              		.thumb
  98              		.thumb_func
 100              	BusFault_Handler:
 101              	.LFB32:
  73:../src/stm32f10x_it.c **** }
  74:../src/stm32f10x_it.c **** 
  75:../src/stm32f10x_it.c **** /**
  76:../src/stm32f10x_it.c ****   * @brief  This function handles Bus Fault exception.
  77:../src/stm32f10x_it.c ****   * @param  None
  78:../src/stm32f10x_it.c ****   * @retval None
  79:../src/stm32f10x_it.c ****   */
  80:../src/stm32f10x_it.c **** void BusFault_Handler(void)
  81:../src/stm32f10x_it.c **** {
 102              		.loc 1 81 0
 103              		.cfi_startproc
 104              		@ args = 0, pretend = 0, frame = 0
 105              		@ frame_needed = 1, uses_anonymous_args = 0
 106              		@ link register save eliminated.
 107 001c 80B4     		push	{r7}
 108              	.LCFI6:
 109              		.cfi_def_cfa_offset 4
 110              		.cfi_offset 7, -4
 111 001e 00AF     		add	r7, sp, #0
 112              	.LCFI7:
 113              		.cfi_def_cfa_register 7
 114              	.L7:
  82:../src/stm32f10x_it.c ****   /* Go to infinite loop when Bus Fault exception occurs */
  83:../src/stm32f10x_it.c ****   while (1)
  84:../src/stm32f10x_it.c ****   {}
 115              		.loc 1 84 0 discriminator 1
 116 0020 FEE7     		b	.L7
 117              		.cfi_endproc
 118              	.LFE32:
 120 0022 00BF     		.align	2
 121              		.global	UsageFault_Handler
 122              		.thumb
 123              		.thumb_func
 125              	UsageFault_Handler:
 126              	.LFB33:
  85:../src/stm32f10x_it.c **** }
  86:../src/stm32f10x_it.c **** 
  87:../src/stm32f10x_it.c **** /**
  88:../src/stm32f10x_it.c ****   * @brief  This function handles Usage Fault exception.
  89:../src/stm32f10x_it.c ****   * @param  None
  90:../src/stm32f10x_it.c ****   * @retval None
  91:../src/stm32f10x_it.c ****   */
  92:../src/stm32f10x_it.c **** void UsageFault_Handler(void)
  93:../src/stm32f10x_it.c **** {
 127              		.loc 1 93 0
 128              		.cfi_startproc
 129              		@ args = 0, pretend = 0, frame = 0
 130              		@ frame_needed = 1, uses_anonymous_args = 0
 131              		@ link register save eliminated.
 132 0024 80B4     		push	{r7}
 133              	.LCFI8:
 134              		.cfi_def_cfa_offset 4
 135              		.cfi_offset 7, -4
 136 0026 00AF     		add	r7, sp, #0
 137              	.LCFI9:
 138              		.cfi_def_cfa_register 7
 139              	.L9:
  94:../src/stm32f10x_it.c ****   /* Go to infinite loop when Usage Fault exception occurs */
  95:../src/stm32f10x_it.c ****   while (1)
  96:../src/stm32f10x_it.c ****   {}
 140              		.loc 1 96 0 discriminator 1
 141 0028 FEE7     		b	.L9
 142              		.cfi_endproc
 143              	.LFE33:
 145 002a 00BF     		.align	2
 146              		.global	DebugMon_Handler
 147              		.thumb
 148              		.thumb_func
 150              	DebugMon_Handler:
 151              	.LFB34:
  97:../src/stm32f10x_it.c **** }
  98:../src/stm32f10x_it.c **** 
  99:../src/stm32f10x_it.c **** /**
 100:../src/stm32f10x_it.c ****   * @brief  This function handles Debug Monitor exception.
 101:../src/stm32f10x_it.c ****   * @param  None
 102:../src/stm32f10x_it.c ****   * @retval None
 103:../src/stm32f10x_it.c ****   */
 104:../src/stm32f10x_it.c **** void DebugMon_Handler(void)
 105:../src/stm32f10x_it.c **** {}
 152              		.loc 1 105 0
 153              		.cfi_startproc
 154              		@ args = 0, pretend = 0, frame = 0
 155              		@ frame_needed = 1, uses_anonymous_args = 0
 156              		@ link register save eliminated.
 157 002c 80B4     		push	{r7}
 158              	.LCFI10:
 159              		.cfi_def_cfa_offset 4
 160              		.cfi_offset 7, -4
 161 002e 00AF     		add	r7, sp, #0
 162              	.LCFI11:
 163              		.cfi_def_cfa_register 7
 164              		.loc 1 105 0
 165 0030 BD46     		mov	sp, r7
 166 0032 80BC     		pop	{r7}
 167 0034 7047     		bx	lr
 168              		.cfi_endproc
 169              	.LFE34:
 171 0036 00BF     		.align	2
 172              		.global	SVC_Handler
 173              		.thumb
 174              		.thumb_func
 176              	SVC_Handler:
 177              	.LFB35:
 106:../src/stm32f10x_it.c **** 
 107:../src/stm32f10x_it.c **** /**
 108:../src/stm32f10x_it.c ****   * @brief  This function handles SVCall exception.
 109:../src/stm32f10x_it.c ****   * @param  None
 110:../src/stm32f10x_it.c ****   * @retval None
 111:../src/stm32f10x_it.c ****   */
 112:../src/stm32f10x_it.c **** void SVC_Handler(void)
 113:../src/stm32f10x_it.c **** {}
 178              		.loc 1 113 0
 179              		.cfi_startproc
 180              		@ args = 0, pretend = 0, frame = 0
 181              		@ frame_needed = 1, uses_anonymous_args = 0
 182              		@ link register save eliminated.
 183 0038 80B4     		push	{r7}
 184              	.LCFI12:
 185              		.cfi_def_cfa_offset 4
 186              		.cfi_offset 7, -4
 187 003a 00AF     		add	r7, sp, #0
 188              	.LCFI13:
 189              		.cfi_def_cfa_register 7
 190              		.loc 1 113 0
 191 003c BD46     		mov	sp, r7
 192 003e 80BC     		pop	{r7}
 193 0040 7047     		bx	lr
 194              		.cfi_endproc
 195              	.LFE35:
 197 0042 00BF     		.align	2
 198              		.global	PendSV_Handler
 199              		.thumb
 200              		.thumb_func
 202              	PendSV_Handler:
 203              	.LFB36:
 114:../src/stm32f10x_it.c **** 
 115:../src/stm32f10x_it.c **** /**
 116:../src/stm32f10x_it.c ****   * @brief  This function handles PendSV_Handler exception.
 117:../src/stm32f10x_it.c ****   * @param  None
 118:../src/stm32f10x_it.c ****   * @retval None
 119:../src/stm32f10x_it.c ****   */
 120:../src/stm32f10x_it.c **** void PendSV_Handler(void)
 121:../src/stm32f10x_it.c **** {}
 204              		.loc 1 121 0
 205              		.cfi_startproc
 206              		@ args = 0, pretend = 0, frame = 0
 207              		@ frame_needed = 1, uses_anonymous_args = 0
 208              		@ link register save eliminated.
 209 0044 80B4     		push	{r7}
 210              	.LCFI14:
 211              		.cfi_def_cfa_offset 4
 212              		.cfi_offset 7, -4
 213 0046 00AF     		add	r7, sp, #0
 214              	.LCFI15:
 215              		.cfi_def_cfa_register 7
 216              		.loc 1 121 0
 217 0048 BD46     		mov	sp, r7
 218 004a 80BC     		pop	{r7}
 219 004c 7047     		bx	lr
 220              		.cfi_endproc
 221              	.LFE36:
 223 004e 00BF     		.align	2
 224              		.global	SysTick_Handler
 225              		.thumb
 226              		.thumb_func
 228              	SysTick_Handler:
 229              	.LFB37:
 122:../src/stm32f10x_it.c **** 
 123:../src/stm32f10x_it.c **** /**
 124:../src/stm32f10x_it.c ****   * @brief  This function handles SysTick Handler.
 125:../src/stm32f10x_it.c ****   * @param  None
 126:../src/stm32f10x_it.c ****   * @retval None
 127:../src/stm32f10x_it.c ****   */
 128:../src/stm32f10x_it.c **** void SysTick_Handler(void)
 129:../src/stm32f10x_it.c **** {}
 230              		.loc 1 129 0
 231              		.cfi_startproc
 232              		@ args = 0, pretend = 0, frame = 0
 233              		@ frame_needed = 1, uses_anonymous_args = 0
 234              		@ link register save eliminated.
 235 0050 80B4     		push	{r7}
 236              	.LCFI16:
 237              		.cfi_def_cfa_offset 4
 238              		.cfi_offset 7, -4
 239 0052 00AF     		add	r7, sp, #0
 240              	.LCFI17:
 241              		.cfi_def_cfa_register 7
 242              		.loc 1 129 0
 243 0054 BD46     		mov	sp, r7
 244 0056 80BC     		pop	{r7}
 245 0058 7047     		bx	lr
 246              		.cfi_endproc
 247              	.LFE37:
 249 005a 00BF     		.align	2
 250              		.global	TIM2_IRQHandler
 251              		.thumb
 252              		.thumb_func
 254              	TIM2_IRQHandler:
 255              	.LFB38:
 130:../src/stm32f10x_it.c **** 
 131:../src/stm32f10x_it.c **** /******************************************************************************/
 132:../src/stm32f10x_it.c **** /*            STM32F10x Peripherals Interrupt Handlers                        */
 133:../src/stm32f10x_it.c **** /******************************************************************************/
 134:../src/stm32f10x_it.c **** 
 135:../src/stm32f10x_it.c **** /**
 136:../src/stm32f10x_it.c ****   * @brief  This function handles TIM2 global interrupt request.
 137:../src/stm32f10x_it.c ****   * @param  None
 138:../src/stm32f10x_it.c ****   * @retval None
 139:../src/stm32f10x_it.c ****   */
 140:../src/stm32f10x_it.c **** 
 141:../src/stm32f10x_it.c **** void RC5_TIM_IRQHandler(void)
 142:../src/stm32f10x_it.c **** {
 256              		.loc 1 142 0
 257              		.cfi_startproc
 258              		@ args = 0, pretend = 0, frame = 0
 259              		@ frame_needed = 1, uses_anonymous_args = 0
 260 005c 80B5     		push	{r7, lr}
 261              	.LCFI18:
 262              		.cfi_def_cfa_offset 8
 263              		.cfi_offset 7, -8
 264              		.cfi_offset 14, -4
 265 005e 00AF     		add	r7, sp, #0
 266              	.LCFI19:
 267              		.cfi_def_cfa_register 7
 143:../src/stm32f10x_it.c ****    /* Sample each bit of RC5 frame */
 144:../src/stm32f10x_it.c ****    RC5_Sample_Data();
 268              		.loc 1 144 0
 269 0060 FFF7FEFF 		bl	RC5_Sample_Data
 145:../src/stm32f10x_it.c **** }
 270              		.loc 1 145 0
 271 0064 80BD     		pop	{r7, pc}
 272              		.cfi_endproc
 273              	.LFE38:
 275 0066 00BF     		.align	2
 276              		.global	EXTI1_IRQHandler
 277              		.thumb
 278              		.thumb_func
 280              	EXTI1_IRQHandler:
 281              	.LFB39:
 146:../src/stm32f10x_it.c **** 
 147:../src/stm32f10x_it.c **** /**
 148:../src/stm32f10x_it.c ****   * @brief  This function handles EXTI_x global interrupt request.
 149:../src/stm32f10x_it.c ****   * @param  None
 150:../src/stm32f10x_it.c ****   * @retval None
 151:../src/stm32f10x_it.c ****   */
 152:../src/stm32f10x_it.c **** void RC5_EXTI_IRQHandler(void)
 153:../src/stm32f10x_it.c **** {
 282              		.loc 1 153 0
 283              		.cfi_startproc
 284              		@ args = 0, pretend = 0, frame = 0
 285              		@ frame_needed = 1, uses_anonymous_args = 0
 286 0068 80B5     		push	{r7, lr}
 287              	.LCFI20:
 288              		.cfi_def_cfa_offset 8
 289              		.cfi_offset 7, -8
 290              		.cfi_offset 14, -4
 291 006a 00AF     		add	r7, sp, #0
 292              	.LCFI21:
 293              		.cfi_def_cfa_register 7
 154:../src/stm32f10x_it.c ****    /* Mesure first duration to validate the RC5 frame */
 155:../src/stm32f10x_it.c ****    RC5_MeasureFirstLowDuration();
 294              		.loc 1 155 0
 295 006c FFF7FEFF 		bl	RC5_MeasureFirstLowDuration
 156:../src/stm32f10x_it.c **** }
 296              		.loc 1 156 0
 297 0070 80BD     		pop	{r7, pc}
 298              		.cfi_endproc
 299              	.LFE39:
 301              	.Letext0:
 302              		.file 2 "C:\\Users\\PC108\\Export_project\\stm32_ld_vl\\CMSIS/core_cm3.h"