   1              		.syntax unified
   2              		.cpu cortex-m3
   3              		.fpu softvfp
   4              		.eabi_attribute 20, 1
   5              		.eabi_attribute 21, 1
   6              		.eabi_attribute 23, 3
   7              		.eabi_attribute 24, 1
   8              		.eabi_attribute 25, 1
   9              		.eabi_attribute 26, 1
  10              		.eabi_attribute 30, 6
  11              		.eabi_attribute 34, 1
  12              		.eabi_attribute 18, 4
  13              		.thumb
  14              		.file	"stm32f10x_tim.c"
  15              		.text
  16              	.Ltext0:
  17              		.cfi_sections	.debug_frame
  18              		.section	.rodata
  19              		.align	2
  20              	.LC0:
  21 0000 2E2E2F53 		.ascii	"../SPL/src/stm32f10x_tim.c\000"
  21      504C2F73 
  21      72632F73 
  21      746D3332 
  21      66313078 
  22 001b 00       		.text
  23              		.align	2
  24              		.global	TIM_DeInit
  25              		.thumb
  26              		.thumb_func
  28              	TIM_DeInit:
  29              	.LFB29:
  30              		.file 1 "../SPL/src/stm32f10x_tim.c"
   1:../SPL/src/stm32f10x_tim.c **** /**
   2:../SPL/src/stm32f10x_tim.c ****   ******************************************************************************
   3:../SPL/src/stm32f10x_tim.c ****   * @file    stm32f10x_tim.c
   4:../SPL/src/stm32f10x_tim.c ****   * @author  MCD Application Team
   5:../SPL/src/stm32f10x_tim.c ****   * @version V3.5.0
   6:../SPL/src/stm32f10x_tim.c ****   * @date    11-March-2011
   7:../SPL/src/stm32f10x_tim.c ****   * @brief   This file provides all the TIM firmware functions.
   8:../SPL/src/stm32f10x_tim.c ****   ******************************************************************************
   9:../SPL/src/stm32f10x_tim.c ****   * @attention
  10:../SPL/src/stm32f10x_tim.c ****   *
  11:../SPL/src/stm32f10x_tim.c ****   * THE PRESENT FIRMWARE WHICH IS FOR GUIDANCE ONLY AIMS AT PROVIDING CUSTOMERS
  12:../SPL/src/stm32f10x_tim.c ****   * WITH CODING INFORMATION REGARDING THEIR PRODUCTS IN ORDER FOR THEM TO SAVE
  13:../SPL/src/stm32f10x_tim.c ****   * TIME. AS A RESULT, STMICROELECTRONICS SHALL NOT BE HELD LIABLE FOR ANY
  14:../SPL/src/stm32f10x_tim.c ****   * DIRECT, INDIRECT OR CONSEQUENTIAL DAMAGES WITH RESPECT TO ANY CLAIMS ARISING
  15:../SPL/src/stm32f10x_tim.c ****   * FROM THE CONTENT OF SUCH FIRMWARE AND/OR THE USE MADE BY CUSTOMERS OF THE
  16:../SPL/src/stm32f10x_tim.c ****   * CODING INFORMATION CONTAINED HEREIN IN CONNECTION WITH THEIR PRODUCTS.
  17:../SPL/src/stm32f10x_tim.c ****   *
  18:../SPL/src/stm32f10x_tim.c ****   * <h2><center>&copy; COPYRIGHT 2011 STMicroelectronics</center></h2>
  19:../SPL/src/stm32f10x_tim.c ****   ******************************************************************************
  20:../SPL/src/stm32f10x_tim.c ****   */
  21:../SPL/src/stm32f10x_tim.c **** 
  22:../SPL/src/stm32f10x_tim.c **** /* Includes ------------------------------------------------------------------*/
  23:../SPL/src/stm32f10x_tim.c **** #include "stm32f10x_tim.h"
  24:../SPL/src/stm32f10x_tim.c **** #include "stm32f10x_rcc.h"
  25:../SPL/src/stm32f10x_tim.c **** 
  26:../SPL/src/stm32f10x_tim.c **** /** @addtogroup STM32F10x_StdPeriph_Driver
  27:../SPL/src/stm32f10x_tim.c ****   * @{
  28:../SPL/src/stm32f10x_tim.c ****   */
  29:../SPL/src/stm32f10x_tim.c **** 
  30:../SPL/src/stm32f10x_tim.c **** /** @defgroup TIM 
  31:../SPL/src/stm32f10x_tim.c ****   * @brief TIM driver modules
  32:../SPL/src/stm32f10x_tim.c ****   * @{
  33:../SPL/src/stm32f10x_tim.c ****   */
  34:../SPL/src/stm32f10x_tim.c **** 
  35:../SPL/src/stm32f10x_tim.c **** /** @defgroup TIM_Private_TypesDefinitions
  36:../SPL/src/stm32f10x_tim.c ****   * @{
  37:../SPL/src/stm32f10x_tim.c ****   */
  38:../SPL/src/stm32f10x_tim.c **** 
  39:../SPL/src/stm32f10x_tim.c **** /**
  40:../SPL/src/stm32f10x_tim.c ****   * @}
  41:../SPL/src/stm32f10x_tim.c ****   */
  42:../SPL/src/stm32f10x_tim.c **** 
  43:../SPL/src/stm32f10x_tim.c **** /** @defgroup TIM_Private_Defines
  44:../SPL/src/stm32f10x_tim.c ****   * @{
  45:../SPL/src/stm32f10x_tim.c ****   */
  46:../SPL/src/stm32f10x_tim.c **** 
  47:../SPL/src/stm32f10x_tim.c **** /* ---------------------- TIM registers bit mask ------------------------ */
  48:../SPL/src/stm32f10x_tim.c **** #define SMCR_ETR_Mask               ((uint16_t)0x00FF) 
  49:../SPL/src/stm32f10x_tim.c **** #define CCMR_Offset                 ((uint16_t)0x0018)
  50:../SPL/src/stm32f10x_tim.c **** #define CCER_CCE_Set                ((uint16_t)0x0001)  
  51:../SPL/src/stm32f10x_tim.c **** #define	CCER_CCNE_Set               ((uint16_t)0x0004) 
  52:../SPL/src/stm32f10x_tim.c **** 
  53:../SPL/src/stm32f10x_tim.c **** /**
  54:../SPL/src/stm32f10x_tim.c ****   * @}
  55:../SPL/src/stm32f10x_tim.c ****   */
  56:../SPL/src/stm32f10x_tim.c **** 
  57:../SPL/src/stm32f10x_tim.c **** /** @defgroup TIM_Private_Macros
  58:../SPL/src/stm32f10x_tim.c ****   * @{
  59:../SPL/src/stm32f10x_tim.c ****   */
  60:../SPL/src/stm32f10x_tim.c **** 
  61:../SPL/src/stm32f10x_tim.c **** /**
  62:../SPL/src/stm32f10x_tim.c ****   * @}
  63:../SPL/src/stm32f10x_tim.c ****   */
  64:../SPL/src/stm32f10x_tim.c **** 
  65:../SPL/src/stm32f10x_tim.c **** /** @defgroup TIM_Private_Variables
  66:../SPL/src/stm32f10x_tim.c ****   * @{
  67:../SPL/src/stm32f10x_tim.c ****   */
  68:../SPL/src/stm32f10x_tim.c **** 
  69:../SPL/src/stm32f10x_tim.c **** /**
  70:../SPL/src/stm32f10x_tim.c ****   * @}
  71:../SPL/src/stm32f10x_tim.c ****   */
  72:../SPL/src/stm32f10x_tim.c **** 
  73:../SPL/src/stm32f10x_tim.c **** /** @defgroup TIM_Private_FunctionPrototypes
  74:../SPL/src/stm32f10x_tim.c ****   * @{
  75:../SPL/src/stm32f10x_tim.c ****   */
  76:../SPL/src/stm32f10x_tim.c **** 
  77:../SPL/src/stm32f10x_tim.c **** static void TI1_Config(TIM_TypeDef* TIMx, uint16_t TIM_ICPolarity, uint16_t TIM_ICSelection,
  78:../SPL/src/stm32f10x_tim.c ****                        uint16_t TIM_ICFilter);
  79:../SPL/src/stm32f10x_tim.c **** static void TI2_Config(TIM_TypeDef* TIMx, uint16_t TIM_ICPolarity, uint16_t TIM_ICSelection,
  80:../SPL/src/stm32f10x_tim.c ****                        uint16_t TIM_ICFilter);
  81:../SPL/src/stm32f10x_tim.c **** static void TI3_Config(TIM_TypeDef* TIMx, uint16_t TIM_ICPolarity, uint16_t TIM_ICSelection,
  82:../SPL/src/stm32f10x_tim.c ****                        uint16_t TIM_ICFilter);
  83:../SPL/src/stm32f10x_tim.c **** static void TI4_Config(TIM_TypeDef* TIMx, uint16_t TIM_ICPolarity, uint16_t TIM_ICSelection,
  84:../SPL/src/stm32f10x_tim.c ****                        uint16_t TIM_ICFilter);
  85:../SPL/src/stm32f10x_tim.c **** /**
  86:../SPL/src/stm32f10x_tim.c ****   * @}
  87:../SPL/src/stm32f10x_tim.c ****   */
  88:../SPL/src/stm32f10x_tim.c **** 
  89:../SPL/src/stm32f10x_tim.c **** /** @defgroup TIM_Private_Macros
  90:../SPL/src/stm32f10x_tim.c ****   * @{
  91:../SPL/src/stm32f10x_tim.c ****   */
  92:../SPL/src/stm32f10x_tim.c **** 
  93:../SPL/src/stm32f10x_tim.c **** /**
  94:../SPL/src/stm32f10x_tim.c ****   * @}
  95:../SPL/src/stm32f10x_tim.c ****   */
  96:../SPL/src/stm32f10x_tim.c **** 
  97:../SPL/src/stm32f10x_tim.c **** /** @defgroup TIM_Private_Variables
  98:../SPL/src/stm32f10x_tim.c ****   * @{
  99:../SPL/src/stm32f10x_tim.c ****   */
 100:../SPL/src/stm32f10x_tim.c **** 
 101:../SPL/src/stm32f10x_tim.c **** /**
 102:../SPL/src/stm32f10x_tim.c ****   * @}
 103:../SPL/src/stm32f10x_tim.c ****   */
 104:../SPL/src/stm32f10x_tim.c **** 
 105:../SPL/src/stm32f10x_tim.c **** /** @defgroup TIM_Private_FunctionPrototypes
 106:../SPL/src/stm32f10x_tim.c ****   * @{
 107:../SPL/src/stm32f10x_tim.c ****   */
 108:../SPL/src/stm32f10x_tim.c **** 
 109:../SPL/src/stm32f10x_tim.c **** /**
 110:../SPL/src/stm32f10x_tim.c ****   * @}
 111:../SPL/src/stm32f10x_tim.c ****   */
 112:../SPL/src/stm32f10x_tim.c **** 
 113:../SPL/src/stm32f10x_tim.c **** /** @defgroup TIM_Private_Functions
 114:../SPL/src/stm32f10x_tim.c ****   * @{
 115:../SPL/src/stm32f10x_tim.c ****   */
 116:../SPL/src/stm32f10x_tim.c **** 
 117:../SPL/src/stm32f10x_tim.c **** /**
 118:../SPL/src/stm32f10x_tim.c ****   * @brief  Deinitializes the TIMx peripheral registers to their default reset values.
 119:../SPL/src/stm32f10x_tim.c ****   * @param  TIMx: where x can be 1 to 17 to select the TIM peripheral.
 120:../SPL/src/stm32f10x_tim.c ****   * @retval None
 121:../SPL/src/stm32f10x_tim.c ****   */
 122:../SPL/src/stm32f10x_tim.c **** void TIM_DeInit(TIM_TypeDef* TIMx)
 123:../SPL/src/stm32f10x_tim.c **** {
  31              		.loc 1 123 0
  32              		.cfi_startproc
  33              		@ args = 0, pretend = 0, frame = 8
  34              		@ frame_needed = 1, uses_anonymous_args = 0
  35 0000 80B5     		push	{r7, lr}
  36              	.LCFI0:
  37              		.cfi_def_cfa_offset 8
  38              		.cfi_offset 7, -8
  39              		.cfi_offset 14, -4
  40 0002 82B0     		sub	sp, sp, #8
  41              	.LCFI1:
  42              		.cfi_def_cfa_offset 16
  43 0004 00AF     		add	r7, sp, #0
  44              	.LCFI2:
  45              		.cfi_def_cfa_register 7
  46 0006 7860     		str	r0, [r7, #4]
 124:../SPL/src/stm32f10x_tim.c ****   /* Check the parameters */
 125:../SPL/src/stm32f10x_tim.c ****   assert_param(IS_TIM_ALL_PERIPH(TIMx)); 
  47              		.loc 1 125 0
  48 0008 7A68     		ldr	r2, [r7, #4]
  49 000a B64B     		ldr	r3, .L20
  50 000c 9A42     		cmp	r2, r3
  51 000e 44D0     		beq	.L2
  52              		.loc 1 125 0 is_stmt 0 discriminator 1
  53 0010 7B68     		ldr	r3, [r7, #4]
  54 0012 B3F1804F 		cmp	r3, #1073741824
  55 0016 40D0     		beq	.L2
  56              		.loc 1 125 0 discriminator 2
  57 0018 7A68     		ldr	r2, [r7, #4]
  58 001a B34B     		ldr	r3, .L20+4
  59 001c 9A42     		cmp	r2, r3
  60 001e 3CD0     		beq	.L2
  61              		.loc 1 125 0 discriminator 3
  62 0020 7A68     		ldr	r2, [r7, #4]
  63 0022 B24B     		ldr	r3, .L20+8
  64 0024 9A42     		cmp	r2, r3
  65 0026 38D0     		beq	.L2
  66              		.loc 1 125 0 discriminator 4
  67 0028 7A68     		ldr	r2, [r7, #4]
  68 002a B14B     		ldr	r3, .L20+12
  69 002c 9A42     		cmp	r2, r3
  70 002e 34D0     		beq	.L2
  71              		.loc 1 125 0 discriminator 5
  72 0030 7A68     		ldr	r2, [r7, #4]
  73 0032 B04B     		ldr	r3, .L20+16
  74 0034 9A42     		cmp	r2, r3
  75 0036 30D0     		beq	.L2
  76              		.loc 1 125 0 discriminator 6
  77 0038 7A68     		ldr	r2, [r7, #4]
  78 003a AF4B     		ldr	r3, .L20+20
  79 003c 9A42     		cmp	r2, r3
  80 003e 2CD0     		beq	.L2
  81              		.loc 1 125 0 discriminator 7
  82 0040 7A68     		ldr	r2, [r7, #4]
  83 0042 AE4B     		ldr	r3, .L20+24
  84 0044 9A42     		cmp	r2, r3
  85 0046 28D0     		beq	.L2
  86              		.loc 1 125 0 discriminator 8
  87 0048 7A68     		ldr	r2, [r7, #4]
  88 004a AD4B     		ldr	r3, .L20+28
  89 004c 9A42     		cmp	r2, r3
  90 004e 24D0     		beq	.L2
  91              		.loc 1 125 0 discriminator 9
  92 0050 7A68     		ldr	r2, [r7, #4]
  93 0052 AC4B     		ldr	r3, .L20+32
  94 0054 9A42     		cmp	r2, r3
  95 0056 20D0     		beq	.L2
  96              		.loc 1 125 0 discriminator 10
  97 0058 7A68     		ldr	r2, [r7, #4]
  98 005a AB4B     		ldr	r3, .L20+36
  99 005c 9A42     		cmp	r2, r3
 100 005e 1CD0     		beq	.L2
 101              		.loc 1 125 0 discriminator 11
 102 0060 7A68     		ldr	r2, [r7, #4]
 103 0062 AA4B     		ldr	r3, .L20+40
 104 0064 9A42     		cmp	r2, r3
 105 0066 18D0     		beq	.L2
 106              		.loc 1 125 0 discriminator 12
 107 0068 7A68     		ldr	r2, [r7, #4]
 108 006a A94B     		ldr	r3, .L20+44
 109 006c 9A42     		cmp	r2, r3
 110 006e 14D0     		beq	.L2
 111              		.loc 1 125 0 discriminator 13
 112 0070 7A68     		ldr	r2, [r7, #4]
 113 0072 A84B     		ldr	r3, .L20+48
 114 0074 9A42     		cmp	r2, r3
 115 0076 10D0     		beq	.L2
 116              		.loc 1 125 0 discriminator 14
 117 0078 7A68     		ldr	r2, [r7, #4]
 118 007a A74B     		ldr	r3, .L20+52
 119 007c 9A42     		cmp	r2, r3
 120 007e 0CD0     		beq	.L2
 121              		.loc 1 125 0 discriminator 15
 122 0080 7A68     		ldr	r2, [r7, #4]
 123 0082 A64B     		ldr	r3, .L20+56
 124 0084 9A42     		cmp	r2, r3
 125 0086 08D0     		beq	.L2
 126              		.loc 1 125 0 discriminator 16
 127 0088 7A68     		ldr	r2, [r7, #4]
 128 008a A54B     		ldr	r3, .L20+60
 129 008c 9A42     		cmp	r2, r3
 130 008e 04D0     		beq	.L2
 131              		.loc 1 125 0 discriminator 17
 132 0090 A448     		ldr	r0, .L20+64
 133 0092 4FF07D01 		mov	r1, #125
 134 0096 FFF7FEFF 		bl	assert_failed
 135              	.L2:
 126:../SPL/src/stm32f10x_tim.c ****  
 127:../SPL/src/stm32f10x_tim.c ****   if (TIMx == TIM1)
 136              		.loc 1 127 0 is_stmt 1
 137 009a 7A68     		ldr	r2, [r7, #4]
 138 009c 914B     		ldr	r3, .L20
 139 009e 9A42     		cmp	r2, r3
 140 00a0 0CD1     		bne	.L3
 128:../SPL/src/stm32f10x_tim.c ****   {
 129:../SPL/src/stm32f10x_tim.c ****     RCC_APB2PeriphResetCmd(RCC_APB2Periph_TIM1, ENABLE);
 141              		.loc 1 129 0
 142 00a2 4FF40060 		mov	r0, #2048
 143 00a6 4FF00101 		mov	r1, #1
 144 00aa FFF7FEFF 		bl	RCC_APB2PeriphResetCmd
 130:../SPL/src/stm32f10x_tim.c ****     RCC_APB2PeriphResetCmd(RCC_APB2Periph_TIM1, DISABLE);  
 145              		.loc 1 130 0
 146 00ae 4FF40060 		mov	r0, #2048
 147 00b2 4FF00001 		mov	r1, #0
 148 00b6 FFF7FEFF 		bl	RCC_APB2PeriphResetCmd
 149 00ba 0EE1     		b	.L1
 150              	.L3:
 131:../SPL/src/stm32f10x_tim.c ****   }     
 132:../SPL/src/stm32f10x_tim.c ****   else if (TIMx == TIM2)
 151              		.loc 1 132 0
 152 00bc 7B68     		ldr	r3, [r7, #4]
 153 00be B3F1804F 		cmp	r3, #1073741824
 154 00c2 0CD1     		bne	.L5
 133:../SPL/src/stm32f10x_tim.c ****   {
 134:../SPL/src/stm32f10x_tim.c ****     RCC_APB1PeriphResetCmd(RCC_APB1Periph_TIM2, ENABLE);
 155              		.loc 1 134 0
 156 00c4 4FF00100 		mov	r0, #1
 157 00c8 4FF00101 		mov	r1, #1
 158 00cc FFF7FEFF 		bl	RCC_APB1PeriphResetCmd
 135:../SPL/src/stm32f10x_tim.c ****     RCC_APB1PeriphResetCmd(RCC_APB1Periph_TIM2, DISABLE);
 159              		.loc 1 135 0
 160 00d0 4FF00100 		mov	r0, #1
 161 00d4 4FF00001 		mov	r1, #0
 162 00d8 FFF7FEFF 		bl	RCC_APB1PeriphResetCmd
 163 00dc FDE0     		b	.L1
 164              	.L5:
 136:../SPL/src/stm32f10x_tim.c ****   }
 137:../SPL/src/stm32f10x_tim.c ****   else if (TIMx == TIM3)
 165              		.loc 1 137 0
 166 00de 7A68     		ldr	r2, [r7, #4]
 167 00e0 814B     		ldr	r3, .L20+4
 168 00e2 9A42     		cmp	r2, r3
 169 00e4 0CD1     		bne	.L6
 138:../SPL/src/stm32f10x_tim.c ****   {
 139:../SPL/src/stm32f10x_tim.c ****     RCC_APB1PeriphResetCmd(RCC_APB1Periph_TIM3, ENABLE);
 170              		.loc 1 139 0
 171 00e6 4FF00200 		mov	r0, #2
 172 00ea 4FF00101 		mov	r1, #1
 173 00ee FFF7FEFF 		bl	RCC_APB1PeriphResetCmd
 140:../SPL/src/stm32f10x_tim.c ****     RCC_APB1PeriphResetCmd(RCC_APB1Periph_TIM3, DISABLE);
 174              		.loc 1 140 0
 175 00f2 4FF00200 		mov	r0, #2
 176 00f6 4FF00001 		mov	r1, #0
 177 00fa FFF7FEFF 		bl	RCC_APB1PeriphResetCmd
 178 00fe ECE0     		b	.L1
 179              	.L6:
 141:../SPL/src/stm32f10x_tim.c ****   }
 142:../SPL/src/stm32f10x_tim.c ****   else if (TIMx == TIM4)
 180              		.loc 1 142 0
 181 0100 7A68     		ldr	r2, [r7, #4]
 182 0102 7A4B     		ldr	r3, .L20+8
 183 0104 9A42     		cmp	r2, r3
 184 0106 0CD1     		bne	.L7
 143:../SPL/src/stm32f10x_tim.c ****   {
 144:../SPL/src/stm32f10x_tim.c ****     RCC_APB1PeriphResetCmd(RCC_APB1Periph_TIM4, ENABLE);
 185              		.loc 1 144 0
 186 0108 4FF00400 		mov	r0, #4
 187 010c 4FF00101 		mov	r1, #1
 188 0110 FFF7FEFF 		bl	RCC_APB1PeriphResetCmd
 145:../SPL/src/stm32f10x_tim.c ****     RCC_APB1PeriphResetCmd(RCC_APB1Periph_TIM4, DISABLE);
 189              		.loc 1 145 0
 190 0114 4FF00400 		mov	r0, #4
 191 0118 4FF00001 		mov	r1, #0
 192 011c FFF7FEFF 		bl	RCC_APB1PeriphResetCmd
 193 0120 DBE0     		b	.L1
 194              	.L7:
 146:../SPL/src/stm32f10x_tim.c ****   } 
 147:../SPL/src/stm32f10x_tim.c ****   else if (TIMx == TIM5)
 195              		.loc 1 147 0
 196 0122 7A68     		ldr	r2, [r7, #4]
 197 0124 724B     		ldr	r3, .L20+12
 198 0126 9A42     		cmp	r2, r3
 199 0128 0CD1     		bne	.L8
 148:../SPL/src/stm32f10x_tim.c ****   {
 149:../SPL/src/stm32f10x_tim.c ****     RCC_APB1PeriphResetCmd(RCC_APB1Periph_TIM5, ENABLE);
 200              		.loc 1 149 0
 201 012a 4FF00800 		mov	r0, #8
 202 012e 4FF00101 		mov	r1, #1
 203 0132 FFF7FEFF 		bl	RCC_APB1PeriphResetCmd
 150:../SPL/src/stm32f10x_tim.c ****     RCC_APB1PeriphResetCmd(RCC_APB1Periph_TIM5, DISABLE);
 204              		.loc 1 150 0
 205 0136 4FF00800 		mov	r0, #8
 206 013a 4FF00001 		mov	r1, #0
 207 013e FFF7FEFF 		bl	RCC_APB1PeriphResetCmd
 208 0142 CAE0     		b	.L1
 209              	.L8:
 151:../SPL/src/stm32f10x_tim.c ****   } 
 152:../SPL/src/stm32f10x_tim.c ****   else if (TIMx == TIM6)
 210              		.loc 1 152 0
 211 0144 7A68     		ldr	r2, [r7, #4]
 212 0146 6B4B     		ldr	r3, .L20+16
 213 0148 9A42     		cmp	r2, r3
 214 014a 0CD1     		bne	.L9
 153:../SPL/src/stm32f10x_tim.c ****   {
 154:../SPL/src/stm32f10x_tim.c ****     RCC_APB1PeriphResetCmd(RCC_APB1Periph_TIM6, ENABLE);
 215              		.loc 1 154 0
 216 014c 4FF01000 		mov	r0, #16
 217 0150 4FF00101 		mov	r1, #1
 218 0154 FFF7FEFF 		bl	RCC_APB1PeriphResetCmd
 155:../SPL/src/stm32f10x_tim.c ****     RCC_APB1PeriphResetCmd(RCC_APB1Periph_TIM6, DISABLE);
 219              		.loc 1 155 0
 220 0158 4FF01000 		mov	r0, #16
 221 015c 4FF00001 		mov	r1, #0
 222 0160 FFF7FEFF 		bl	RCC_APB1PeriphResetCmd
 223 0164 B9E0     		b	.L1
 224              	.L9:
 156:../SPL/src/stm32f10x_tim.c ****   } 
 157:../SPL/src/stm32f10x_tim.c ****   else if (TIMx == TIM7)
 225              		.loc 1 157 0
 226 0166 7A68     		ldr	r2, [r7, #4]
 227 0168 634B     		ldr	r3, .L20+20
 228 016a 9A42     		cmp	r2, r3
 229 016c 0CD1     		bne	.L10
 158:../SPL/src/stm32f10x_tim.c ****   {
 159:../SPL/src/stm32f10x_tim.c ****     RCC_APB1PeriphResetCmd(RCC_APB1Periph_TIM7, ENABLE);
 230              		.loc 1 159 0
 231 016e 4FF02000 		mov	r0, #32
 232 0172 4FF00101 		mov	r1, #1
 233 0176 FFF7FEFF 		bl	RCC_APB1PeriphResetCmd
 160:../SPL/src/stm32f10x_tim.c ****     RCC_APB1PeriphResetCmd(RCC_APB1Periph_TIM7, DISABLE);
 234              		.loc 1 160 0
 235 017a 4FF02000 		mov	r0, #32
 236 017e 4FF00001 		mov	r1, #0
 237 0182 FFF7FEFF 		bl	RCC_APB1PeriphResetCmd
 238 0186 A8E0     		b	.L1
 239              	.L10:
 161:../SPL/src/stm32f10x_tim.c ****   } 
 162:../SPL/src/stm32f10x_tim.c ****   else if (TIMx == TIM8)
 240              		.loc 1 162 0
 241 0188 7A68     		ldr	r2, [r7, #4]
 242 018a 5C4B     		ldr	r3, .L20+24
 243 018c 9A42     		cmp	r2, r3
 244 018e 0CD1     		bne	.L11
 163:../SPL/src/stm32f10x_tim.c ****   {
 164:../SPL/src/stm32f10x_tim.c ****     RCC_APB2PeriphResetCmd(RCC_APB2Periph_TIM8, ENABLE);
 245              		.loc 1 164 0
 246 0190 4FF40050 		mov	r0, #8192
 247 0194 4FF00101 		mov	r1, #1
 248 0198 FFF7FEFF 		bl	RCC_APB2PeriphResetCmd
 165:../SPL/src/stm32f10x_tim.c ****     RCC_APB2PeriphResetCmd(RCC_APB2Periph_TIM8, DISABLE);
 249              		.loc 1 165 0
 250 019c 4FF40050 		mov	r0, #8192
 251 01a0 4FF00001 		mov	r1, #0
 252 01a4 FFF7FEFF 		bl	RCC_APB2PeriphResetCmd
 253 01a8 97E0     		b	.L1
 254              	.L11:
 166:../SPL/src/stm32f10x_tim.c ****   }
 167:../SPL/src/stm32f10x_tim.c ****   else if (TIMx == TIM9)
 255              		.loc 1 167 0
 256 01aa 7A68     		ldr	r2, [r7, #4]
 257 01ac 544B     		ldr	r3, .L20+28
 258 01ae 9A42     		cmp	r2, r3
 259 01b0 0CD1     		bne	.L12
 168:../SPL/src/stm32f10x_tim.c ****   {      
 169:../SPL/src/stm32f10x_tim.c ****     RCC_APB2PeriphResetCmd(RCC_APB2Periph_TIM9, ENABLE);
 260              		.loc 1 169 0
 261 01b2 4FF40020 		mov	r0, #524288
 262 01b6 4FF00101 		mov	r1, #1
 263 01ba FFF7FEFF 		bl	RCC_APB2PeriphResetCmd
 170:../SPL/src/stm32f10x_tim.c ****     RCC_APB2PeriphResetCmd(RCC_APB2Periph_TIM9, DISABLE);  
 264              		.loc 1 170 0
 265 01be 4FF40020 		mov	r0, #524288
 266 01c2 4FF00001 		mov	r1, #0
 267 01c6 FFF7FEFF 		bl	RCC_APB2PeriphResetCmd
 268 01ca 86E0     		b	.L1
 269              	.L12:
 171:../SPL/src/stm32f10x_tim.c ****    }  
 172:../SPL/src/stm32f10x_tim.c ****   else if (TIMx == TIM10)
 270              		.loc 1 172 0
 271 01cc 7A68     		ldr	r2, [r7, #4]
 272 01ce 4D4B     		ldr	r3, .L20+32
 273 01d0 9A42     		cmp	r2, r3
 274 01d2 0CD1     		bne	.L13
 173:../SPL/src/stm32f10x_tim.c ****   {      
 174:../SPL/src/stm32f10x_tim.c ****     RCC_APB2PeriphResetCmd(RCC_APB2Periph_TIM10, ENABLE);
 275              		.loc 1 174 0
 276 01d4 4FF48010 		mov	r0, #1048576
 277 01d8 4FF00101 		mov	r1, #1
 278 01dc FFF7FEFF 		bl	RCC_APB2PeriphResetCmd
 175:../SPL/src/stm32f10x_tim.c ****     RCC_APB2PeriphResetCmd(RCC_APB2Periph_TIM10, DISABLE);  
 279              		.loc 1 175 0
 280 01e0 4FF48010 		mov	r0, #1048576
 281 01e4 4FF00001 		mov	r1, #0
 282 01e8 FFF7FEFF 		bl	RCC_APB2PeriphResetCmd
 283 01ec 75E0     		b	.L1
 284              	.L13:
 176:../SPL/src/stm32f10x_tim.c ****   }  
 177:../SPL/src/stm32f10x_tim.c ****   else if (TIMx == TIM11) 
 285              		.loc 1 177 0
 286 01ee 7A68     		ldr	r2, [r7, #4]
 287 01f0 454B     		ldr	r3, .L20+36
 288 01f2 9A42     		cmp	r2, r3
 289 01f4 0CD1     		bne	.L14
 178:../SPL/src/stm32f10x_tim.c ****   {     
 179:../SPL/src/stm32f10x_tim.c ****     RCC_APB2PeriphResetCmd(RCC_APB2Periph_TIM11, ENABLE);
 290              		.loc 1 179 0
 291 01f6 4FF40010 		mov	r0, #2097152
 292 01fa 4FF00101 		mov	r1, #1
 293 01fe FFF7FEFF 		bl	RCC_APB2PeriphResetCmd
 180:../SPL/src/stm32f10x_tim.c ****     RCC_APB2PeriphResetCmd(RCC_APB2Periph_TIM11, DISABLE);  
 294              		.loc 1 180 0
 295 0202 4FF40010 		mov	r0, #2097152
 296 0206 4FF00001 		mov	r1, #0
 297 020a FFF7FEFF 		bl	RCC_APB2PeriphResetCmd
 298 020e 64E0     		b	.L1
 299              	.L14:
 181:../SPL/src/stm32f10x_tim.c ****   }  
 182:../SPL/src/stm32f10x_tim.c ****   else if (TIMx == TIM12)
 300              		.loc 1 182 0
 301 0210 7A68     		ldr	r2, [r7, #4]
 302 0212 3E4B     		ldr	r3, .L20+40
 303 0214 9A42     		cmp	r2, r3
 304 0216 0CD1     		bne	.L15
 183:../SPL/src/stm32f10x_tim.c ****   {      
 184:../SPL/src/stm32f10x_tim.c ****     RCC_APB1PeriphResetCmd(RCC_APB1Periph_TIM12, ENABLE);
 305              		.loc 1 184 0
 306 0218 4FF04000 		mov	r0, #64
 307 021c 4FF00101 		mov	r1, #1
 308 0220 FFF7FEFF 		bl	RCC_APB1PeriphResetCmd
 185:../SPL/src/stm32f10x_tim.c ****     RCC_APB1PeriphResetCmd(RCC_APB1Periph_TIM12, DISABLE);  
 309              		.loc 1 185 0
 310 0224 4FF04000 		mov	r0, #64
 311 0228 4FF00001 		mov	r1, #0
 312 022c FFF7FEFF 		bl	RCC_APB1PeriphResetCmd
 313 0230 53E0     		b	.L1
 314              	.L15:
 186:../SPL/src/stm32f10x_tim.c ****   }  
 187:../SPL/src/stm32f10x_tim.c ****   else if (TIMx == TIM13) 
 315              		.loc 1 187 0
 316 0232 7A68     		ldr	r2, [r7, #4]
 317 0234 364B     		ldr	r3, .L20+44
 318 0236 9A42     		cmp	r2, r3
 319 0238 0CD1     		bne	.L16
 188:../SPL/src/stm32f10x_tim.c ****   {       
 189:../SPL/src/stm32f10x_tim.c ****     RCC_APB1PeriphResetCmd(RCC_APB1Periph_TIM13, ENABLE);
 320              		.loc 1 189 0
 321 023a 4FF08000 		mov	r0, #128
 322 023e 4FF00101 		mov	r1, #1
 323 0242 FFF7FEFF 		bl	RCC_APB1PeriphResetCmd
 190:../SPL/src/stm32f10x_tim.c ****     RCC_APB1PeriphResetCmd(RCC_APB1Periph_TIM13, DISABLE);  
 324              		.loc 1 190 0
 325 0246 4FF08000 		mov	r0, #128
 326 024a 4FF00001 		mov	r1, #0
 327 024e FFF7FEFF 		bl	RCC_APB1PeriphResetCmd
 328 0252 42E0     		b	.L1
 329              	.L16:
 191:../SPL/src/stm32f10x_tim.c ****   }
 192:../SPL/src/stm32f10x_tim.c ****   else if (TIMx == TIM14) 
 330              		.loc 1 192 0
 331 0254 7A68     		ldr	r2, [r7, #4]
 332 0256 2F4B     		ldr	r3, .L20+48
 333 0258 9A42     		cmp	r2, r3
 334 025a 0CD1     		bne	.L17
 193:../SPL/src/stm32f10x_tim.c ****   {       
 194:../SPL/src/stm32f10x_tim.c ****     RCC_APB1PeriphResetCmd(RCC_APB1Periph_TIM14, ENABLE);
 335              		.loc 1 194 0
 336 025c 4FF48070 		mov	r0, #256
 337 0260 4FF00101 		mov	r1, #1
 338 0264 FFF7FEFF 		bl	RCC_APB1PeriphResetCmd
 195:../SPL/src/stm32f10x_tim.c ****     RCC_APB1PeriphResetCmd(RCC_APB1Periph_TIM14, DISABLE);  
 339              		.loc 1 195 0
 340 0268 4FF48070 		mov	r0, #256
 341 026c 4FF00001 		mov	r1, #0
 342 0270 FFF7FEFF 		bl	RCC_APB1PeriphResetCmd
 343 0274 31E0     		b	.L1
 344              	.L17:
 196:../SPL/src/stm32f10x_tim.c ****   }        
 197:../SPL/src/stm32f10x_tim.c ****   else if (TIMx == TIM15)
 345              		.loc 1 197 0
 346 0276 7A68     		ldr	r2, [r7, #4]
 347 0278 274B     		ldr	r3, .L20+52
 348 027a 9A42     		cmp	r2, r3
 349 027c 0CD1     		bne	.L18
 198:../SPL/src/stm32f10x_tim.c ****   {
 199:../SPL/src/stm32f10x_tim.c ****     RCC_APB2PeriphResetCmd(RCC_APB2Periph_TIM15, ENABLE);
 350              		.loc 1 199 0
 351 027e 4FF48030 		mov	r0, #65536
 352 0282 4FF00101 		mov	r1, #1
 353 0286 FFF7FEFF 		bl	RCC_APB2PeriphResetCmd
 200:../SPL/src/stm32f10x_tim.c ****     RCC_APB2PeriphResetCmd(RCC_APB2Periph_TIM15, DISABLE);
 354              		.loc 1 200 0
 355 028a 4FF48030 		mov	r0, #65536
 356 028e 4FF00001 		mov	r1, #0
 357 0292 FFF7FEFF 		bl	RCC_APB2PeriphResetCmd
 358 0296 20E0     		b	.L1
 359              	.L18:
 201:../SPL/src/stm32f10x_tim.c ****   } 
 202:../SPL/src/stm32f10x_tim.c ****   else if (TIMx == TIM16)
 360              		.loc 1 202 0
 361 0298 7A68     		ldr	r2, [r7, #4]
 362 029a 204B     		ldr	r3, .L20+56
 363 029c 9A42     		cmp	r2, r3
 364 029e 0CD1     		bne	.L19
 203:../SPL/src/stm32f10x_tim.c ****   {
 204:../SPL/src/stm32f10x_tim.c ****     RCC_APB2PeriphResetCmd(RCC_APB2Periph_TIM16, ENABLE);
 365              		.loc 1 204 0
 366 02a0 4FF40030 		mov	r0, #131072
 367 02a4 4FF00101 		mov	r1, #1
 368 02a8 FFF7FEFF 		bl	RCC_APB2PeriphResetCmd
 205:../SPL/src/stm32f10x_tim.c ****     RCC_APB2PeriphResetCmd(RCC_APB2Periph_TIM16, DISABLE);
 369              		.loc 1 205 0
 370 02ac 4FF40030 		mov	r0, #131072
 371 02b0 4FF00001 		mov	r1, #0
 372 02b4 FFF7FEFF 		bl	RCC_APB2PeriphResetCmd
 373 02b8 0FE0     		b	.L1
 374              	.L19:
 206:../SPL/src/stm32f10x_tim.c ****   } 
 207:../SPL/src/stm32f10x_tim.c ****   else
 208:../SPL/src/stm32f10x_tim.c ****   {
 209:../SPL/src/stm32f10x_tim.c ****     if (TIMx == TIM17)
 375              		.loc 1 209 0
 376 02ba 7A68     		ldr	r2, [r7, #4]
 377 02bc 184B     		ldr	r3, .L20+60
 378 02be 9A42     		cmp	r2, r3
 379 02c0 0BD1     		bne	.L1
 210:../SPL/src/stm32f10x_tim.c ****     {
 211:../SPL/src/stm32f10x_tim.c ****       RCC_APB2PeriphResetCmd(RCC_APB2Periph_TIM17, ENABLE);
 380              		.loc 1 211 0
 381 02c2 4FF48020 		mov	r0, #262144
 382 02c6 4FF00101 		mov	r1, #1
 383 02ca FFF7FEFF 		bl	RCC_APB2PeriphResetCmd
 212:../SPL/src/stm32f10x_tim.c ****       RCC_APB2PeriphResetCmd(RCC_APB2Periph_TIM17, DISABLE);
 384              		.loc 1 212 0
 385 02ce 4FF48020 		mov	r0, #262144
 386 02d2 4FF00001 		mov	r1, #0
 387 02d6 FFF7FEFF 		bl	RCC_APB2PeriphResetCmd
 388              	.L1:
 213:../SPL/src/stm32f10x_tim.c ****     }  
 214:../SPL/src/stm32f10x_tim.c ****   }
 215:../SPL/src/stm32f10x_tim.c **** }
 389              		.loc 1 215 0
 390 02da 07F10807 		add	r7, r7, #8
 391 02de BD46     		mov	sp, r7
 392 02e0 80BD     		pop	{r7, pc}
 393              	.L21:
 394 02e2 00BF     		.align	2
 395              	.L20:
 396 02e4 002C0140 		.word	1073818624
 397 02e8 00040040 		.word	1073742848
 398 02ec 00080040 		.word	1073743872
 399 02f0 000C0040 		.word	1073744896
 400 02f4 00100040 		.word	1073745920
 401 02f8 00140040 		.word	1073746944
 402 02fc 00340140 		.word	1073820672
 403 0300 004C0140 		.word	1073826816
 404 0304 00500140 		.word	1073827840
 405 0308 00540140 		.word	1073828864
 406 030c 00180040 		.word	1073747968
 407 0310 001C0040 		.word	1073748992
 408 0314 00200040 		.word	1073750016
 409 0318 00400140 		.word	1073823744
 410 031c 00440140 		.word	1073824768
 411 0320 00480140 		.word	1073825792
 412 0324 00000000 		.word	.LC0
 413              		.cfi_endproc
 414              	.LFE29:
 416              		.align	2
 417              		.global	TIM_TimeBaseInit
 418              		.thumb
 419              		.thumb_func
 421              	TIM_TimeBaseInit:
 422              	.LFB30:
 216:../SPL/src/stm32f10x_tim.c **** 
 217:../SPL/src/stm32f10x_tim.c **** /**
 218:../SPL/src/stm32f10x_tim.c ****   * @brief  Initializes the TIMx Time Base Unit peripheral according to 
 219:../SPL/src/stm32f10x_tim.c ****   *         the specified parameters in the TIM_TimeBaseInitStruct.
 220:../SPL/src/stm32f10x_tim.c ****   * @param  TIMx: where x can be 1 to 17 to select the TIM peripheral.
 221:../SPL/src/stm32f10x_tim.c ****   * @param  TIM_TimeBaseInitStruct: pointer to a TIM_TimeBaseInitTypeDef
 222:../SPL/src/stm32f10x_tim.c ****   *         structure that contains the configuration information for the 
 223:../SPL/src/stm32f10x_tim.c ****   *         specified TIM peripheral.
 224:../SPL/src/stm32f10x_tim.c ****   * @retval None
 225:../SPL/src/stm32f10x_tim.c ****   */
 226:../SPL/src/stm32f10x_tim.c **** void TIM_TimeBaseInit(TIM_TypeDef* TIMx, TIM_TimeBaseInitTypeDef* TIM_TimeBaseInitStruct)
 227:../SPL/src/stm32f10x_tim.c **** {
 423              		.loc 1 227 0
 424              		.cfi_startproc
 425              		@ args = 0, pretend = 0, frame = 16
 426              		@ frame_needed = 1, uses_anonymous_args = 0
 427 0328 80B5     		push	{r7, lr}
 428              	.LCFI3:
 429              		.cfi_def_cfa_offset 8
 430              		.cfi_offset 7, -8
 431              		.cfi_offset 14, -4
 432 032a 84B0     		sub	sp, sp, #16
 433              	.LCFI4:
 434              		.cfi_def_cfa_offset 24
 435 032c 00AF     		add	r7, sp, #0
 436              	.LCFI5:
 437              		.cfi_def_cfa_register 7
 438 032e 7860     		str	r0, [r7, #4]
 439 0330 3960     		str	r1, [r7, #0]
 228:../SPL/src/stm32f10x_tim.c ****   uint16_t tmpcr1 = 0;
 440              		.loc 1 228 0
 441 0332 4FF00003 		mov	r3, #0
 442 0336 FB81     		strh	r3, [r7, #14]	@ movhi
 229:../SPL/src/stm32f10x_tim.c **** 
 230:../SPL/src/stm32f10x_tim.c ****   /* Check the parameters */
 231:../SPL/src/stm32f10x_tim.c ****   assert_param(IS_TIM_ALL_PERIPH(TIMx)); 
 443              		.loc 1 231 0
 444 0338 7A68     		ldr	r2, [r7, #4]
 445 033a 6A4B     		ldr	r3, .L31
 446 033c 9A42     		cmp	r2, r3
 447 033e 44D0     		beq	.L23
 448              		.loc 1 231 0 is_stmt 0 discriminator 1
 449 0340 7B68     		ldr	r3, [r7, #4]
 450 0342 B3F1804F 		cmp	r3, #1073741824
 451 0346 40D0     		beq	.L23
 452              		.loc 1 231 0 discriminator 2
 453 0348 7A68     		ldr	r2, [r7, #4]
 454 034a 674B     		ldr	r3, .L31+4
 455 034c 9A42     		cmp	r2, r3
 456 034e 3CD0     		beq	.L23
 457              		.loc 1 231 0 discriminator 3
 458 0350 7A68     		ldr	r2, [r7, #4]
 459 0352 664B     		ldr	r3, .L31+8
 460 0354 9A42     		cmp	r2, r3
 461 0356 38D0     		beq	.L23
 462              		.loc 1 231 0 discriminator 4
 463 0358 7A68     		ldr	r2, [r7, #4]
 464 035a 654B     		ldr	r3, .L31+12
 465 035c 9A42     		cmp	r2, r3
 466 035e 34D0     		beq	.L23
 467              		.loc 1 231 0 discriminator 5
 468 0360 7A68     		ldr	r2, [r7, #4]
 469 0362 644B     		ldr	r3, .L31+16
 470 0364 9A42     		cmp	r2, r3
 471 0366 30D0     		beq	.L23
 472              		.loc 1 231 0 discriminator 6
 473 0368 7A68     		ldr	r2, [r7, #4]
 474 036a 634B     		ldr	r3, .L31+20
 475 036c 9A42     		cmp	r2, r3
 476 036e 2CD0     		beq	.L23
 477              		.loc 1 231 0 discriminator 7
 478 0370 7A68     		ldr	r2, [r7, #4]
 479 0372 624B     		ldr	r3, .L31+24
 480 0374 9A42     		cmp	r2, r3
 481 0376 28D0     		beq	.L23
 482              		.loc 1 231 0 discriminator 8
 483 0378 7A68     		ldr	r2, [r7, #4]
 484 037a 614B     		ldr	r3, .L31+28
 485 037c 9A42     		cmp	r2, r3
 486 037e 24D0     		beq	.L23
 487              		.loc 1 231 0 discriminator 9
 488 0380 7A68     		ldr	r2, [r7, #4]
 489 0382 604B     		ldr	r3, .L31+32
 490 0384 9A42     		cmp	r2, r3
 491 0386 20D0     		beq	.L23
 492              		.loc 1 231 0 discriminator 10
 493 0388 7A68     		ldr	r2, [r7, #4]
 494 038a 5F4B     		ldr	r3, .L31+36
 495 038c 9A42     		cmp	r2, r3
 496 038e 1CD0     		beq	.L23
 497              		.loc 1 231 0 discriminator 11
 498 0390 7A68     		ldr	r2, [r7, #4]
 499 0392 5E4B     		ldr	r3, .L31+40
 500 0394 9A42     		cmp	r2, r3
 501 0396 18D0     		beq	.L23
 502              		.loc 1 231 0 discriminator 12
 503 0398 7A68     		ldr	r2, [r7, #4]
 504 039a 5D4B     		ldr	r3, .L31+44
 505 039c 9A42     		cmp	r2, r3
 506 039e 14D0     		beq	.L23
 507              		.loc 1 231 0 discriminator 13
 508 03a0 7A68     		ldr	r2, [r7, #4]
 509 03a2 5C4B     		ldr	r3, .L31+48
 510 03a4 9A42     		cmp	r2, r3
 511 03a6 10D0     		beq	.L23
 512              		.loc 1 231 0 discriminator 14
 513 03a8 7A68     		ldr	r2, [r7, #4]
 514 03aa 5B4B     		ldr	r3, .L31+52
 515 03ac 9A42     		cmp	r2, r3
 516 03ae 0CD0     		beq	.L23
 517              		.loc 1 231 0 discriminator 15
 518 03b0 7A68     		ldr	r2, [r7, #4]
 519 03b2 5A4B     		ldr	r3, .L31+56
 520 03b4 9A42     		cmp	r2, r3
 521 03b6 08D0     		beq	.L23
 522              		.loc 1 231 0 discriminator 16
 523 03b8 7A68     		ldr	r2, [r7, #4]
 524 03ba 594B     		ldr	r3, .L31+60
 525 03bc 9A42     		cmp	r2, r3
 526 03be 04D0     		beq	.L23
 527              		.loc 1 231 0 discriminator 17
 528 03c0 5848     		ldr	r0, .L31+64
 529 03c2 4FF0E701 		mov	r1, #231
 530 03c6 FFF7FEFF 		bl	assert_failed
 531              	.L23:
 232:../SPL/src/stm32f10x_tim.c ****   assert_param(IS_TIM_COUNTER_MODE(TIM_TimeBaseInitStruct->TIM_CounterMode));
 532              		.loc 1 232 0 is_stmt 1
 533 03ca 3B68     		ldr	r3, [r7, #0]
 534 03cc 5B88     		ldrh	r3, [r3, #2]
 535 03ce 002B     		cmp	r3, #0
 536 03d0 14D0     		beq	.L24
 537              		.loc 1 232 0 is_stmt 0 discriminator 1
 538 03d2 3B68     		ldr	r3, [r7, #0]
 539 03d4 5B88     		ldrh	r3, [r3, #2]
 540 03d6 102B     		cmp	r3, #16
 541 03d8 10D0     		beq	.L24
 542              		.loc 1 232 0 discriminator 2
 543 03da 3B68     		ldr	r3, [r7, #0]
 544 03dc 5B88     		ldrh	r3, [r3, #2]
 545 03de 202B     		cmp	r3, #32
 546 03e0 0CD0     		beq	.L24
 547              		.loc 1 232 0 discriminator 3
 548 03e2 3B68     		ldr	r3, [r7, #0]
 549 03e4 5B88     		ldrh	r3, [r3, #2]
 550 03e6 402B     		cmp	r3, #64
 551 03e8 08D0     		beq	.L24
 552              		.loc 1 232 0 discriminator 4
 553 03ea 3B68     		ldr	r3, [r7, #0]
 554 03ec 5B88     		ldrh	r3, [r3, #2]
 555 03ee 602B     		cmp	r3, #96
 556 03f0 04D0     		beq	.L24
 557              		.loc 1 232 0 discriminator 5
 558 03f2 4C48     		ldr	r0, .L31+64
 559 03f4 4FF0E801 		mov	r1, #232
 560 03f8 FFF7FEFF 		bl	assert_failed
 561              	.L24:
 233:../SPL/src/stm32f10x_tim.c ****   assert_param(IS_TIM_CKD_DIV(TIM_TimeBaseInitStruct->TIM_ClockDivision));
 562              		.loc 1 233 0 is_stmt 1
 563 03fc 3B68     		ldr	r3, [r7, #0]
 564 03fe DB88     		ldrh	r3, [r3, #6]
 565 0400 002B     		cmp	r3, #0
 566 0402 0ED0     		beq	.L25
 567              		.loc 1 233 0 is_stmt 0 discriminator 1
 568 0404 3B68     		ldr	r3, [r7, #0]
 569 0406 DB88     		ldrh	r3, [r3, #6]
 570 0408 B3F5807F 		cmp	r3, #256
 571 040c 09D0     		beq	.L25
 572              		.loc 1 233 0 discriminator 2
 573 040e 3B68     		ldr	r3, [r7, #0]
 574 0410 DB88     		ldrh	r3, [r3, #6]
 575 0412 B3F5007F 		cmp	r3, #512
 576 0416 04D0     		beq	.L25
 577              		.loc 1 233 0 discriminator 3
 578 0418 4248     		ldr	r0, .L31+64
 579 041a 4FF0E901 		mov	r1, #233
 580 041e FFF7FEFF 		bl	assert_failed
 581              	.L25:
 234:../SPL/src/stm32f10x_tim.c **** 
 235:../SPL/src/stm32f10x_tim.c ****   tmpcr1 = TIMx->CR1;  
 582              		.loc 1 235 0 is_stmt 1
 583 0422 7B68     		ldr	r3, [r7, #4]
 584 0424 1B88     		ldrh	r3, [r3, #0]	@ movhi
 585 0426 FB81     		strh	r3, [r7, #14]	@ movhi
 236:../SPL/src/stm32f10x_tim.c **** 
 237:../SPL/src/stm32f10x_tim.c ****   if((TIMx == TIM1) || (TIMx == TIM8)|| (TIMx == TIM2) || (TIMx == TIM3)||
 586              		.loc 1 237 0
 587 0428 7A68     		ldr	r2, [r7, #4]
 588 042a 2E4B     		ldr	r3, .L31
 589 042c 9A42     		cmp	r2, r3
 590 042e 13D0     		beq	.L26
 591              		.loc 1 237 0 is_stmt 0 discriminator 1
 592 0430 7A68     		ldr	r2, [r7, #4]
 593 0432 324B     		ldr	r3, .L31+24
 594 0434 9A42     		cmp	r2, r3
 595 0436 0FD0     		beq	.L26
 596 0438 7B68     		ldr	r3, [r7, #4]
 597 043a B3F1804F 		cmp	r3, #1073741824
 598 043e 0BD0     		beq	.L26
 599 0440 7A68     		ldr	r2, [r7, #4]
 600 0442 294B     		ldr	r3, .L31+4
 601 0444 9A42     		cmp	r2, r3
 602 0446 07D0     		beq	.L26
 603 0448 7A68     		ldr	r2, [r7, #4]
 604 044a 284B     		ldr	r3, .L31+8
 605 044c 9A42     		cmp	r2, r3
 606 044e 03D0     		beq	.L26
 238:../SPL/src/stm32f10x_tim.c ****      (TIMx == TIM4) || (TIMx == TIM5)) 
 607              		.loc 1 238 0 is_stmt 1
 608 0450 7A68     		ldr	r2, [r7, #4]
 609 0452 274B     		ldr	r3, .L31+12
 610 0454 9A42     		cmp	r2, r3
 611 0456 08D1     		bne	.L27
 612              	.L26:
 239:../SPL/src/stm32f10x_tim.c ****   {
 240:../SPL/src/stm32f10x_tim.c ****     /* Select the Counter Mode */
 241:../SPL/src/stm32f10x_tim.c ****     tmpcr1 &= (uint16_t)(~((uint16_t)(TIM_CR1_DIR | TIM_CR1_CMS)));
 613              		.loc 1 241 0
 614 0458 FB89     		ldrh	r3, [r7, #14]	@ movhi
 615 045a 23F07003 		bic	r3, r3, #112
 616 045e FB81     		strh	r3, [r7, #14]	@ movhi
 242:../SPL/src/stm32f10x_tim.c ****     tmpcr1 |= (uint32_t)TIM_TimeBaseInitStruct->TIM_CounterMode;
 617              		.loc 1 242 0
 618 0460 3B68     		ldr	r3, [r7, #0]
 619 0462 5A88     		ldrh	r2, [r3, #2]
 620 0464 FB89     		ldrh	r3, [r7, #14]	@ movhi
 621 0466 1343     		orrs	r3, r3, r2
 622 0468 FB81     		strh	r3, [r7, #14]	@ movhi
 623              	.L27:
 243:../SPL/src/stm32f10x_tim.c ****   }
 244:../SPL/src/stm32f10x_tim.c ****  
 245:../SPL/src/stm32f10x_tim.c ****   if((TIMx != TIM6) && (TIMx != TIM7))
 624              		.loc 1 245 0
 625 046a 7A68     		ldr	r2, [r7, #4]
 626 046c 214B     		ldr	r3, .L31+16
 627 046e 9A42     		cmp	r2, r3
 628 0470 0CD0     		beq	.L28
 629              		.loc 1 245 0 is_stmt 0 discriminator 1
 630 0472 7A68     		ldr	r2, [r7, #4]
 631 0474 204B     		ldr	r3, .L31+20
 632 0476 9A42     		cmp	r2, r3
 633 0478 08D0     		beq	.L28
 246:../SPL/src/stm32f10x_tim.c ****   {
 247:../SPL/src/stm32f10x_tim.c ****     /* Set the clock division */
 248:../SPL/src/stm32f10x_tim.c ****     tmpcr1 &= (uint16_t)(~((uint16_t)TIM_CR1_CKD));
 634              		.loc 1 248 0 is_stmt 1
 635 047a FB89     		ldrh	r3, [r7, #14]	@ movhi
 636 047c 23F44073 		bic	r3, r3, #768
 637 0480 FB81     		strh	r3, [r7, #14]	@ movhi
 249:../SPL/src/stm32f10x_tim.c ****     tmpcr1 |= (uint32_t)TIM_TimeBaseInitStruct->TIM_ClockDivision;
 638              		.loc 1 249 0
 639 0482 3B68     		ldr	r3, [r7, #0]
 640 0484 DA88     		ldrh	r2, [r3, #6]
 641 0486 FB89     		ldrh	r3, [r7, #14]	@ movhi
 642 0488 1343     		orrs	r3, r3, r2
 643 048a FB81     		strh	r3, [r7, #14]	@ movhi
 644              	.L28:
 250:../SPL/src/stm32f10x_tim.c ****   }
 251:../SPL/src/stm32f10x_tim.c **** 
 252:../SPL/src/stm32f10x_tim.c ****   TIMx->CR1 = tmpcr1;
 645              		.loc 1 252 0
 646 048c 7B68     		ldr	r3, [r7, #4]
 647 048e FA89     		ldrh	r2, [r7, #14]	@ movhi
 648 0490 1A80     		strh	r2, [r3, #0]	@ movhi
 253:../SPL/src/stm32f10x_tim.c **** 
 254:../SPL/src/stm32f10x_tim.c ****   /* Set the Autoreload value */
 255:../SPL/src/stm32f10x_tim.c ****   TIMx->ARR = TIM_TimeBaseInitStruct->TIM_Period ;
 649              		.loc 1 255 0
 650 0492 3B68     		ldr	r3, [r7, #0]
 651 0494 9A88     		ldrh	r2, [r3, #4]
 652 0496 7B68     		ldr	r3, [r7, #4]
 653 0498 9A85     		strh	r2, [r3, #44]	@ movhi
 256:../SPL/src/stm32f10x_tim.c ****  
 257:../SPL/src/stm32f10x_tim.c ****   /* Set the Prescaler value */
 258:../SPL/src/stm32f10x_tim.c ****   TIMx->PSC = TIM_TimeBaseInitStruct->TIM_Prescaler;
 654              		.loc 1 258 0
 655 049a 3B68     		ldr	r3, [r7, #0]
 656 049c 1A88     		ldrh	r2, [r3, #0]
 657 049e 7B68     		ldr	r3, [r7, #4]
 658 04a0 1A85     		strh	r2, [r3, #40]	@ movhi
 259:../SPL/src/stm32f10x_tim.c ****     
 260:../SPL/src/stm32f10x_tim.c ****   if ((TIMx == TIM1) || (TIMx == TIM8)|| (TIMx == TIM15)|| (TIMx == TIM16) || (TIMx == TIM17))  
 659              		.loc 1 260 0
 660 04a2 7A68     		ldr	r2, [r7, #4]
 661 04a4 0F4B     		ldr	r3, .L31
 662 04a6 9A42     		cmp	r2, r3
 663 04a8 0FD0     		beq	.L29
 664              		.loc 1 260 0 is_stmt 0 discriminator 1
 665 04aa 7A68     		ldr	r2, [r7, #4]
 666 04ac 134B     		ldr	r3, .L31+24
 667 04ae 9A42     		cmp	r2, r3
 668 04b0 0BD0     		beq	.L29
 669 04b2 7A68     		ldr	r2, [r7, #4]
 670 04b4 184B     		ldr	r3, .L31+52
 671 04b6 9A42     		cmp	r2, r3
 672 04b8 07D0     		beq	.L29
 673 04ba 7A68     		ldr	r2, [r7, #4]
 674 04bc 174B     		ldr	r3, .L31+56
 675 04be 9A42     		cmp	r2, r3
 676 04c0 03D0     		beq	.L29
 677 04c2 7A68     		ldr	r2, [r7, #4]
 678 04c4 164B     		ldr	r3, .L31+60
 679 04c6 9A42     		cmp	r2, r3
 680 04c8 04D1     		bne	.L30
 681              	.L29:
 261:../SPL/src/stm32f10x_tim.c ****   {
 262:../SPL/src/stm32f10x_tim.c ****     /* Set the Repetition Counter value */
 263:../SPL/src/stm32f10x_tim.c ****     TIMx->RCR = TIM_TimeBaseInitStruct->TIM_RepetitionCounter;
 682              		.loc 1 263 0 is_stmt 1
 683 04ca 3B68     		ldr	r3, [r7, #0]
 684 04cc 1B7A     		ldrb	r3, [r3, #8]	@ zero_extendqisi2
 685 04ce 1A46     		mov	r2, r3
 686 04d0 7B68     		ldr	r3, [r7, #4]
 687 04d2 1A86     		strh	r2, [r3, #48]	@ movhi
 688              	.L30:
 264:../SPL/src/stm32f10x_tim.c ****   }
 265:../SPL/src/stm32f10x_tim.c **** 
 266:../SPL/src/stm32f10x_tim.c ****   /* Generate an update event to reload the Prescaler and the Repetition counter
 267:../SPL/src/stm32f10x_tim.c ****      values immediately */
 268:../SPL/src/stm32f10x_tim.c ****   TIMx->EGR = TIM_PSCReloadMode_Immediate;           
 689              		.loc 1 268 0
 690 04d4 7B68     		ldr	r3, [r7, #4]
 691 04d6 4FF00102 		mov	r2, #1
 692 04da 9A82     		strh	r2, [r3, #20]	@ movhi
 269:../SPL/src/stm32f10x_tim.c **** }
 693              		.loc 1 269 0
 694 04dc 07F11007 		add	r7, r7, #16
 695 04e0 BD46     		mov	sp, r7
 696 04e2 80BD     		pop	{r7, pc}
 697              	.L32:
 698              		.align	2
 699              	.L31:
 700 04e4 002C0140 		.word	1073818624
 701 04e8 00040040 		.word	1073742848
 702 04ec 00080040 		.word	1073743872
 703 04f0 000C0040 		.word	1073744896
 704 04f4 00100040 		.word	1073745920
 705 04f8 00140040 		.word	1073746944
 706 04fc 00340140 		.word	1073820672
 707 0500 004C0140 		.word	1073826816
 708 0504 00500140 		.word	1073827840
 709 0508 00540140 		.word	1073828864
 710 050c 00180040 		.word	1073747968
 711 0510 001C0040 		.word	1073748992
 712 0514 00200040 		.word	1073750016
 713 0518 00400140 		.word	1073823744
 714 051c 00440140 		.word	1073824768
 715 0520 00480140 		.word	1073825792
 716 0524 00000000 		.word	.LC0
 717              		.cfi_endproc
 718              	.LFE30:
 720              		.align	2
 721              		.global	TIM_OC1Init
 722              		.thumb
 723              		.thumb_func
 725              	TIM_OC1Init:
 726              	.LFB31:
 270:../SPL/src/stm32f10x_tim.c **** 
 271:../SPL/src/stm32f10x_tim.c **** /**
 272:../SPL/src/stm32f10x_tim.c ****   * @brief  Initializes the TIMx Channel1 according to the specified
 273:../SPL/src/stm32f10x_tim.c ****   *         parameters in the TIM_OCInitStruct.
 274:../SPL/src/stm32f10x_tim.c ****   * @param  TIMx: where x can be  1 to 17 except 6 and 7 to select the TIM peripheral.
 275:../SPL/src/stm32f10x_tim.c ****   * @param  TIM_OCInitStruct: pointer to a TIM_OCInitTypeDef structure
 276:../SPL/src/stm32f10x_tim.c ****   *         that contains the configuration information for the specified TIM peripheral.
 277:../SPL/src/stm32f10x_tim.c ****   * @retval None
 278:../SPL/src/stm32f10x_tim.c ****   */
 279:../SPL/src/stm32f10x_tim.c **** void TIM_OC1Init(TIM_TypeDef* TIMx, TIM_OCInitTypeDef* TIM_OCInitStruct)
 280:../SPL/src/stm32f10x_tim.c **** {
 727              		.loc 1 280 0
 728              		.cfi_startproc
 729              		@ args = 0, pretend = 0, frame = 16
 730              		@ frame_needed = 1, uses_anonymous_args = 0
 731 0528 80B5     		push	{r7, lr}
 732              	.LCFI6:
 733              		.cfi_def_cfa_offset 8
 734              		.cfi_offset 7, -8
 735              		.cfi_offset 14, -4
 736 052a 84B0     		sub	sp, sp, #16
 737              	.LCFI7:
 738              		.cfi_def_cfa_offset 24
 739 052c 00AF     		add	r7, sp, #0
 740              	.LCFI8:
 741              		.cfi_def_cfa_register 7
 742 052e 7860     		str	r0, [r7, #4]
 743 0530 3960     		str	r1, [r7, #0]
 281:../SPL/src/stm32f10x_tim.c ****   uint16_t tmpccmrx = 0, tmpccer = 0, tmpcr2 = 0;
 744              		.loc 1 281 0
 745 0532 4FF00003 		mov	r3, #0
 746 0536 7B81     		strh	r3, [r7, #10]	@ movhi
 747 0538 4FF00003 		mov	r3, #0
 748 053c FB81     		strh	r3, [r7, #14]	@ movhi
 749 053e 4FF00003 		mov	r3, #0
 750 0542 BB81     		strh	r3, [r7, #12]	@ movhi
 282:../SPL/src/stm32f10x_tim.c ****    
 283:../SPL/src/stm32f10x_tim.c ****   /* Check the parameters */
 284:../SPL/src/stm32f10x_tim.c ****   assert_param(IS_TIM_LIST8_PERIPH(TIMx));
 751              		.loc 1 284 0
 752 0544 7A68     		ldr	r2, [r7, #4]
 753 0546 914B     		ldr	r3, .L44
 754 0548 9A42     		cmp	r2, r3
 755 054a 3CD0     		beq	.L34
 756              		.loc 1 284 0 is_stmt 0 discriminator 1
 757 054c 7B68     		ldr	r3, [r7, #4]
 758 054e B3F1804F 		cmp	r3, #1073741824
 759 0552 38D0     		beq	.L34
 760              		.loc 1 284 0 discriminator 2
 761 0554 7A68     		ldr	r2, [r7, #4]
 762 0556 8E4B     		ldr	r3, .L44+4
 763 0558 9A42     		cmp	r2, r3
 764 055a 34D0     		beq	.L34
 765              		.loc 1 284 0 discriminator 3
 766 055c 7A68     		ldr	r2, [r7, #4]
 767 055e 8D4B     		ldr	r3, .L44+8
 768 0560 9A42     		cmp	r2, r3
 769 0562 30D0     		beq	.L34
 770              		.loc 1 284 0 discriminator 4
 771 0564 7A68     		ldr	r2, [r7, #4]
 772 0566 8C4B     		ldr	r3, .L44+12
 773 0568 9A42     		cmp	r2, r3
 774 056a 2CD0     		beq	.L34
 775              		.loc 1 284 0 discriminator 5
 776 056c 7A68     		ldr	r2, [r7, #4]
 777 056e 8B4B     		ldr	r3, .L44+16
 778 0570 9A42     		cmp	r2, r3
 779 0572 28D0     		beq	.L34
 780              		.loc 1 284 0 discriminator 6
 781 0574 7A68     		ldr	r2, [r7, #4]
 782 0576 8A4B     		ldr	r3, .L44+20
 783 0578 9A42     		cmp	r2, r3
 784 057a 24D0     		beq	.L34
 785              		.loc 1 284 0 discriminator 7
 786 057c 7A68     		ldr	r2, [r7, #4]
 787 057e 894B     		ldr	r3, .L44+24
 788 0580 9A42     		cmp	r2, r3
 789 0582 20D0     		beq	.L34
 790              		.loc 1 284 0 discriminator 8
 791 0584 7A68     		ldr	r2, [r7, #4]
 792 0586 884B     		ldr	r3, .L44+28
 793 0588 9A42     		cmp	r2, r3
 794 058a 1CD0     		beq	.L34
 795              		.loc 1 284 0 discriminator 9
 796 058c 7A68     		ldr	r2, [r7, #4]
 797 058e 874B     		ldr	r3, .L44+32
 798 0590 9A42     		cmp	r2, r3
 799 0592 18D0     		beq	.L34
 800              		.loc 1 284 0 discriminator 10
 801 0594 7A68     		ldr	r2, [r7, #4]
 802 0596 864B     		ldr	r3, .L44+36
 803 0598 9A42     		cmp	r2, r3
 804 059a 14D0     		beq	.L34
 805              		.loc 1 284 0 discriminator 11
 806 059c 7A68     		ldr	r2, [r7, #4]
 807 059e 854B     		ldr	r3, .L44+40
 808 05a0 9A42     		cmp	r2, r3
 809 05a2 10D0     		beq	.L34
 810              		.loc 1 284 0 discriminator 12
 811 05a4 7A68     		ldr	r2, [r7, #4]
 812 05a6 844B     		ldr	r3, .L44+44
 813 05a8 9A42     		cmp	r2, r3
 814 05aa 0CD0     		beq	.L34
 815              		.loc 1 284 0 discriminator 13
 816 05ac 7A68     		ldr	r2, [r7, #4]
 817 05ae 834B     		ldr	r3, .L44+48
 818 05b0 9A42     		cmp	r2, r3
 819 05b2 08D0     		beq	.L34
 820              		.loc 1 284 0 discriminator 14
 821 05b4 7A68     		ldr	r2, [r7, #4]
 822 05b6 824B     		ldr	r3, .L44+52
 823 05b8 9A42     		cmp	r2, r3
 824 05ba 04D0     		beq	.L34
 825              		.loc 1 284 0 discriminator 15
 826 05bc 8148     		ldr	r0, .L44+56
 827 05be 4FF48E71 		mov	r1, #284
 828 05c2 FFF7FEFF 		bl	assert_failed
 829              	.L34:
 285:../SPL/src/stm32f10x_tim.c ****   assert_param(IS_TIM_OC_MODE(TIM_OCInitStruct->TIM_OCMode));
 830              		.loc 1 285 0 is_stmt 1
 831 05c6 3B68     		ldr	r3, [r7, #0]
 832 05c8 1B88     		ldrh	r3, [r3, #0]
 833 05ca 002B     		cmp	r3, #0
 834 05cc 18D0     		beq	.L35
 835              		.loc 1 285 0 is_stmt 0 discriminator 1
 836 05ce 3B68     		ldr	r3, [r7, #0]
 837 05d0 1B88     		ldrh	r3, [r3, #0]
 838 05d2 102B     		cmp	r3, #16
 839 05d4 14D0     		beq	.L35
 840              		.loc 1 285 0 discriminator 2
 841 05d6 3B68     		ldr	r3, [r7, #0]
 842 05d8 1B88     		ldrh	r3, [r3, #0]
 843 05da 202B     		cmp	r3, #32
 844 05dc 10D0     		beq	.L35
 845              		.loc 1 285 0 discriminator 3
 846 05de 3B68     		ldr	r3, [r7, #0]
 847 05e0 1B88     		ldrh	r3, [r3, #0]
 848 05e2 302B     		cmp	r3, #48
 849 05e4 0CD0     		beq	.L35
 850              		.loc 1 285 0 discriminator 4
 851 05e6 3B68     		ldr	r3, [r7, #0]
 852 05e8 1B88     		ldrh	r3, [r3, #0]
 853 05ea 602B     		cmp	r3, #96
 854 05ec 08D0     		beq	.L35
 855              		.loc 1 285 0 discriminator 5
 856 05ee 3B68     		ldr	r3, [r7, #0]
 857 05f0 1B88     		ldrh	r3, [r3, #0]
 858 05f2 702B     		cmp	r3, #112
 859 05f4 04D0     		beq	.L35
 860              		.loc 1 285 0 discriminator 6
 861 05f6 7348     		ldr	r0, .L44+56
 862 05f8 40F21D11 		movw	r1, #285
 863 05fc FFF7FEFF 		bl	assert_failed
 864              	.L35:
 286:../SPL/src/stm32f10x_tim.c ****   assert_param(IS_TIM_OUTPUT_STATE(TIM_OCInitStruct->TIM_OutputState));
 865              		.loc 1 286 0 is_stmt 1
 866 0600 3B68     		ldr	r3, [r7, #0]
 867 0602 5B88     		ldrh	r3, [r3, #2]
 868 0604 002B     		cmp	r3, #0
 869 0606 08D0     		beq	.L36
 870              		.loc 1 286 0 is_stmt 0 discriminator 1
 871 0608 3B68     		ldr	r3, [r7, #0]
 872 060a 5B88     		ldrh	r3, [r3, #2]
 873 060c 012B     		cmp	r3, #1
 874 060e 04D0     		beq	.L36
 875              		.loc 1 286 0 discriminator 2
 876 0610 6C48     		ldr	r0, .L44+56
 877 0612 4FF48F71 		mov	r1, #286
 878 0616 FFF7FEFF 		bl	assert_failed
 879              	.L36:
 287:../SPL/src/stm32f10x_tim.c ****   assert_param(IS_TIM_OC_POLARITY(TIM_OCInitStruct->TIM_OCPolarity));   
 880              		.loc 1 287 0 is_stmt 1
 881 061a 3B68     		ldr	r3, [r7, #0]
 882 061c 1B89     		ldrh	r3, [r3, #8]
 883 061e 002B     		cmp	r3, #0
 884 0620 08D0     		beq	.L37
 885              		.loc 1 287 0 is_stmt 0 discriminator 1
 886 0622 3B68     		ldr	r3, [r7, #0]
 887 0624 1B89     		ldrh	r3, [r3, #8]
 888 0626 022B     		cmp	r3, #2
 889 0628 04D0     		beq	.L37
 890              		.loc 1 287 0 discriminator 2
 891 062a 6648     		ldr	r0, .L44+56
 892 062c 40F21F11 		movw	r1, #287
 893 0630 FFF7FEFF 		bl	assert_failed
 894              	.L37:
 288:../SPL/src/stm32f10x_tim.c ****  /* Disable the Channel 1: Reset the CC1E Bit */
 289:../SPL/src/stm32f10x_tim.c ****   TIMx->CCER &= (uint16_t)(~(uint16_t)TIM_CCER_CC1E);
 895              		.loc 1 289 0 is_stmt 1
 896 0634 7B68     		ldr	r3, [r7, #4]
 897 0636 1B8C     		ldrh	r3, [r3, #32]	@ movhi
 898 0638 9BB2     		uxth	r3, r3
 899 063a 23F00103 		bic	r3, r3, #1
 900 063e 9AB2     		uxth	r2, r3
 901 0640 7B68     		ldr	r3, [r7, #4]
 902 0642 1A84     		strh	r2, [r3, #32]	@ movhi
 290:../SPL/src/stm32f10x_tim.c ****   /* Get the TIMx CCER register value */
 291:../SPL/src/stm32f10x_tim.c ****   tmpccer = TIMx->CCER;
 903              		.loc 1 291 0
 904 0644 7B68     		ldr	r3, [r7, #4]
 905 0646 1B8C     		ldrh	r3, [r3, #32]	@ movhi
 906 0648 FB81     		strh	r3, [r7, #14]	@ movhi
 292:../SPL/src/stm32f10x_tim.c ****   /* Get the TIMx CR2 register value */
 293:../SPL/src/stm32f10x_tim.c ****   tmpcr2 =  TIMx->CR2;
 907              		.loc 1 293 0
 908 064a 7B68     		ldr	r3, [r7, #4]
 909 064c 9B88     		ldrh	r3, [r3, #4]	@ movhi
 910 064e BB81     		strh	r3, [r7, #12]	@ movhi
 294:../SPL/src/stm32f10x_tim.c ****   
 295:../SPL/src/stm32f10x_tim.c ****   /* Get the TIMx CCMR1 register value */
 296:../SPL/src/stm32f10x_tim.c ****   tmpccmrx = TIMx->CCMR1;
 911              		.loc 1 296 0
 912 0650 7B68     		ldr	r3, [r7, #4]
 913 0652 1B8B     		ldrh	r3, [r3, #24]	@ movhi
 914 0654 7B81     		strh	r3, [r7, #10]	@ movhi
 297:../SPL/src/stm32f10x_tim.c ****     
 298:../SPL/src/stm32f10x_tim.c ****   /* Reset the Output Compare Mode Bits */
 299:../SPL/src/stm32f10x_tim.c ****   tmpccmrx &= (uint16_t)(~((uint16_t)TIM_CCMR1_OC1M));
 915              		.loc 1 299 0
 916 0656 7B89     		ldrh	r3, [r7, #10]	@ movhi
 917 0658 23F07003 		bic	r3, r3, #112
 918 065c 7B81     		strh	r3, [r7, #10]	@ movhi
 300:../SPL/src/stm32f10x_tim.c ****   tmpccmrx &= (uint16_t)(~((uint16_t)TIM_CCMR1_CC1S));
 919              		.loc 1 300 0
 920 065e 7B89     		ldrh	r3, [r7, #10]	@ movhi
 921 0660 23F00303 		bic	r3, r3, #3
 922 0664 7B81     		strh	r3, [r7, #10]	@ movhi
 301:../SPL/src/stm32f10x_tim.c **** 
 302:../SPL/src/stm32f10x_tim.c ****   /* Select the Output Compare Mode */
 303:../SPL/src/stm32f10x_tim.c ****   tmpccmrx |= TIM_OCInitStruct->TIM_OCMode;
 923              		.loc 1 303 0
 924 0666 3B68     		ldr	r3, [r7, #0]
 925 0668 1A88     		ldrh	r2, [r3, #0]
 926 066a 7B89     		ldrh	r3, [r7, #10]	@ movhi
 927 066c 1343     		orrs	r3, r3, r2
 928 066e 7B81     		strh	r3, [r7, #10]	@ movhi
 304:../SPL/src/stm32f10x_tim.c ****   
 305:../SPL/src/stm32f10x_tim.c ****   /* Reset the Output Polarity level */
 306:../SPL/src/stm32f10x_tim.c ****   tmpccer &= (uint16_t)(~((uint16_t)TIM_CCER_CC1P));
 929              		.loc 1 306 0
 930 0670 FB89     		ldrh	r3, [r7, #14]	@ movhi
 931 0672 23F00203 		bic	r3, r3, #2
 932 0676 FB81     		strh	r3, [r7, #14]	@ movhi
 307:../SPL/src/stm32f10x_tim.c ****   /* Set the Output Compare Polarity */
 308:../SPL/src/stm32f10x_tim.c ****   tmpccer |= TIM_OCInitStruct->TIM_OCPolarity;
 933              		.loc 1 308 0
 934 0678 3B68     		ldr	r3, [r7, #0]
 935 067a 1A89     		ldrh	r2, [r3, #8]
 936 067c FB89     		ldrh	r3, [r7, #14]	@ movhi
 937 067e 1343     		orrs	r3, r3, r2
 938 0680 FB81     		strh	r3, [r7, #14]	@ movhi
 309:../SPL/src/stm32f10x_tim.c ****   
 310:../SPL/src/stm32f10x_tim.c ****   /* Set the Output State */
 311:../SPL/src/stm32f10x_tim.c ****   tmpccer |= TIM_OCInitStruct->TIM_OutputState;
 939              		.loc 1 311 0
 940 0682 3B68     		ldr	r3, [r7, #0]
 941 0684 5A88     		ldrh	r2, [r3, #2]
 942 0686 FB89     		ldrh	r3, [r7, #14]	@ movhi
 943 0688 1343     		orrs	r3, r3, r2
 944 068a FB81     		strh	r3, [r7, #14]	@ movhi
 312:../SPL/src/stm32f10x_tim.c ****     
 313:../SPL/src/stm32f10x_tim.c ****   if((TIMx == TIM1) || (TIMx == TIM8)|| (TIMx == TIM15)||
 945              		.loc 1 313 0
 946 068c 7A68     		ldr	r2, [r7, #4]
 947 068e 3F4B     		ldr	r3, .L44
 948 0690 9A42     		cmp	r2, r3
 949 0692 0FD0     		beq	.L38
 950              		.loc 1 313 0 is_stmt 0 discriminator 1
 951 0694 7A68     		ldr	r2, [r7, #4]
 952 0696 414B     		ldr	r3, .L44+16
 953 0698 9A42     		cmp	r2, r3
 954 069a 0BD0     		beq	.L38
 955 069c 7A68     		ldr	r2, [r7, #4]
 956 069e 464B     		ldr	r3, .L44+44
 957 06a0 9A42     		cmp	r2, r3
 958 06a2 07D0     		beq	.L38
 959 06a4 7A68     		ldr	r2, [r7, #4]
 960 06a6 454B     		ldr	r3, .L44+48
 961 06a8 9A42     		cmp	r2, r3
 962 06aa 03D0     		beq	.L38
 314:../SPL/src/stm32f10x_tim.c ****      (TIMx == TIM16)|| (TIMx == TIM17))
 963              		.loc 1 314 0 is_stmt 1
 964 06ac 7A68     		ldr	r2, [r7, #4]
 965 06ae 444B     		ldr	r3, .L44+52
 966 06b0 9A42     		cmp	r2, r3
 967 06b2 59D1     		bne	.L39
 968              	.L38:
 315:../SPL/src/stm32f10x_tim.c ****   {
 316:../SPL/src/stm32f10x_tim.c ****     assert_param(IS_TIM_OUTPUTN_STATE(TIM_OCInitStruct->TIM_OutputNState));
 969              		.loc 1 316 0
 970 06b4 3B68     		ldr	r3, [r7, #0]
 971 06b6 9B88     		ldrh	r3, [r3, #4]
 972 06b8 002B     		cmp	r3, #0
 973 06ba 08D0     		beq	.L40
 974              		.loc 1 316 0 is_stmt 0 discriminator 1
 975 06bc 3B68     		ldr	r3, [r7, #0]
 976 06be 9B88     		ldrh	r3, [r3, #4]
 977 06c0 042B     		cmp	r3, #4
 978 06c2 04D0     		beq	.L40
 979              		.loc 1 316 0 discriminator 2
 980 06c4 3F48     		ldr	r0, .L44+56
 981 06c6 4FF49E71 		mov	r1, #316
 982 06ca FFF7FEFF 		bl	assert_failed
 983              	.L40:
 317:../SPL/src/stm32f10x_tim.c ****     assert_param(IS_TIM_OCN_POLARITY(TIM_OCInitStruct->TIM_OCNPolarity));
 984              		.loc 1 317 0 is_stmt 1
 985 06ce 3B68     		ldr	r3, [r7, #0]
 986 06d0 5B89     		ldrh	r3, [r3, #10]
 987 06d2 002B     		cmp	r3, #0
 988 06d4 08D0     		beq	.L41
 989              		.loc 1 317 0 is_stmt 0 discriminator 1
 990 06d6 3B68     		ldr	r3, [r7, #0]
 991 06d8 5B89     		ldrh	r3, [r3, #10]
 992 06da 082B     		cmp	r3, #8
 993 06dc 04D0     		beq	.L41
 994              		.loc 1 317 0 discriminator 2
 995 06de 3948     		ldr	r0, .L44+56
 996 06e0 40F23D11 		movw	r1, #317
 997 06e4 FFF7FEFF 		bl	assert_failed
 998              	.L41:
 318:../SPL/src/stm32f10x_tim.c ****     assert_param(IS_TIM_OCNIDLE_STATE(TIM_OCInitStruct->TIM_OCNIdleState));
 999              		.loc 1 318 0 is_stmt 1
 1000 06e8 3B68     		ldr	r3, [r7, #0]
 1001 06ea DB89     		ldrh	r3, [r3, #14]
 1002 06ec B3F5007F 		cmp	r3, #512
 1003 06f0 08D0     		beq	.L42
 1004              		.loc 1 318 0 is_stmt 0 discriminator 1
 1005 06f2 3B68     		ldr	r3, [r7, #0]
 1006 06f4 DB89     		ldrh	r3, [r3, #14]
 1007 06f6 002B     		cmp	r3, #0
 1008 06f8 04D0     		beq	.L42
 1009              		.loc 1 318 0 discriminator 2
 1010 06fa 3248     		ldr	r0, .L44+56
 1011 06fc 4FF49F71 		mov	r1, #318
 1012 0700 FFF7FEFF 		bl	assert_failed
 1013              	.L42:
 319:../SPL/src/stm32f10x_tim.c ****     assert_param(IS_TIM_OCIDLE_STATE(TIM_OCInitStruct->TIM_OCIdleState));
 1014              		.loc 1 319 0 is_stmt 1
 1015 0704 3B68     		ldr	r3, [r7, #0]
 1016 0706 9B89     		ldrh	r3, [r3, #12]
 1017 0708 B3F5807F 		cmp	r3, #256
 1018 070c 08D0     		beq	.L43
 1019              		.loc 1 319 0 is_stmt 0 discriminator 1
 1020 070e 3B68     		ldr	r3, [r7, #0]
 1021 0710 9B89     		ldrh	r3, [r3, #12]
 1022 0712 002B     		cmp	r3, #0
 1023 0714 04D0     		beq	.L43
 1024              		.loc 1 319 0 discriminator 2
 1025 0716 2B48     		ldr	r0, .L44+56
 1026 0718 40F23F11 		movw	r1, #319
 1027 071c FFF7FEFF 		bl	assert_failed
 1028              	.L43:
 320:../SPL/src/stm32f10x_tim.c ****     
 321:../SPL/src/stm32f10x_tim.c ****     /* Reset the Output N Polarity level */
 322:../SPL/src/stm32f10x_tim.c ****     tmpccer &= (uint16_t)(~((uint16_t)TIM_CCER_CC1NP));
 1029              		.loc 1 322 0 is_stmt 1
 1030 0720 FB89     		ldrh	r3, [r7, #14]	@ movhi
 1031 0722 23F00803 		bic	r3, r3, #8
 1032 0726 FB81     		strh	r3, [r7, #14]	@ movhi
 323:../SPL/src/stm32f10x_tim.c ****     /* Set the Output N Polarity */
 324:../SPL/src/stm32f10x_tim.c ****     tmpccer |= TIM_OCInitStruct->TIM_OCNPolarity;
 1033              		.loc 1 324 0
 1034 0728 3B68     		ldr	r3, [r7, #0]
 1035 072a 5A89     		ldrh	r2, [r3, #10]
 1036 072c FB89     		ldrh	r3, [r7, #14]	@ movhi
 1037 072e 1343     		orrs	r3, r3, r2
 1038 0730 FB81     		strh	r3, [r7, #14]	@ movhi
 325:../SPL/src/stm32f10x_tim.c ****     
 326:../SPL/src/stm32f10x_tim.c ****     /* Reset the Output N State */
 327:../SPL/src/stm32f10x_tim.c ****     tmpccer &= (uint16_t)(~((uint16_t)TIM_CCER_CC1NE));    
 1039              		.loc 1 327 0
 1040 0732 FB89     		ldrh	r3, [r7, #14]	@ movhi
 1041 0734 23F00403 		bic	r3, r3, #4
 1042 0738 FB81     		strh	r3, [r7, #14]	@ movhi
 328:../SPL/src/stm32f10x_tim.c ****     /* Set the Output N State */
 329:../SPL/src/stm32f10x_tim.c ****     tmpccer |= TIM_OCInitStruct->TIM_OutputNState;
 1043              		.loc 1 329 0
 1044 073a 3B68     		ldr	r3, [r7, #0]
 1045 073c 9A88     		ldrh	r2, [r3, #4]
 1046 073e FB89     		ldrh	r3, [r7, #14]	@ movhi
 1047 0740 1343     		orrs	r3, r3, r2
 1048 0742 FB81     		strh	r3, [r7, #14]	@ movhi
 330:../SPL/src/stm32f10x_tim.c ****     
 331:../SPL/src/stm32f10x_tim.c ****     /* Reset the Output Compare and Output Compare N IDLE State */
 332:../SPL/src/stm32f10x_tim.c ****     tmpcr2 &= (uint16_t)(~((uint16_t)TIM_CR2_OIS1));
 1049              		.loc 1 332 0
 1050 0744 BB89     		ldrh	r3, [r7, #12]	@ movhi
 1051 0746 23F48073 		bic	r3, r3, #256
 1052 074a BB81     		strh	r3, [r7, #12]	@ movhi
 333:../SPL/src/stm32f10x_tim.c ****     tmpcr2 &= (uint16_t)(~((uint16_t)TIM_CR2_OIS1N));
 1053              		.loc 1 333 0
 1054 074c BB89     		ldrh	r3, [r7, #12]	@ movhi
 1055 074e 23F40073 		bic	r3, r3, #512
 1056 0752 BB81     		strh	r3, [r7, #12]	@ movhi
 334:../SPL/src/stm32f10x_tim.c ****     
 335:../SPL/src/stm32f10x_tim.c ****     /* Set the Output Idle state */
 336:../SPL/src/stm32f10x_tim.c ****     tmpcr2 |= TIM_OCInitStruct->TIM_OCIdleState;
 1057              		.loc 1 336 0
 1058 0754 3B68     		ldr	r3, [r7, #0]
 1059 0756 9A89     		ldrh	r2, [r3, #12]
 1060 0758 BB89     		ldrh	r3, [r7, #12]	@ movhi
 1061 075a 1343     		orrs	r3, r3, r2
 1062 075c BB81     		strh	r3, [r7, #12]	@ movhi
 337:../SPL/src/stm32f10x_tim.c ****     /* Set the Output N Idle state */
 338:../SPL/src/stm32f10x_tim.c ****     tmpcr2 |= TIM_OCInitStruct->TIM_OCNIdleState;
 1063              		.loc 1 338 0
 1064 075e 3B68     		ldr	r3, [r7, #0]
 1065 0760 DA89     		ldrh	r2, [r3, #14]
 1066 0762 BB89     		ldrh	r3, [r7, #12]	@ movhi
 1067 0764 1343     		orrs	r3, r3, r2
 1068 0766 BB81     		strh	r3, [r7, #12]	@ movhi
 1069              	.L39:
 339:../SPL/src/stm32f10x_tim.c ****   }
 340:../SPL/src/stm32f10x_tim.c ****   /* Write to TIMx CR2 */
 341:../SPL/src/stm32f10x_tim.c ****   TIMx->CR2 = tmpcr2;
 1070              		.loc 1 341 0
 1071 0768 7B68     		ldr	r3, [r7, #4]
 1072 076a BA89     		ldrh	r2, [r7, #12]	@ movhi
 1073 076c 9A80     		strh	r2, [r3, #4]	@ movhi
 342:../SPL/src/stm32f10x_tim.c ****   
 343:../SPL/src/stm32f10x_tim.c ****   /* Write to TIMx CCMR1 */
 344:../SPL/src/stm32f10x_tim.c ****   TIMx->CCMR1 = tmpccmrx;
 1074              		.loc 1 344 0
 1075 076e 7B68     		ldr	r3, [r7, #4]
 1076 0770 7A89     		ldrh	r2, [r7, #10]	@ movhi
 1077 0772 1A83     		strh	r2, [r3, #24]	@ movhi
 345:../SPL/src/stm32f10x_tim.c **** 
 346:../SPL/src/stm32f10x_tim.c ****   /* Set the Capture Compare Register value */
 347:../SPL/src/stm32f10x_tim.c ****   TIMx->CCR1 = TIM_OCInitStruct->TIM_Pulse; 
 1078              		.loc 1 347 0
 1079 0774 3B68     		ldr	r3, [r7, #0]
 1080 0776 DA88     		ldrh	r2, [r3, #6]
 1081 0778 7B68     		ldr	r3, [r7, #4]
 1082 077a 9A86     		strh	r2, [r3, #52]	@ movhi
 348:../SPL/src/stm32f10x_tim.c ****  
 349:../SPL/src/stm32f10x_tim.c ****   /* Write to TIMx CCER */
 350:../SPL/src/stm32f10x_tim.c ****   TIMx->CCER = tmpccer;
 1083              		.loc 1 350 0
 1084 077c 7B68     		ldr	r3, [r7, #4]
 1085 077e FA89     		ldrh	r2, [r7, #14]	@ movhi
 1086 0780 1A84     		strh	r2, [r3, #32]	@ movhi
 351:../SPL/src/stm32f10x_tim.c **** }
 1087              		.loc 1 351 0
 1088 0782 07F11007 		add	r7, r7, #16
 1089 0786 BD46     		mov	sp, r7
 1090 0788 80BD     		pop	{r7, pc}
 1091              	.L45:
 1092 078a 00BF     		.align	2
 1093              	.L44:
 1094 078c 002C0140 		.word	1073818624
 1095 0790 00040040 		.word	1073742848
 1096 0794 00080040 		.word	1073743872
 1097 0798 000C0040 		.word	1073744896
 1098 079c 00340140 		.word	1073820672
 1099 07a0 004C0140 		.word	1073826816
 1100 07a4 00500140 		.word	1073827840
 1101 07a8 00540140 		.word	1073828864
 1102 07ac 00180040 		.word	1073747968
 1103 07b0 001C0040 		.word	1073748992
 1104 07b4 00200040 		.word	1073750016
 1105 07b8 00400140 		.word	1073823744
 1106 07bc 00440140 		.word	1073824768
 1107 07c0 00480140 		.word	1073825792
 1108 07c4 00000000 		.word	.LC0
 1109              		.cfi_endproc
 1110              	.LFE31:
 1112              		.align	2
 1113              		.global	TIM_OC2Init
 1114              		.thumb
 1115              		.thumb_func
 1117              	TIM_OC2Init:
 1118              	.LFB32:
 352:../SPL/src/stm32f10x_tim.c **** 
 353:../SPL/src/stm32f10x_tim.c **** /**
 354:../SPL/src/stm32f10x_tim.c ****   * @brief  Initializes the TIMx Channel2 according to the specified
 355:../SPL/src/stm32f10x_tim.c ****   *         parameters in the TIM_OCInitStruct.
 356:../SPL/src/stm32f10x_tim.c ****   * @param  TIMx: where x can be  1, 2, 3, 4, 5, 8, 9, 12 or 15 to select 
 357:../SPL/src/stm32f10x_tim.c ****   *         the TIM peripheral.
 358:../SPL/src/stm32f10x_tim.c ****   * @param  TIM_OCInitStruct: pointer to a TIM_OCInitTypeDef structure
 359:../SPL/src/stm32f10x_tim.c ****   *         that contains the configuration information for the specified TIM peripheral.
 360:../SPL/src/stm32f10x_tim.c ****   * @retval None
 361:../SPL/src/stm32f10x_tim.c ****   */
 362:../SPL/src/stm32f10x_tim.c **** void TIM_OC2Init(TIM_TypeDef* TIMx, TIM_OCInitTypeDef* TIM_OCInitStruct)
 363:../SPL/src/stm32f10x_tim.c **** {
 1119              		.loc 1 363 0
 1120              		.cfi_startproc
 1121              		@ args = 0, pretend = 0, frame = 16
 1122              		@ frame_needed = 1, uses_anonymous_args = 0
 1123 07c8 80B5     		push	{r7, lr}
 1124              	.LCFI9:
 1125              		.cfi_def_cfa_offset 8
 1126              		.cfi_offset 7, -8
 1127              		.cfi_offset 14, -4
 1128 07ca 84B0     		sub	sp, sp, #16
 1129              	.LCFI10:
 1130              		.cfi_def_cfa_offset 24
 1131 07cc 00AF     		add	r7, sp, #0
 1132              	.LCFI11:
 1133              		.cfi_def_cfa_register 7
 1134 07ce 7860     		str	r0, [r7, #4]
 1135 07d0 3960     		str	r1, [r7, #0]
 364:../SPL/src/stm32f10x_tim.c ****   uint16_t tmpccmrx = 0, tmpccer = 0, tmpcr2 = 0;
 1136              		.loc 1 364 0
 1137 07d2 4FF00003 		mov	r3, #0
 1138 07d6 7B81     		strh	r3, [r7, #10]	@ movhi
 1139 07d8 4FF00003 		mov	r3, #0
 1140 07dc FB81     		strh	r3, [r7, #14]	@ movhi
 1141 07de 4FF00003 		mov	r3, #0
 1142 07e2 BB81     		strh	r3, [r7, #12]	@ movhi
 365:../SPL/src/stm32f10x_tim.c ****    
 366:../SPL/src/stm32f10x_tim.c ****   /* Check the parameters */
 367:../SPL/src/stm32f10x_tim.c ****   assert_param(IS_TIM_LIST6_PERIPH(TIMx)); 
 1143              		.loc 1 367 0
 1144 07e4 7A68     		ldr	r2, [r7, #4]
 1145 07e6 894B     		ldr	r3, .L57
 1146 07e8 9A42     		cmp	r2, r3
 1147 07ea 24D0     		beq	.L47
 1148              		.loc 1 367 0 is_stmt 0 discriminator 1
 1149 07ec 7B68     		ldr	r3, [r7, #4]
 1150 07ee B3F1804F 		cmp	r3, #1073741824
 1151 07f2 20D0     		beq	.L47
 1152              		.loc 1 367 0 discriminator 2
 1153 07f4 7A68     		ldr	r2, [r7, #4]
 1154 07f6 864B     		ldr	r3, .L57+4
 1155 07f8 9A42     		cmp	r2, r3
 1156 07fa 1CD0     		beq	.L47
 1157              		.loc 1 367 0 discriminator 3
 1158 07fc 7A68     		ldr	r2, [r7, #4]
 1159 07fe 854B     		ldr	r3, .L57+8
 1160 0800 9A42     		cmp	r2, r3
 1161 0802 18D0     		beq	.L47
 1162              		.loc 1 367 0 discriminator 4
 1163 0804 7A68     		ldr	r2, [r7, #4]
 1164 0806 844B     		ldr	r3, .L57+12
 1165 0808 9A42     		cmp	r2, r3
 1166 080a 14D0     		beq	.L47
 1167              		.loc 1 367 0 discriminator 5
 1168 080c 7A68     		ldr	r2, [r7, #4]
 1169 080e 834B     		ldr	r3, .L57+16
 1170 0810 9A42     		cmp	r2, r3
 1171 0812 10D0     		beq	.L47
 1172              		.loc 1 367 0 discriminator 6
 1173 0814 7A68     		ldr	r2, [r7, #4]
 1174 0816 824B     		ldr	r3, .L57+20
 1175 0818 9A42     		cmp	r2, r3
 1176 081a 0CD0     		beq	.L47
 1177              		.loc 1 367 0 discriminator 7
 1178 081c 7A68     		ldr	r2, [r7, #4]
 1179 081e 814B     		ldr	r3, .L57+24
 1180 0820 9A42     		cmp	r2, r3
 1181 0822 08D0     		beq	.L47
 1182              		.loc 1 367 0 discriminator 8
 1183 0824 7A68     		ldr	r2, [r7, #4]
 1184 0826 804B     		ldr	r3, .L57+28
 1185 0828 9A42     		cmp	r2, r3
 1186 082a 04D0     		beq	.L47
 1187              		.loc 1 367 0 discriminator 9
 1188 082c 7F48     		ldr	r0, .L57+32
 1189 082e 40F26F11 		movw	r1, #367
 1190 0832 FFF7FEFF 		bl	assert_failed
 1191              	.L47:
 368:../SPL/src/stm32f10x_tim.c ****   assert_param(IS_TIM_OC_MODE(TIM_OCInitStruct->TIM_OCMode));
 1192              		.loc 1 368 0 is_stmt 1
 1193 0836 3B68     		ldr	r3, [r7, #0]
 1194 0838 1B88     		ldrh	r3, [r3, #0]
 1195 083a 002B     		cmp	r3, #0
 1196 083c 18D0     		beq	.L48
 1197              		.loc 1 368 0 is_stmt 0 discriminator 1
 1198 083e 3B68     		ldr	r3, [r7, #0]
 1199 0840 1B88     		ldrh	r3, [r3, #0]
 1200 0842 102B     		cmp	r3, #16
 1201 0844 14D0     		beq	.L48
 1202              		.loc 1 368 0 discriminator 2
 1203 0846 3B68     		ldr	r3, [r7, #0]
 1204 0848 1B88     		ldrh	r3, [r3, #0]
 1205 084a 202B     		cmp	r3, #32
 1206 084c 10D0     		beq	.L48
 1207              		.loc 1 368 0 discriminator 3
 1208 084e 3B68     		ldr	r3, [r7, #0]
 1209 0850 1B88     		ldrh	r3, [r3, #0]
 1210 0852 302B     		cmp	r3, #48
 1211 0854 0CD0     		beq	.L48
 1212              		.loc 1 368 0 discriminator 4
 1213 0856 3B68     		ldr	r3, [r7, #0]
 1214 0858 1B88     		ldrh	r3, [r3, #0]
 1215 085a 602B     		cmp	r3, #96
 1216 085c 08D0     		beq	.L48
 1217              		.loc 1 368 0 discriminator 5
 1218 085e 3B68     		ldr	r3, [r7, #0]
 1219 0860 1B88     		ldrh	r3, [r3, #0]
 1220 0862 702B     		cmp	r3, #112
 1221 0864 04D0     		beq	.L48
 1222              		.loc 1 368 0 discriminator 6
 1223 0866 7148     		ldr	r0, .L57+32
 1224 0868 4FF4B871 		mov	r1, #368
 1225 086c FFF7FEFF 		bl	assert_failed
 1226              	.L48:
 369:../SPL/src/stm32f10x_tim.c ****   assert_param(IS_TIM_OUTPUT_STATE(TIM_OCInitStruct->TIM_OutputState));
 1227              		.loc 1 369 0 is_stmt 1
 1228 0870 3B68     		ldr	r3, [r7, #0]
 1229 0872 5B88     		ldrh	r3, [r3, #2]
 1230 0874 002B     		cmp	r3, #0
 1231 0876 08D0     		beq	.L49
 1232              		.loc 1 369 0 is_stmt 0 discriminator 1
 1233 0878 3B68     		ldr	r3, [r7, #0]
 1234 087a 5B88     		ldrh	r3, [r3, #2]
 1235 087c 012B     		cmp	r3, #1
 1236 087e 04D0     		beq	.L49
 1237              		.loc 1 369 0 discriminator 2
 1238 0880 6A48     		ldr	r0, .L57+32
 1239 0882 40F27111 		movw	r1, #369
 1240 0886 FFF7FEFF 		bl	assert_failed
 1241              	.L49:
 370:../SPL/src/stm32f10x_tim.c ****   assert_param(IS_TIM_OC_POLARITY(TIM_OCInitStruct->TIM_OCPolarity));   
 1242              		.loc 1 370 0 is_stmt 1
 1243 088a 3B68     		ldr	r3, [r7, #0]
 1244 088c 1B89     		ldrh	r3, [r3, #8]
 1245 088e 002B     		cmp	r3, #0
 1246 0890 08D0     		beq	.L50
 1247              		.loc 1 370 0 is_stmt 0 discriminator 1
 1248 0892 3B68     		ldr	r3, [r7, #0]
 1249 0894 1B89     		ldrh	r3, [r3, #8]
 1250 0896 022B     		cmp	r3, #2
 1251 0898 04D0     		beq	.L50
 1252              		.loc 1 370 0 discriminator 2
 1253 089a 6448     		ldr	r0, .L57+32
 1254 089c 4FF4B971 		mov	r1, #370
 1255 08a0 FFF7FEFF 		bl	assert_failed
 1256              	.L50:
 371:../SPL/src/stm32f10x_tim.c ****    /* Disable the Channel 2: Reset the CC2E Bit */
 372:../SPL/src/stm32f10x_tim.c ****   TIMx->CCER &= (uint16_t)(~((uint16_t)TIM_CCER_CC2E));
 1257              		.loc 1 372 0 is_stmt 1
 1258 08a4 7B68     		ldr	r3, [r7, #4]
 1259 08a6 1B8C     		ldrh	r3, [r3, #32]	@ movhi
 1260 08a8 9BB2     		uxth	r3, r3
 1261 08aa 23F01003 		bic	r3, r3, #16
 1262 08ae 9AB2     		uxth	r2, r3
 1263 08b0 7B68     		ldr	r3, [r7, #4]
 1264 08b2 1A84     		strh	r2, [r3, #32]	@ movhi
 373:../SPL/src/stm32f10x_tim.c ****   
 374:../SPL/src/stm32f10x_tim.c ****   /* Get the TIMx CCER register value */  
 375:../SPL/src/stm32f10x_tim.c ****   tmpccer = TIMx->CCER;
 1265              		.loc 1 375 0
 1266 08b4 7B68     		ldr	r3, [r7, #4]
 1267 08b6 1B8C     		ldrh	r3, [r3, #32]	@ movhi
 1268 08b8 FB81     		strh	r3, [r7, #14]	@ movhi
 376:../SPL/src/stm32f10x_tim.c ****   /* Get the TIMx CR2 register value */
 377:../SPL/src/stm32f10x_tim.c ****   tmpcr2 =  TIMx->CR2;
 1269              		.loc 1 377 0
 1270 08ba 7B68     		ldr	r3, [r7, #4]
 1271 08bc 9B88     		ldrh	r3, [r3, #4]	@ movhi
 1272 08be BB81     		strh	r3, [r7, #12]	@ movhi
 378:../SPL/src/stm32f10x_tim.c ****   
 379:../SPL/src/stm32f10x_tim.c ****   /* Get the TIMx CCMR1 register value */
 380:../SPL/src/stm32f10x_tim.c ****   tmpccmrx = TIMx->CCMR1;
 1273              		.loc 1 380 0
 1274 08c0 7B68     		ldr	r3, [r7, #4]
 1275 08c2 1B8B     		ldrh	r3, [r3, #24]	@ movhi
 1276 08c4 7B81     		strh	r3, [r7, #10]	@ movhi
 381:../SPL/src/stm32f10x_tim.c ****     
 382:../SPL/src/stm32f10x_tim.c ****   /* Reset the Output Compare mode and Capture/Compare selection Bits */
 383:../SPL/src/stm32f10x_tim.c ****   tmpccmrx &= (uint16_t)(~((uint16_t)TIM_CCMR1_OC2M));
 1277              		.loc 1 383 0
 1278 08c6 7B89     		ldrh	r3, [r7, #10]	@ movhi
 1279 08c8 23F4E043 		bic	r3, r3, #28672
 1280 08cc 7B81     		strh	r3, [r7, #10]	@ movhi
 384:../SPL/src/stm32f10x_tim.c ****   tmpccmrx &= (uint16_t)(~((uint16_t)TIM_CCMR1_CC2S));
 1281              		.loc 1 384 0
 1282 08ce 7B89     		ldrh	r3, [r7, #10]	@ movhi
 1283 08d0 23F44073 		bic	r3, r3, #768
 1284 08d4 7B81     		strh	r3, [r7, #10]	@ movhi
 385:../SPL/src/stm32f10x_tim.c ****   
 386:../SPL/src/stm32f10x_tim.c ****   /* Select the Output Compare Mode */
 387:../SPL/src/stm32f10x_tim.c ****   tmpccmrx |= (uint16_t)(TIM_OCInitStruct->TIM_OCMode << 8);
 1285              		.loc 1 387 0
 1286 08d6 3B68     		ldr	r3, [r7, #0]
 1287 08d8 1B88     		ldrh	r3, [r3, #0]
 1288 08da 4FEA0323 		lsl	r3, r3, #8
 1289 08de 9AB2     		uxth	r2, r3
 1290 08e0 7B89     		ldrh	r3, [r7, #10]	@ movhi
 1291 08e2 1343     		orrs	r3, r3, r2
 1292 08e4 7B81     		strh	r3, [r7, #10]	@ movhi
 388:../SPL/src/stm32f10x_tim.c ****   
 389:../SPL/src/stm32f10x_tim.c ****   /* Reset the Output Polarity level */
 390:../SPL/src/stm32f10x_tim.c ****   tmpccer &= (uint16_t)(~((uint16_t)TIM_CCER_CC2P));
 1293              		.loc 1 390 0
 1294 08e6 FB89     		ldrh	r3, [r7, #14]	@ movhi
 1295 08e8 23F02003 		bic	r3, r3, #32
 1296 08ec FB81     		strh	r3, [r7, #14]	@ movhi
 391:../SPL/src/stm32f10x_tim.c ****   /* Set the Output Compare Polarity */
 392:../SPL/src/stm32f10x_tim.c ****   tmpccer |= (uint16_t)(TIM_OCInitStruct->TIM_OCPolarity << 4);
 1297              		.loc 1 392 0
 1298 08ee 3B68     		ldr	r3, [r7, #0]
 1299 08f0 1B89     		ldrh	r3, [r3, #8]
 1300 08f2 4FEA0313 		lsl	r3, r3, #4
 1301 08f6 9AB2     		uxth	r2, r3
 1302 08f8 FB89     		ldrh	r3, [r7, #14]	@ movhi
 1303 08fa 1343     		orrs	r3, r3, r2
 1304 08fc FB81     		strh	r3, [r7, #14]	@ movhi
 393:../SPL/src/stm32f10x_tim.c ****   
 394:../SPL/src/stm32f10x_tim.c ****   /* Set the Output State */
 395:../SPL/src/stm32f10x_tim.c ****   tmpccer |= (uint16_t)(TIM_OCInitStruct->TIM_OutputState << 4);
 1305              		.loc 1 395 0
 1306 08fe 3B68     		ldr	r3, [r7, #0]
 1307 0900 5B88     		ldrh	r3, [r3, #2]
 1308 0902 4FEA0313 		lsl	r3, r3, #4
 1309 0906 9AB2     		uxth	r2, r3
 1310 0908 FB89     		ldrh	r3, [r7, #14]	@ movhi
 1311 090a 1343     		orrs	r3, r3, r2
 1312 090c FB81     		strh	r3, [r7, #14]	@ movhi
 396:../SPL/src/stm32f10x_tim.c ****     
 397:../SPL/src/stm32f10x_tim.c ****   if((TIMx == TIM1) || (TIMx == TIM8))
 1313              		.loc 1 397 0
 1314 090e 7A68     		ldr	r2, [r7, #4]
 1315 0910 3E4B     		ldr	r3, .L57
 1316 0912 9A42     		cmp	r2, r3
 1317 0914 03D0     		beq	.L51
 1318              		.loc 1 397 0 is_stmt 0 discriminator 1
 1319 0916 7A68     		ldr	r2, [r7, #4]
 1320 0918 404B     		ldr	r3, .L57+16
 1321 091a 9A42     		cmp	r2, r3
 1322 091c 65D1     		bne	.L52
 1323              	.L51:
 398:../SPL/src/stm32f10x_tim.c ****   {
 399:../SPL/src/stm32f10x_tim.c ****     assert_param(IS_TIM_OUTPUTN_STATE(TIM_OCInitStruct->TIM_OutputNState));
 1324              		.loc 1 399 0 is_stmt 1
 1325 091e 3B68     		ldr	r3, [r7, #0]
 1326 0920 9B88     		ldrh	r3, [r3, #4]
 1327 0922 002B     		cmp	r3, #0
 1328 0924 08D0     		beq	.L53
 1329              		.loc 1 399 0 is_stmt 0 discriminator 1
 1330 0926 3B68     		ldr	r3, [r7, #0]
 1331 0928 9B88     		ldrh	r3, [r3, #4]
 1332 092a 042B     		cmp	r3, #4
 1333 092c 04D0     		beq	.L53
 1334              		.loc 1 399 0 discriminator 2
 1335 092e 3F48     		ldr	r0, .L57+32
 1336 0930 40F28F11 		movw	r1, #399
 1337 0934 FFF7FEFF 		bl	assert_failed
 1338              	.L53:
 400:../SPL/src/stm32f10x_tim.c ****     assert_param(IS_TIM_OCN_POLARITY(TIM_OCInitStruct->TIM_OCNPolarity));
 1339              		.loc 1 400 0 is_stmt 1
 1340 0938 3B68     		ldr	r3, [r7, #0]
 1341 093a 5B89     		ldrh	r3, [r3, #10]
 1342 093c 002B     		cmp	r3, #0
 1343 093e 08D0     		beq	.L54
 1344              		.loc 1 400 0 is_stmt 0 discriminator 1
 1345 0940 3B68     		ldr	r3, [r7, #0]
 1346 0942 5B89     		ldrh	r3, [r3, #10]
 1347 0944 082B     		cmp	r3, #8
 1348 0946 04D0     		beq	.L54
 1349              		.loc 1 400 0 discriminator 2
 1350 0948 3848     		ldr	r0, .L57+32
 1351 094a 4FF4C871 		mov	r1, #400
 1352 094e FFF7FEFF 		bl	assert_failed
 1353              	.L54:
 401:../SPL/src/stm32f10x_tim.c ****     assert_param(IS_TIM_OCNIDLE_STATE(TIM_OCInitStruct->TIM_OCNIdleState));
 1354              		.loc 1 401 0 is_stmt 1
 1355 0952 3B68     		ldr	r3, [r7, #0]
 1356 0954 DB89     		ldrh	r3, [r3, #14]
 1357 0956 B3F5007F 		cmp	r3, #512
 1358 095a 08D0     		beq	.L55
 1359              		.loc 1 401 0 is_stmt 0 discriminator 1
 1360 095c 3B68     		ldr	r3, [r7, #0]
 1361 095e DB89     		ldrh	r3, [r3, #14]
 1362 0960 002B     		cmp	r3, #0
 1363 0962 04D0     		beq	.L55
 1364              		.loc 1 401 0 discriminator 2
 1365 0964 3148     		ldr	r0, .L57+32
 1366 0966 40F29111 		movw	r1, #401
 1367 096a FFF7FEFF 		bl	assert_failed
 1368              	.L55:
 402:../SPL/src/stm32f10x_tim.c ****     assert_param(IS_TIM_OCIDLE_STATE(TIM_OCInitStruct->TIM_OCIdleState));
 1369              		.loc 1 402 0 is_stmt 1
 1370 096e 3B68     		ldr	r3, [r7, #0]
 1371 0970 9B89     		ldrh	r3, [r3, #12]
 1372 0972 B3F5807F 		cmp	r3, #256
 1373 0976 08D0     		beq	.L56
 1374              		.loc 1 402 0 is_stmt 0 discriminator 1
 1375 0978 3B68     		ldr	r3, [r7, #0]
 1376 097a 9B89     		ldrh	r3, [r3, #12]
 1377 097c 002B     		cmp	r3, #0
 1378 097e 04D0     		beq	.L56
 1379              		.loc 1 402 0 discriminator 2
 1380 0980 2A48     		ldr	r0, .L57+32
 1381 0982 4FF4C971 		mov	r1, #402
 1382 0986 FFF7FEFF 		bl	assert_failed
 1383              	.L56:
 403:../SPL/src/stm32f10x_tim.c ****     
 404:../SPL/src/stm32f10x_tim.c ****     /* Reset the Output N Polarity level */
 405:../SPL/src/stm32f10x_tim.c ****     tmpccer &= (uint16_t)(~((uint16_t)TIM_CCER_CC2NP));
 1384              		.loc 1 405 0 is_stmt 1
 1385 098a FB89     		ldrh	r3, [r7, #14]	@ movhi
 1386 098c 23F08003 		bic	r3, r3, #128
 1387 0990 FB81     		strh	r3, [r7, #14]	@ movhi
 406:../SPL/src/stm32f10x_tim.c ****     /* Set the Output N Polarity */
 407:../SPL/src/stm32f10x_tim.c ****     tmpccer |= (uint16_t)(TIM_OCInitStruct->TIM_OCNPolarity << 4);
 1388              		.loc 1 407 0
 1389 0992 3B68     		ldr	r3, [r7, #0]
 1390 0994 5B89     		ldrh	r3, [r3, #10]
 1391 0996 4FEA0313 		lsl	r3, r3, #4
 1392 099a 9AB2     		uxth	r2, r3
 1393 099c FB89     		ldrh	r3, [r7, #14]	@ movhi
 1394 099e 1343     		orrs	r3, r3, r2
 1395 09a0 FB81     		strh	r3, [r7, #14]	@ movhi
 408:../SPL/src/stm32f10x_tim.c ****     
 409:../SPL/src/stm32f10x_tim.c ****     /* Reset the Output N State */
 410:../SPL/src/stm32f10x_tim.c ****     tmpccer &= (uint16_t)(~((uint16_t)TIM_CCER_CC2NE));    
 1396              		.loc 1 410 0
 1397 09a2 FB89     		ldrh	r3, [r7, #14]	@ movhi
 1398 09a4 23F04003 		bic	r3, r3, #64
 1399 09a8 FB81     		strh	r3, [r7, #14]	@ movhi
 411:../SPL/src/stm32f10x_tim.c ****     /* Set the Output N State */
 412:../SPL/src/stm32f10x_tim.c ****     tmpccer |= (uint16_t)(TIM_OCInitStruct->TIM_OutputNState << 4);
 1400              		.loc 1 412 0
 1401 09aa 3B68     		ldr	r3, [r7, #0]
 1402 09ac 9B88     		ldrh	r3, [r3, #4]
 1403 09ae 4FEA0313 		lsl	r3, r3, #4
 1404 09b2 9AB2     		uxth	r2, r3
 1405 09b4 FB89     		ldrh	r3, [r7, #14]	@ movhi
 1406 09b6 1343     		orrs	r3, r3, r2
 1407 09b8 FB81     		strh	r3, [r7, #14]	@ movhi
 413:../SPL/src/stm32f10x_tim.c ****     
 414:../SPL/src/stm32f10x_tim.c ****     /* Reset the Output Compare and Output Compare N IDLE State */
 415:../SPL/src/stm32f10x_tim.c ****     tmpcr2 &= (uint16_t)(~((uint16_t)TIM_CR2_OIS2));
 1408              		.loc 1 415 0
 1409 09ba BB89     		ldrh	r3, [r7, #12]	@ movhi
 1410 09bc 23F48063 		bic	r3, r3, #1024
 1411 09c0 BB81     		strh	r3, [r7, #12]	@ movhi
 416:../SPL/src/stm32f10x_tim.c ****     tmpcr2 &= (uint16_t)(~((uint16_t)TIM_CR2_OIS2N));
 1412              		.loc 1 416 0
 1413 09c2 BB89     		ldrh	r3, [r7, #12]	@ movhi
 1414 09c4 23F40063 		bic	r3, r3, #2048
 1415 09c8 BB81     		strh	r3, [r7, #12]	@ movhi
 417:../SPL/src/stm32f10x_tim.c ****     
 418:../SPL/src/stm32f10x_tim.c ****     /* Set the Output Idle state */
 419:../SPL/src/stm32f10x_tim.c ****     tmpcr2 |= (uint16_t)(TIM_OCInitStruct->TIM_OCIdleState << 2);
 1416              		.loc 1 419 0
 1417 09ca 3B68     		ldr	r3, [r7, #0]
 1418 09cc 9B89     		ldrh	r3, [r3, #12]
 1419 09ce 4FEA8303 		lsl	r3, r3, #2
 1420 09d2 9AB2     		uxth	r2, r3
 1421 09d4 BB89     		ldrh	r3, [r7, #12]	@ movhi
 1422 09d6 1343     		orrs	r3, r3, r2
 1423 09d8 BB81     		strh	r3, [r7, #12]	@ movhi
 420:../SPL/src/stm32f10x_tim.c ****     /* Set the Output N Idle state */
 421:../SPL/src/stm32f10x_tim.c ****     tmpcr2 |= (uint16_t)(TIM_OCInitStruct->TIM_OCNIdleState << 2);
 1424              		.loc 1 421 0
 1425 09da 3B68     		ldr	r3, [r7, #0]
 1426 09dc DB89     		ldrh	r3, [r3, #14]
 1427 09de 4FEA8303 		lsl	r3, r3, #2
 1428 09e2 9AB2     		uxth	r2, r3
 1429 09e4 BB89     		ldrh	r3, [r7, #12]	@ movhi
 1430 09e6 1343     		orrs	r3, r3, r2
 1431 09e8 BB81     		strh	r3, [r7, #12]	@ movhi
 1432              	.L52:
 422:../SPL/src/stm32f10x_tim.c ****   }
 423:../SPL/src/stm32f10x_tim.c ****   /* Write to TIMx CR2 */
 424:../SPL/src/stm32f10x_tim.c ****   TIMx->CR2 = tmpcr2;
 1433              		.loc 1 424 0
 1434 09ea 7B68     		ldr	r3, [r7, #4]
 1435 09ec BA89     		ldrh	r2, [r7, #12]	@ movhi
 1436 09ee 9A80     		strh	r2, [r3, #4]	@ movhi
 425:../SPL/src/stm32f10x_tim.c ****   
 426:../SPL/src/stm32f10x_tim.c ****   /* Write to TIMx CCMR1 */
 427:../SPL/src/stm32f10x_tim.c ****   TIMx->CCMR1 = tmpccmrx;
 1437              		.loc 1 427 0
 1438 09f0 7B68     		ldr	r3, [r7, #4]
 1439 09f2 7A89     		ldrh	r2, [r7, #10]	@ movhi
 1440 09f4 1A83     		strh	r2, [r3, #24]	@ movhi
 428:../SPL/src/stm32f10x_tim.c **** 
 429:../SPL/src/stm32f10x_tim.c ****   /* Set the Capture Compare Register value */
 430:../SPL/src/stm32f10x_tim.c ****   TIMx->CCR2 = TIM_OCInitStruct->TIM_Pulse;
 1441              		.loc 1 430 0
 1442 09f6 3B68     		ldr	r3, [r7, #0]
 1443 09f8 DA88     		ldrh	r2, [r3, #6]
 1444 09fa 7B68     		ldr	r3, [r7, #4]
 1445 09fc 1A87     		strh	r2, [r3, #56]	@ movhi
 431:../SPL/src/stm32f10x_tim.c ****   
 432:../SPL/src/stm32f10x_tim.c ****   /* Write to TIMx CCER */
 433:../SPL/src/stm32f10x_tim.c ****   TIMx->CCER = tmpccer;
 1446              		.loc 1 433 0
 1447 09fe 7B68     		ldr	r3, [r7, #4]
 1448 0a00 FA89     		ldrh	r2, [r7, #14]	@ movhi
 1449 0a02 1A84     		strh	r2, [r3, #32]	@ movhi
 434:../SPL/src/stm32f10x_tim.c **** }
 1450              		.loc 1 434 0
 1451 0a04 07F11007 		add	r7, r7, #16
 1452 0a08 BD46     		mov	sp, r7
 1453 0a0a 80BD     		pop	{r7, pc}
 1454              	.L58:
 1455              		.align	2
 1456              	.L57:
 1457 0a0c 002C0140 		.word	1073818624
 1458 0a10 00040040 		.word	1073742848
 1459 0a14 00080040 		.word	1073743872
 1460 0a18 000C0040 		.word	1073744896
 1461 0a1c 00340140 		.word	1073820672
 1462 0a20 004C0140 		.word	1073826816
 1463 0a24 00180040 		.word	1073747968
 1464 0a28 00400140 		.word	1073823744
 1465 0a2c 00000000 		.word	.LC0
 1466              		.cfi_endproc
 1467              	.LFE32:
 1469              		.align	2
 1470              		.global	TIM_OC3Init
 1471              		.thumb
 1472              		.thumb_func
 1474              	TIM_OC3Init:
 1475              	.LFB33:
 435:../SPL/src/stm32f10x_tim.c **** 
 436:../SPL/src/stm32f10x_tim.c **** /**
 437:../SPL/src/stm32f10x_tim.c ****   * @brief  Initializes the TIMx Channel3 according to the specified
 438:../SPL/src/stm32f10x_tim.c ****   *         parameters in the TIM_OCInitStruct.
 439:../SPL/src/stm32f10x_tim.c ****   * @param  TIMx: where x can be  1, 2, 3, 4, 5 or 8 to select the TIM peripheral.
 440:../SPL/src/stm32f10x_tim.c ****   * @param  TIM_OCInitStruct: pointer to a TIM_OCInitTypeDef structure
 441:../SPL/src/stm32f10x_tim.c ****   *         that contains the configuration information for the specified TIM peripheral.
 442:../SPL/src/stm32f10x_tim.c ****   * @retval None
 443:../SPL/src/stm32f10x_tim.c ****   */
 444:../SPL/src/stm32f10x_tim.c **** void TIM_OC3Init(TIM_TypeDef* TIMx, TIM_OCInitTypeDef* TIM_OCInitStruct)
 445:../SPL/src/stm32f10x_tim.c **** {
 1476              		.loc 1 445 0
 1477              		.cfi_startproc
 1478              		@ args = 0, pretend = 0, frame = 16
 1479              		@ frame_needed = 1, uses_anonymous_args = 0
 1480 0a30 80B5     		push	{r7, lr}
 1481              	.LCFI12:
 1482              		.cfi_def_cfa_offset 8
 1483              		.cfi_offset 7, -8
 1484              		.cfi_offset 14, -4
 1485 0a32 84B0     		sub	sp, sp, #16
 1486              	.LCFI13:
 1487              		.cfi_def_cfa_offset 24
 1488 0a34 00AF     		add	r7, sp, #0
 1489              	.LCFI14:
 1490              		.cfi_def_cfa_register 7
 1491 0a36 7860     		str	r0, [r7, #4]
 1492 0a38 3960     		str	r1, [r7, #0]
 446:../SPL/src/stm32f10x_tim.c ****   uint16_t tmpccmrx = 0, tmpccer = 0, tmpcr2 = 0;
 1493              		.loc 1 446 0
 1494 0a3a 4FF00003 		mov	r3, #0
 1495 0a3e 7B81     		strh	r3, [r7, #10]	@ movhi
 1496 0a40 4FF00003 		mov	r3, #0
 1497 0a44 FB81     		strh	r3, [r7, #14]	@ movhi
 1498 0a46 4FF00003 		mov	r3, #0
 1499 0a4a BB81     		strh	r3, [r7, #12]	@ movhi
 447:../SPL/src/stm32f10x_tim.c ****    
 448:../SPL/src/stm32f10x_tim.c ****   /* Check the parameters */
 449:../SPL/src/stm32f10x_tim.c ****   assert_param(IS_TIM_LIST3_PERIPH(TIMx)); 
 1500              		.loc 1 449 0
 1501 0a4c 7A68     		ldr	r2, [r7, #4]
 1502 0a4e 824B     		ldr	r3, .L70
 1503 0a50 9A42     		cmp	r2, r3
 1504 0a52 18D0     		beq	.L60
 1505              		.loc 1 449 0 is_stmt 0 discriminator 1
 1506 0a54 7B68     		ldr	r3, [r7, #4]
 1507 0a56 B3F1804F 		cmp	r3, #1073741824
 1508 0a5a 14D0     		beq	.L60
 1509              		.loc 1 449 0 discriminator 2
 1510 0a5c 7A68     		ldr	r2, [r7, #4]
 1511 0a5e 7F4B     		ldr	r3, .L70+4
 1512 0a60 9A42     		cmp	r2, r3
 1513 0a62 10D0     		beq	.L60
 1514              		.loc 1 449 0 discriminator 3
 1515 0a64 7A68     		ldr	r2, [r7, #4]
 1516 0a66 7E4B     		ldr	r3, .L70+8
 1517 0a68 9A42     		cmp	r2, r3
 1518 0a6a 0CD0     		beq	.L60
 1519              		.loc 1 449 0 discriminator 4
 1520 0a6c 7A68     		ldr	r2, [r7, #4]
 1521 0a6e 7D4B     		ldr	r3, .L70+12
 1522 0a70 9A42     		cmp	r2, r3
 1523 0a72 08D0     		beq	.L60
 1524              		.loc 1 449 0 discriminator 5
 1525 0a74 7A68     		ldr	r2, [r7, #4]
 1526 0a76 7C4B     		ldr	r3, .L70+16
 1527 0a78 9A42     		cmp	r2, r3
 1528 0a7a 04D0     		beq	.L60
 1529              		.loc 1 449 0 discriminator 6
 1530 0a7c 7B48     		ldr	r0, .L70+20
 1531 0a7e 40F2C111 		movw	r1, #449
 1532 0a82 FFF7FEFF 		bl	assert_failed
 1533              	.L60:
 450:../SPL/src/stm32f10x_tim.c ****   assert_param(IS_TIM_OC_MODE(TIM_OCInitStruct->TIM_OCMode));
 1534              		.loc 1 450 0 is_stmt 1
 1535 0a86 3B68     		ldr	r3, [r7, #0]
 1536 0a88 1B88     		ldrh	r3, [r3, #0]
 1537 0a8a 002B     		cmp	r3, #0
 1538 0a8c 18D0     		beq	.L61
 1539              		.loc 1 450 0 is_stmt 0 discriminator 1
 1540 0a8e 3B68     		ldr	r3, [r7, #0]
 1541 0a90 1B88     		ldrh	r3, [r3, #0]
 1542 0a92 102B     		cmp	r3, #16
 1543 0a94 14D0     		beq	.L61
 1544              		.loc 1 450 0 discriminator 2
 1545 0a96 3B68     		ldr	r3, [r7, #0]
 1546 0a98 1B88     		ldrh	r3, [r3, #0]
 1547 0a9a 202B     		cmp	r3, #32
 1548 0a9c 10D0     		beq	.L61
 1549              		.loc 1 450 0 discriminator 3
 1550 0a9e 3B68     		ldr	r3, [r7, #0]
 1551 0aa0 1B88     		ldrh	r3, [r3, #0]
 1552 0aa2 302B     		cmp	r3, #48
 1553 0aa4 0CD0     		beq	.L61
 1554              		.loc 1 450 0 discriminator 4
 1555 0aa6 3B68     		ldr	r3, [r7, #0]
 1556 0aa8 1B88     		ldrh	r3, [r3, #0]
 1557 0aaa 602B     		cmp	r3, #96
 1558 0aac 08D0     		beq	.L61
 1559              		.loc 1 450 0 discriminator 5
 1560 0aae 3B68     		ldr	r3, [r7, #0]
 1561 0ab0 1B88     		ldrh	r3, [r3, #0]
 1562 0ab2 702B     		cmp	r3, #112
 1563 0ab4 04D0     		beq	.L61
 1564              		.loc 1 450 0 discriminator 6
 1565 0ab6 6D48     		ldr	r0, .L70+20
 1566 0ab8 4FF4E171 		mov	r1, #450
 1567 0abc FFF7FEFF 		bl	assert_failed
 1568              	.L61:
 451:../SPL/src/stm32f10x_tim.c ****   assert_param(IS_TIM_OUTPUT_STATE(TIM_OCInitStruct->TIM_OutputState));
 1569              		.loc 1 451 0 is_stmt 1
 1570 0ac0 3B68     		ldr	r3, [r7, #0]
 1571 0ac2 5B88     		ldrh	r3, [r3, #2]
 1572 0ac4 002B     		cmp	r3, #0
 1573 0ac6 08D0     		beq	.L62
 1574              		.loc 1 451 0 is_stmt 0 discriminator 1
 1575 0ac8 3B68     		ldr	r3, [r7, #0]
 1576 0aca 5B88     		ldrh	r3, [r3, #2]
 1577 0acc 012B     		cmp	r3, #1
 1578 0ace 04D0     		beq	.L62
 1579              		.loc 1 451 0 discriminator 2
 1580 0ad0 6648     		ldr	r0, .L70+20
 1581 0ad2 40F2C311 		movw	r1, #451
 1582 0ad6 FFF7FEFF 		bl	assert_failed
 1583              	.L62:
 452:../SPL/src/stm32f10x_tim.c ****   assert_param(IS_TIM_OC_POLARITY(TIM_OCInitStruct->TIM_OCPolarity));   
 1584              		.loc 1 452 0 is_stmt 1
 1585 0ada 3B68     		ldr	r3, [r7, #0]
 1586 0adc 1B89     		ldrh	r3, [r3, #8]
 1587 0ade 002B     		cmp	r3, #0
 1588 0ae0 08D0     		beq	.L63
 1589              		.loc 1 452 0 is_stmt 0 discriminator 1
 1590 0ae2 3B68     		ldr	r3, [r7, #0]
 1591 0ae4 1B89     		ldrh	r3, [r3, #8]
 1592 0ae6 022B     		cmp	r3, #2
 1593 0ae8 04D0     		beq	.L63
 1594              		.loc 1 452 0 discriminator 2
 1595 0aea 6048     		ldr	r0, .L70+20
 1596 0aec 4FF4E271 		mov	r1, #452
 1597 0af0 FFF7FEFF 		bl	assert_failed
 1598              	.L63:
 453:../SPL/src/stm32f10x_tim.c ****   /* Disable the Channel 2: Reset the CC2E Bit */
 454:../SPL/src/stm32f10x_tim.c ****   TIMx->CCER &= (uint16_t)(~((uint16_t)TIM_CCER_CC3E));
 1599              		.loc 1 454 0 is_stmt 1
 1600 0af4 7B68     		ldr	r3, [r7, #4]
 1601 0af6 1B8C     		ldrh	r3, [r3, #32]	@ movhi
 1602 0af8 9BB2     		uxth	r3, r3
 1603 0afa 23F48073 		bic	r3, r3, #256
 1604 0afe 9AB2     		uxth	r2, r3
 1605 0b00 7B68     		ldr	r3, [r7, #4]
 1606 0b02 1A84     		strh	r2, [r3, #32]	@ movhi
 455:../SPL/src/stm32f10x_tim.c ****   
 456:../SPL/src/stm32f10x_tim.c ****   /* Get the TIMx CCER register value */
 457:../SPL/src/stm32f10x_tim.c ****   tmpccer = TIMx->CCER;
 1607              		.loc 1 457 0
 1608 0b04 7B68     		ldr	r3, [r7, #4]
 1609 0b06 1B8C     		ldrh	r3, [r3, #32]	@ movhi
 1610 0b08 FB81     		strh	r3, [r7, #14]	@ movhi
 458:../SPL/src/stm32f10x_tim.c ****   /* Get the TIMx CR2 register value */
 459:../SPL/src/stm32f10x_tim.c ****   tmpcr2 =  TIMx->CR2;
 1611              		.loc 1 459 0
 1612 0b0a 7B68     		ldr	r3, [r7, #4]
 1613 0b0c 9B88     		ldrh	r3, [r3, #4]	@ movhi
 1614 0b0e BB81     		strh	r3, [r7, #12]	@ movhi
 460:../SPL/src/stm32f10x_tim.c ****   
 461:../SPL/src/stm32f10x_tim.c ****   /* Get the TIMx CCMR2 register value */
 462:../SPL/src/stm32f10x_tim.c ****   tmpccmrx = TIMx->CCMR2;
 1615              		.loc 1 462 0
 1616 0b10 7B68     		ldr	r3, [r7, #4]
 1617 0b12 9B8B     		ldrh	r3, [r3, #28]	@ movhi
 1618 0b14 7B81     		strh	r3, [r7, #10]	@ movhi
 463:../SPL/src/stm32f10x_tim.c ****     
 464:../SPL/src/stm32f10x_tim.c ****   /* Reset the Output Compare mode and Capture/Compare selection Bits */
 465:../SPL/src/stm32f10x_tim.c ****   tmpccmrx &= (uint16_t)(~((uint16_t)TIM_CCMR2_OC3M));
 1619              		.loc 1 465 0
 1620 0b16 7B89     		ldrh	r3, [r7, #10]	@ movhi
 1621 0b18 23F07003 		bic	r3, r3, #112
 1622 0b1c 7B81     		strh	r3, [r7, #10]	@ movhi
 466:../SPL/src/stm32f10x_tim.c ****   tmpccmrx &= (uint16_t)(~((uint16_t)TIM_CCMR2_CC3S));  
 1623              		.loc 1 466 0
 1624 0b1e 7B89     		ldrh	r3, [r7, #10]	@ movhi
 1625 0b20 23F00303 		bic	r3, r3, #3
 1626 0b24 7B81     		strh	r3, [r7, #10]	@ movhi
 467:../SPL/src/stm32f10x_tim.c ****   /* Select the Output Compare Mode */
 468:../SPL/src/stm32f10x_tim.c ****   tmpccmrx |= TIM_OCInitStruct->TIM_OCMode;
 1627              		.loc 1 468 0
 1628 0b26 3B68     		ldr	r3, [r7, #0]
 1629 0b28 1A88     		ldrh	r2, [r3, #0]
 1630 0b2a 7B89     		ldrh	r3, [r7, #10]	@ movhi
 1631 0b2c 1343     		orrs	r3, r3, r2
 1632 0b2e 7B81     		strh	r3, [r7, #10]	@ movhi
 469:../SPL/src/stm32f10x_tim.c ****   
 470:../SPL/src/stm32f10x_tim.c ****   /* Reset the Output Polarity level */
 471:../SPL/src/stm32f10x_tim.c ****   tmpccer &= (uint16_t)(~((uint16_t)TIM_CCER_CC3P));
 1633              		.loc 1 471 0
 1634 0b30 FB89     		ldrh	r3, [r7, #14]	@ movhi
 1635 0b32 23F40073 		bic	r3, r3, #512
 1636 0b36 FB81     		strh	r3, [r7, #14]	@ movhi
 472:../SPL/src/stm32f10x_tim.c ****   /* Set the Output Compare Polarity */
 473:../SPL/src/stm32f10x_tim.c ****   tmpccer |= (uint16_t)(TIM_OCInitStruct->TIM_OCPolarity << 8);
 1637              		.loc 1 473 0
 1638 0b38 3B68     		ldr	r3, [r7, #0]
 1639 0b3a 1B89     		ldrh	r3, [r3, #8]
 1640 0b3c 4FEA0323 		lsl	r3, r3, #8
 1641 0b40 9AB2     		uxth	r2, r3
 1642 0b42 FB89     		ldrh	r3, [r7, #14]	@ movhi
 1643 0b44 1343     		orrs	r3, r3, r2
 1644 0b46 FB81     		strh	r3, [r7, #14]	@ movhi
 474:../SPL/src/stm32f10x_tim.c ****   
 475:../SPL/src/stm32f10x_tim.c ****   /* Set the Output State */
 476:../SPL/src/stm32f10x_tim.c ****   tmpccer |= (uint16_t)(TIM_OCInitStruct->TIM_OutputState << 8);
 1645              		.loc 1 476 0
 1646 0b48 3B68     		ldr	r3, [r7, #0]
 1647 0b4a 5B88     		ldrh	r3, [r3, #2]
 1648 0b4c 4FEA0323 		lsl	r3, r3, #8
 1649 0b50 9AB2     		uxth	r2, r3
 1650 0b52 FB89     		ldrh	r3, [r7, #14]	@ movhi
 1651 0b54 1343     		orrs	r3, r3, r2
 1652 0b56 FB81     		strh	r3, [r7, #14]	@ movhi
 477:../SPL/src/stm32f10x_tim.c ****     
 478:../SPL/src/stm32f10x_tim.c ****   if((TIMx == TIM1) || (TIMx == TIM8))
 1653              		.loc 1 478 0
 1654 0b58 7A68     		ldr	r2, [r7, #4]
 1655 0b5a 3F4B     		ldr	r3, .L70
 1656 0b5c 9A42     		cmp	r2, r3
 1657 0b5e 03D0     		beq	.L64
 1658              		.loc 1 478 0 is_stmt 0 discriminator 1
 1659 0b60 7A68     		ldr	r2, [r7, #4]
 1660 0b62 414B     		ldr	r3, .L70+16
 1661 0b64 9A42     		cmp	r2, r3
 1662 0b66 65D1     		bne	.L65
 1663              	.L64:
 479:../SPL/src/stm32f10x_tim.c ****   {
 480:../SPL/src/stm32f10x_tim.c ****     assert_param(IS_TIM_OUTPUTN_STATE(TIM_OCInitStruct->TIM_OutputNState));
 1664              		.loc 1 480 0 is_stmt 1
 1665 0b68 3B68     		ldr	r3, [r7, #0]
 1666 0b6a 9B88     		ldrh	r3, [r3, #4]
 1667 0b6c 002B     		cmp	r3, #0
 1668 0b6e 08D0     		beq	.L66
 1669              		.loc 1 480 0 is_stmt 0 discriminator 1
 1670 0b70 3B68     		ldr	r3, [r7, #0]
 1671 0b72 9B88     		ldrh	r3, [r3, #4]
 1672 0b74 042B     		cmp	r3, #4
 1673 0b76 04D0     		beq	.L66
 1674              		.loc 1 480 0 discriminator 2
 1675 0b78 3C48     		ldr	r0, .L70+20
 1676 0b7a 4FF4F071 		mov	r1, #480
 1677 0b7e FFF7FEFF 		bl	assert_failed
 1678              	.L66:
 481:../SPL/src/stm32f10x_tim.c ****     assert_param(IS_TIM_OCN_POLARITY(TIM_OCInitStruct->TIM_OCNPolarity));
 1679              		.loc 1 481 0 is_stmt 1
 1680 0b82 3B68     		ldr	r3, [r7, #0]
 1681 0b84 5B89     		ldrh	r3, [r3, #10]
 1682 0b86 002B     		cmp	r3, #0
 1683 0b88 08D0     		beq	.L67
 1684              		.loc 1 481 0 is_stmt 0 discriminator 1
 1685 0b8a 3B68     		ldr	r3, [r7, #0]
 1686 0b8c 5B89     		ldrh	r3, [r3, #10]
 1687 0b8e 082B     		cmp	r3, #8
 1688 0b90 04D0     		beq	.L67
 1689              		.loc 1 481 0 discriminator 2
 1690 0b92 3648     		ldr	r0, .L70+20
 1691 0b94 40F2E111 		movw	r1, #481
 1692 0b98 FFF7FEFF 		bl	assert_failed
 1693              	.L67:
 482:../SPL/src/stm32f10x_tim.c ****     assert_param(IS_TIM_OCNIDLE_STATE(TIM_OCInitStruct->TIM_OCNIdleState));
 1694              		.loc 1 482 0 is_stmt 1
 1695 0b9c 3B68     		ldr	r3, [r7, #0]
 1696 0b9e DB89     		ldrh	r3, [r3, #14]
 1697 0ba0 B3F5007F 		cmp	r3, #512
 1698 0ba4 08D0     		beq	.L68
 1699              		.loc 1 482 0 is_stmt 0 discriminator 1
 1700 0ba6 3B68     		ldr	r3, [r7, #0]
 1701 0ba8 DB89     		ldrh	r3, [r3, #14]
 1702 0baa 002B     		cmp	r3, #0
 1703 0bac 04D0     		beq	.L68
 1704              		.loc 1 482 0 discriminator 2
 1705 0bae 2F48     		ldr	r0, .L70+20
 1706 0bb0 4FF4F171 		mov	r1, #482
 1707 0bb4 FFF7FEFF 		bl	assert_failed
 1708              	.L68:
 483:../SPL/src/stm32f10x_tim.c ****     assert_param(IS_TIM_OCIDLE_STATE(TIM_OCInitStruct->TIM_OCIdleState));
 1709              		.loc 1 483 0 is_stmt 1
 1710 0bb8 3B68     		ldr	r3, [r7, #0]
 1711 0bba 9B89     		ldrh	r3, [r3, #12]
 1712 0bbc B3F5807F 		cmp	r3, #256
 1713 0bc0 08D0     		beq	.L69
 1714              		.loc 1 483 0 is_stmt 0 discriminator 1
 1715 0bc2 3B68     		ldr	r3, [r7, #0]
 1716 0bc4 9B89     		ldrh	r3, [r3, #12]
 1717 0bc6 002B     		cmp	r3, #0
 1718 0bc8 04D0     		beq	.L69
 1719              		.loc 1 483 0 discriminator 2
 1720 0bca 2848     		ldr	r0, .L70+20
 1721 0bcc 40F2E311 		movw	r1, #483
 1722 0bd0 FFF7FEFF 		bl	assert_failed
 1723              	.L69:
 484:../SPL/src/stm32f10x_tim.c ****     
 485:../SPL/src/stm32f10x_tim.c ****     /* Reset the Output N Polarity level */
 486:../SPL/src/stm32f10x_tim.c ****     tmpccer &= (uint16_t)(~((uint16_t)TIM_CCER_CC3NP));
 1724              		.loc 1 486 0 is_stmt 1
 1725 0bd4 FB89     		ldrh	r3, [r7, #14]	@ movhi
 1726 0bd6 23F40063 		bic	r3, r3, #2048
 1727 0bda FB81     		strh	r3, [r7, #14]	@ movhi
 487:../SPL/src/stm32f10x_tim.c ****     /* Set the Output N Polarity */
 488:../SPL/src/stm32f10x_tim.c ****     tmpccer |= (uint16_t)(TIM_OCInitStruct->TIM_OCNPolarity << 8);
 1728              		.loc 1 488 0
 1729 0bdc 3B68     		ldr	r3, [r7, #0]
 1730 0bde 5B89     		ldrh	r3, [r3, #10]
 1731 0be0 4FEA0323 		lsl	r3, r3, #8
 1732 0be4 9AB2     		uxth	r2, r3
 1733 0be6 FB89     		ldrh	r3, [r7, #14]	@ movhi
 1734 0be8 1343     		orrs	r3, r3, r2
 1735 0bea FB81     		strh	r3, [r7, #14]	@ movhi
 489:../SPL/src/stm32f10x_tim.c ****     /* Reset the Output N State */
 490:../SPL/src/stm32f10x_tim.c ****     tmpccer &= (uint16_t)(~((uint16_t)TIM_CCER_CC3NE));
 1736              		.loc 1 490 0
 1737 0bec FB89     		ldrh	r3, [r7, #14]	@ movhi
 1738 0bee 23F48063 		bic	r3, r3, #1024
 1739 0bf2 FB81     		strh	r3, [r7, #14]	@ movhi
 491:../SPL/src/stm32f10x_tim.c ****     
 492:../SPL/src/stm32f10x_tim.c ****     /* Set the Output N State */
 493:../SPL/src/stm32f10x_tim.c ****     tmpccer |= (uint16_t)(TIM_OCInitStruct->TIM_OutputNState << 8);
 1740              		.loc 1 493 0
 1741 0bf4 3B68     		ldr	r3, [r7, #0]
 1742 0bf6 9B88     		ldrh	r3, [r3, #4]
 1743 0bf8 4FEA0323 		lsl	r3, r3, #8
 1744 0bfc 9AB2     		uxth	r2, r3
 1745 0bfe FB89     		ldrh	r3, [r7, #14]	@ movhi
 1746 0c00 1343     		orrs	r3, r3, r2
 1747 0c02 FB81     		strh	r3, [r7, #14]	@ movhi
 494:../SPL/src/stm32f10x_tim.c ****     /* Reset the Output Compare and Output Compare N IDLE State */
 495:../SPL/src/stm32f10x_tim.c ****     tmpcr2 &= (uint16_t)(~((uint16_t)TIM_CR2_OIS3));
 1748              		.loc 1 495 0
 1749 0c04 BB89     		ldrh	r3, [r7, #12]	@ movhi
 1750 0c06 23F48053 		bic	r3, r3, #4096
 1751 0c0a BB81     		strh	r3, [r7, #12]	@ movhi
 496:../SPL/src/stm32f10x_tim.c ****     tmpcr2 &= (uint16_t)(~((uint16_t)TIM_CR2_OIS3N));
 1752              		.loc 1 496 0
 1753 0c0c BB89     		ldrh	r3, [r7, #12]	@ movhi
 1754 0c0e 23F40053 		bic	r3, r3, #8192
 1755 0c12 BB81     		strh	r3, [r7, #12]	@ movhi
 497:../SPL/src/stm32f10x_tim.c ****     /* Set the Output Idle state */
 498:../SPL/src/stm32f10x_tim.c ****     tmpcr2 |= (uint16_t)(TIM_OCInitStruct->TIM_OCIdleState << 4);
 1756              		.loc 1 498 0
 1757 0c14 3B68     		ldr	r3, [r7, #0]
 1758 0c16 9B89     		ldrh	r3, [r3, #12]
 1759 0c18 4FEA0313 		lsl	r3, r3, #4
 1760 0c1c 9AB2     		uxth	r2, r3
 1761 0c1e BB89     		ldrh	r3, [r7, #12]	@ movhi
 1762 0c20 1343     		orrs	r3, r3, r2
 1763 0c22 BB81     		strh	r3, [r7, #12]	@ movhi
 499:../SPL/src/stm32f10x_tim.c ****     /* Set the Output N Idle state */
 500:../SPL/src/stm32f10x_tim.c ****     tmpcr2 |= (uint16_t)(TIM_OCInitStruct->TIM_OCNIdleState << 4);
 1764              		.loc 1 500 0
 1765 0c24 3B68     		ldr	r3, [r7, #0]
 1766 0c26 DB89     		ldrh	r3, [r3, #14]
 1767 0c28 4FEA0313 		lsl	r3, r3, #4
 1768 0c2c 9AB2     		uxth	r2, r3
 1769 0c2e BB89     		ldrh	r3, [r7, #12]	@ movhi
 1770 0c30 1343     		orrs	r3, r3, r2
 1771 0c32 BB81     		strh	r3, [r7, #12]	@ movhi
 1772              	.L65:
 501:../SPL/src/stm32f10x_tim.c ****   }
 502:../SPL/src/stm32f10x_tim.c ****   /* Write to TIMx CR2 */
 503:../SPL/src/stm32f10x_tim.c ****   TIMx->CR2 = tmpcr2;
 1773              		.loc 1 503 0
 1774 0c34 7B68     		ldr	r3, [r7, #4]
 1775 0c36 BA89     		ldrh	r2, [r7, #12]	@ movhi
 1776 0c38 9A80     		strh	r2, [r3, #4]	@ movhi
 504:../SPL/src/stm32f10x_tim.c ****   
 505:../SPL/src/stm32f10x_tim.c ****   /* Write to TIMx CCMR2 */
 506:../SPL/src/stm32f10x_tim.c ****   TIMx->CCMR2 = tmpccmrx;
 1777              		.loc 1 506 0
 1778 0c3a 7B68     		ldr	r3, [r7, #4]
 1779 0c3c 7A89     		ldrh	r2, [r7, #10]	@ movhi
 1780 0c3e 9A83     		strh	r2, [r3, #28]	@ movhi
 507:../SPL/src/stm32f10x_tim.c **** 
 508:../SPL/src/stm32f10x_tim.c ****   /* Set the Capture Compare Register value */
 509:../SPL/src/stm32f10x_tim.c ****   TIMx->CCR3 = TIM_OCInitStruct->TIM_Pulse;
 1781              		.loc 1 509 0
 1782 0c40 3B68     		ldr	r3, [r7, #0]
 1783 0c42 DA88     		ldrh	r2, [r3, #6]
 1784 0c44 7B68     		ldr	r3, [r7, #4]
 1785 0c46 9A87     		strh	r2, [r3, #60]	@ movhi
 510:../SPL/src/stm32f10x_tim.c ****   
 511:../SPL/src/stm32f10x_tim.c ****   /* Write to TIMx CCER */
 512:../SPL/src/stm32f10x_tim.c ****   TIMx->CCER = tmpccer;
 1786              		.loc 1 512 0
 1787 0c48 7B68     		ldr	r3, [r7, #4]
 1788 0c4a FA89     		ldrh	r2, [r7, #14]	@ movhi
 1789 0c4c 1A84     		strh	r2, [r3, #32]	@ movhi
 513:../SPL/src/stm32f10x_tim.c **** }
 1790              		.loc 1 513 0
 1791 0c4e 07F11007 		add	r7, r7, #16
 1792 0c52 BD46     		mov	sp, r7
 1793 0c54 80BD     		pop	{r7, pc}
 1794              	.L71:
 1795 0c56 00BF     		.align	2
 1796              	.L70:
 1797 0c58 002C0140 		.word	1073818624
 1798 0c5c 00040040 		.word	1073742848
 1799 0c60 00080040 		.word	1073743872
 1800 0c64 000C0040 		.word	1073744896
 1801 0c68 00340140 		.word	1073820672
 1802 0c6c 00000000 		.word	.LC0
 1803              		.cfi_endproc
 1804              	.LFE33:
 1806              		.align	2
 1807              		.global	TIM_OC4Init
 1808              		.thumb
 1809              		.thumb_func
 1811              	TIM_OC4Init:
 1812              	.LFB34:
 514:../SPL/src/stm32f10x_tim.c **** 
 515:../SPL/src/stm32f10x_tim.c **** /**
 516:../SPL/src/stm32f10x_tim.c ****   * @brief  Initializes the TIMx Channel4 according to the specified
 517:../SPL/src/stm32f10x_tim.c ****   *         parameters in the TIM_OCInitStruct.
 518:../SPL/src/stm32f10x_tim.c ****   * @param  TIMx: where x can be  1, 2, 3, 4, 5 or 8 to select the TIM peripheral.
 519:../SPL/src/stm32f10x_tim.c ****   * @param  TIM_OCInitStruct: pointer to a TIM_OCInitTypeDef structure
 520:../SPL/src/stm32f10x_tim.c ****   *         that contains the configuration information for the specified TIM peripheral.
 521:../SPL/src/stm32f10x_tim.c ****   * @retval None
 522:../SPL/src/stm32f10x_tim.c ****   */
 523:../SPL/src/stm32f10x_tim.c **** void TIM_OC4Init(TIM_TypeDef* TIMx, TIM_OCInitTypeDef* TIM_OCInitStruct)
 524:../SPL/src/stm32f10x_tim.c **** {
 1813              		.loc 1 524 0
 1814              		.cfi_startproc
 1815              		@ args = 0, pretend = 0, frame = 16
 1816              		@ frame_needed = 1, uses_anonymous_args = 0
 1817 0c70 80B5     		push	{r7, lr}
 1818              	.LCFI15:
 1819              		.cfi_def_cfa_offset 8
 1820              		.cfi_offset 7, -8
 1821              		.cfi_offset 14, -4
 1822 0c72 84B0     		sub	sp, sp, #16
 1823              	.LCFI16:
 1824              		.cfi_def_cfa_offset 24
 1825 0c74 00AF     		add	r7, sp, #0
 1826              	.LCFI17:
 1827              		.cfi_def_cfa_register 7
 1828 0c76 7860     		str	r0, [r7, #4]
 1829 0c78 3960     		str	r1, [r7, #0]
 525:../SPL/src/stm32f10x_tim.c ****   uint16_t tmpccmrx = 0, tmpccer = 0, tmpcr2 = 0;
 1830              		.loc 1 525 0
 1831 0c7a 4FF00003 		mov	r3, #0
 1832 0c7e BB81     		strh	r3, [r7, #12]	@ movhi
 1833 0c80 4FF00003 		mov	r3, #0
 1834 0c84 7B81     		strh	r3, [r7, #10]	@ movhi
 1835 0c86 4FF00003 		mov	r3, #0
 1836 0c8a FB81     		strh	r3, [r7, #14]	@ movhi
 526:../SPL/src/stm32f10x_tim.c ****    
 527:../SPL/src/stm32f10x_tim.c ****   /* Check the parameters */
 528:../SPL/src/stm32f10x_tim.c ****   assert_param(IS_TIM_LIST3_PERIPH(TIMx)); 
 1837              		.loc 1 528 0
 1838 0c8c 7A68     		ldr	r2, [r7, #4]
 1839 0c8e 5E4B     		ldr	r3, .L80
 1840 0c90 9A42     		cmp	r2, r3
 1841 0c92 18D0     		beq	.L73
 1842              		.loc 1 528 0 is_stmt 0 discriminator 1
 1843 0c94 7B68     		ldr	r3, [r7, #4]
 1844 0c96 B3F1804F 		cmp	r3, #1073741824
 1845 0c9a 14D0     		beq	.L73
 1846              		.loc 1 528 0 discriminator 2
 1847 0c9c 7A68     		ldr	r2, [r7, #4]
 1848 0c9e 5B4B     		ldr	r3, .L80+4
 1849 0ca0 9A42     		cmp	r2, r3
 1850 0ca2 10D0     		beq	.L73
 1851              		.loc 1 528 0 discriminator 3
 1852 0ca4 7A68     		ldr	r2, [r7, #4]
 1853 0ca6 5A4B     		ldr	r3, .L80+8
 1854 0ca8 9A42     		cmp	r2, r3
 1855 0caa 0CD0     		beq	.L73
 1856              		.loc 1 528 0 discriminator 4
 1857 0cac 7A68     		ldr	r2, [r7, #4]
 1858 0cae 594B     		ldr	r3, .L80+12
 1859 0cb0 9A42     		cmp	r2, r3
 1860 0cb2 08D0     		beq	.L73
 1861              		.loc 1 528 0 discriminator 5
 1862 0cb4 7A68     		ldr	r2, [r7, #4]
 1863 0cb6 584B     		ldr	r3, .L80+16
 1864 0cb8 9A42     		cmp	r2, r3
 1865 0cba 04D0     		beq	.L73
 1866              		.loc 1 528 0 discriminator 6
 1867 0cbc 5748     		ldr	r0, .L80+20
 1868 0cbe 4FF40471 		mov	r1, #528
 1869 0cc2 FFF7FEFF 		bl	assert_failed
 1870              	.L73:
 529:../SPL/src/stm32f10x_tim.c ****   assert_param(IS_TIM_OC_MODE(TIM_OCInitStruct->TIM_OCMode));
 1871              		.loc 1 529 0 is_stmt 1
 1872 0cc6 3B68     		ldr	r3, [r7, #0]
 1873 0cc8 1B88     		ldrh	r3, [r3, #0]
 1874 0cca 002B     		cmp	r3, #0
 1875 0ccc 18D0     		beq	.L74
 1876              		.loc 1 529 0 is_stmt 0 discriminator 1
 1877 0cce 3B68     		ldr	r3, [r7, #0]
 1878 0cd0 1B88     		ldrh	r3, [r3, #0]
 1879 0cd2 102B     		cmp	r3, #16
 1880 0cd4 14D0     		beq	.L74
 1881              		.loc 1 529 0 discriminator 2
 1882 0cd6 3B68     		ldr	r3, [r7, #0]
 1883 0cd8 1B88     		ldrh	r3, [r3, #0]
 1884 0cda 202B     		cmp	r3, #32
 1885 0cdc 10D0     		beq	.L74
 1886              		.loc 1 529 0 discriminator 3
 1887 0cde 3B68     		ldr	r3, [r7, #0]
 1888 0ce0 1B88     		ldrh	r3, [r3, #0]
 1889 0ce2 302B     		cmp	r3, #48
 1890 0ce4 0CD0     		beq	.L74
 1891              		.loc 1 529 0 discriminator 4
 1892 0ce6 3B68     		ldr	r3, [r7, #0]
 1893 0ce8 1B88     		ldrh	r3, [r3, #0]
 1894 0cea 602B     		cmp	r3, #96
 1895 0cec 08D0     		beq	.L74
 1896              		.loc 1 529 0 discriminator 5
 1897 0cee 3B68     		ldr	r3, [r7, #0]
 1898 0cf0 1B88     		ldrh	r3, [r3, #0]
 1899 0cf2 702B     		cmp	r3, #112
 1900 0cf4 04D0     		beq	.L74
 1901              		.loc 1 529 0 discriminator 6
 1902 0cf6 4948     		ldr	r0, .L80+20
 1903 0cf8 40F21121 		movw	r1, #529
 1904 0cfc FFF7FEFF 		bl	assert_failed
 1905              	.L74:
 530:../SPL/src/stm32f10x_tim.c ****   assert_param(IS_TIM_OUTPUT_STATE(TIM_OCInitStruct->TIM_OutputState));
 1906              		.loc 1 530 0 is_stmt 1
 1907 0d00 3B68     		ldr	r3, [r7, #0]
 1908 0d02 5B88     		ldrh	r3, [r3, #2]
 1909 0d04 002B     		cmp	r3, #0
 1910 0d06 08D0     		beq	.L75
 1911              		.loc 1 530 0 is_stmt 0 discriminator 1
 1912 0d08 3B68     		ldr	r3, [r7, #0]
 1913 0d0a 5B88     		ldrh	r3, [r3, #2]
 1914 0d0c 012B     		cmp	r3, #1
 1915 0d0e 04D0     		beq	.L75
 1916              		.loc 1 530 0 discriminator 2
 1917 0d10 4248     		ldr	r0, .L80+20
 1918 0d12 40F21221 		movw	r1, #530
 1919 0d16 FFF7FEFF 		bl	assert_failed
 1920              	.L75:
 531:../SPL/src/stm32f10x_tim.c ****   assert_param(IS_TIM_OC_POLARITY(TIM_OCInitStruct->TIM_OCPolarity));   
 1921              		.loc 1 531 0 is_stmt 1
 1922 0d1a 3B68     		ldr	r3, [r7, #0]
 1923 0d1c 1B89     		ldrh	r3, [r3, #8]
 1924 0d1e 002B     		cmp	r3, #0
 1925 0d20 08D0     		beq	.L76
 1926              		.loc 1 531 0 is_stmt 0 discriminator 1
 1927 0d22 3B68     		ldr	r3, [r7, #0]
 1928 0d24 1B89     		ldrh	r3, [r3, #8]
 1929 0d26 022B     		cmp	r3, #2
 1930 0d28 04D0     		beq	.L76
 1931              		.loc 1 531 0 discriminator 2
 1932 0d2a 3C48     		ldr	r0, .L80+20
 1933 0d2c 40F21321 		movw	r1, #531
 1934 0d30 FFF7FEFF 		bl	assert_failed
 1935              	.L76:
 532:../SPL/src/stm32f10x_tim.c ****   /* Disable the Channel 2: Reset the CC4E Bit */
 533:../SPL/src/stm32f10x_tim.c ****   TIMx->CCER &= (uint16_t)(~((uint16_t)TIM_CCER_CC4E));
 1936              		.loc 1 533 0 is_stmt 1
 1937 0d34 7B68     		ldr	r3, [r7, #4]
 1938 0d36 1B8C     		ldrh	r3, [r3, #32]	@ movhi
 1939 0d38 9BB2     		uxth	r3, r3
 1940 0d3a 23F48053 		bic	r3, r3, #4096
 1941 0d3e 9AB2     		uxth	r2, r3
 1942 0d40 7B68     		ldr	r3, [r7, #4]
 1943 0d42 1A84     		strh	r2, [r3, #32]	@ movhi
 534:../SPL/src/stm32f10x_tim.c ****   
 535:../SPL/src/stm32f10x_tim.c ****   /* Get the TIMx CCER register value */
 536:../SPL/src/stm32f10x_tim.c ****   tmpccer = TIMx->CCER;
 1944              		.loc 1 536 0
 1945 0d44 7B68     		ldr	r3, [r7, #4]
 1946 0d46 1B8C     		ldrh	r3, [r3, #32]	@ movhi
 1947 0d48 7B81     		strh	r3, [r7, #10]	@ movhi
 537:../SPL/src/stm32f10x_tim.c ****   /* Get the TIMx CR2 register value */
 538:../SPL/src/stm32f10x_tim.c ****   tmpcr2 =  TIMx->CR2;
 1948              		.loc 1 538 0
 1949 0d4a 7B68     		ldr	r3, [r7, #4]
 1950 0d4c 9B88     		ldrh	r3, [r3, #4]	@ movhi
 1951 0d4e FB81     		strh	r3, [r7, #14]	@ movhi
 539:../SPL/src/stm32f10x_tim.c ****   
 540:../SPL/src/stm32f10x_tim.c ****   /* Get the TIMx CCMR2 register value */
 541:../SPL/src/stm32f10x_tim.c ****   tmpccmrx = TIMx->CCMR2;
 1952              		.loc 1 541 0
 1953 0d50 7B68     		ldr	r3, [r7, #4]
 1954 0d52 9B8B     		ldrh	r3, [r3, #28]	@ movhi
 1955 0d54 BB81     		strh	r3, [r7, #12]	@ movhi
 542:../SPL/src/stm32f10x_tim.c ****     
 543:../SPL/src/stm32f10x_tim.c ****   /* Reset the Output Compare mode and Capture/Compare selection Bits */
 544:../SPL/src/stm32f10x_tim.c ****   tmpccmrx &= (uint16_t)(~((uint16_t)TIM_CCMR2_OC4M));
 1956              		.loc 1 544 0
 1957 0d56 BB89     		ldrh	r3, [r7, #12]	@ movhi
 1958 0d58 23F4E043 		bic	r3, r3, #28672
 1959 0d5c BB81     		strh	r3, [r7, #12]	@ movhi
 545:../SPL/src/stm32f10x_tim.c ****   tmpccmrx &= (uint16_t)(~((uint16_t)TIM_CCMR2_CC4S));
 1960              		.loc 1 545 0
 1961 0d5e BB89     		ldrh	r3, [r7, #12]	@ movhi
 1962 0d60 23F44073 		bic	r3, r3, #768
 1963 0d64 BB81     		strh	r3, [r7, #12]	@ movhi
 546:../SPL/src/stm32f10x_tim.c ****   
 547:../SPL/src/stm32f10x_tim.c ****   /* Select the Output Compare Mode */
 548:../SPL/src/stm32f10x_tim.c ****   tmpccmrx |= (uint16_t)(TIM_OCInitStruct->TIM_OCMode << 8);
 1964              		.loc 1 548 0
 1965 0d66 3B68     		ldr	r3, [r7, #0]
 1966 0d68 1B88     		ldrh	r3, [r3, #0]
 1967 0d6a 4FEA0323 		lsl	r3, r3, #8
 1968 0d6e 9AB2     		uxth	r2, r3
 1969 0d70 BB89     		ldrh	r3, [r7, #12]	@ movhi
 1970 0d72 1343     		orrs	r3, r3, r2
 1971 0d74 BB81     		strh	r3, [r7, #12]	@ movhi
 549:../SPL/src/stm32f10x_tim.c ****   
 550:../SPL/src/stm32f10x_tim.c ****   /* Reset the Output Polarity level */
 551:../SPL/src/stm32f10x_tim.c ****   tmpccer &= (uint16_t)(~((uint16_t)TIM_CCER_CC4P));
 1972              		.loc 1 551 0
 1973 0d76 7B89     		ldrh	r3, [r7, #10]	@ movhi
 1974 0d78 23F40053 		bic	r3, r3, #8192
 1975 0d7c 7B81     		strh	r3, [r7, #10]	@ movhi
 552:../SPL/src/stm32f10x_tim.c ****   /* Set the Output Compare Polarity */
 553:../SPL/src/stm32f10x_tim.c ****   tmpccer |= (uint16_t)(TIM_OCInitStruct->TIM_OCPolarity << 12);
 1976              		.loc 1 553 0
 1977 0d7e 3B68     		ldr	r3, [r7, #0]
 1978 0d80 1B89     		ldrh	r3, [r3, #8]
 1979 0d82 4FEA0333 		lsl	r3, r3, #12
 1980 0d86 9AB2     		uxth	r2, r3
 1981 0d88 7B89     		ldrh	r3, [r7, #10]	@ movhi
 1982 0d8a 1343     		orrs	r3, r3, r2
 1983 0d8c 7B81     		strh	r3, [r7, #10]	@ movhi
 554:../SPL/src/stm32f10x_tim.c ****   
 555:../SPL/src/stm32f10x_tim.c ****   /* Set the Output State */
 556:../SPL/src/stm32f10x_tim.c ****   tmpccer |= (uint16_t)(TIM_OCInitStruct->TIM_OutputState << 12);
 1984              		.loc 1 556 0
 1985 0d8e 3B68     		ldr	r3, [r7, #0]
 1986 0d90 5B88     		ldrh	r3, [r3, #2]
 1987 0d92 4FEA0333 		lsl	r3, r3, #12
 1988 0d96 9AB2     		uxth	r2, r3
 1989 0d98 7B89     		ldrh	r3, [r7, #10]	@ movhi
 1990 0d9a 1343     		orrs	r3, r3, r2
 1991 0d9c 7B81     		strh	r3, [r7, #10]	@ movhi
 557:../SPL/src/stm32f10x_tim.c ****     
 558:../SPL/src/stm32f10x_tim.c ****   if((TIMx == TIM1) || (TIMx == TIM8))
 1992              		.loc 1 558 0
 1993 0d9e 7A68     		ldr	r2, [r7, #4]
 1994 0da0 194B     		ldr	r3, .L80
 1995 0da2 9A42     		cmp	r2, r3
 1996 0da4 03D0     		beq	.L77
 1997              		.loc 1 558 0 is_stmt 0 discriminator 1
 1998 0da6 7A68     		ldr	r2, [r7, #4]
 1999 0da8 1B4B     		ldr	r3, .L80+16
 2000 0daa 9A42     		cmp	r2, r3
 2001 0dac 19D1     		bne	.L78
 2002              	.L77:
 559:../SPL/src/stm32f10x_tim.c ****   {
 560:../SPL/src/stm32f10x_tim.c ****     assert_param(IS_TIM_OCIDLE_STATE(TIM_OCInitStruct->TIM_OCIdleState));
 2003              		.loc 1 560 0 is_stmt 1
 2004 0dae 3B68     		ldr	r3, [r7, #0]
 2005 0db0 9B89     		ldrh	r3, [r3, #12]
 2006 0db2 B3F5807F 		cmp	r3, #256
 2007 0db6 08D0     		beq	.L79
 2008              		.loc 1 560 0 is_stmt 0 discriminator 1
 2009 0db8 3B68     		ldr	r3, [r7, #0]
 2010 0dba 9B89     		ldrh	r3, [r3, #12]
 2011 0dbc 002B     		cmp	r3, #0
 2012 0dbe 04D0     		beq	.L79
 2013              		.loc 1 560 0 discriminator 2
 2014 0dc0 1648     		ldr	r0, .L80+20
 2015 0dc2 4FF40C71 		mov	r1, #560
 2016 0dc6 FFF7FEFF 		bl	assert_failed
 2017              	.L79:
 561:../SPL/src/stm32f10x_tim.c ****     /* Reset the Output Compare IDLE State */
 562:../SPL/src/stm32f10x_tim.c ****     tmpcr2 &= (uint16_t)(~((uint16_t)TIM_CR2_OIS4));
 2018              		.loc 1 562 0 is_stmt 1
 2019 0dca FB89     		ldrh	r3, [r7, #14]	@ movhi
 2020 0dcc 23F48043 		bic	r3, r3, #16384
 2021 0dd0 FB81     		strh	r3, [r7, #14]	@ movhi
 563:../SPL/src/stm32f10x_tim.c ****     /* Set the Output Idle state */
 564:../SPL/src/stm32f10x_tim.c ****     tmpcr2 |= (uint16_t)(TIM_OCInitStruct->TIM_OCIdleState << 6);
 2022              		.loc 1 564 0
 2023 0dd2 3B68     		ldr	r3, [r7, #0]
 2024 0dd4 9B89     		ldrh	r3, [r3, #12]
 2025 0dd6 4FEA8313 		lsl	r3, r3, #6
 2026 0dda 9AB2     		uxth	r2, r3
 2027 0ddc FB89     		ldrh	r3, [r7, #14]	@ movhi
 2028 0dde 1343     		orrs	r3, r3, r2
 2029 0de0 FB81     		strh	r3, [r7, #14]	@ movhi
 2030              	.L78:
 565:../SPL/src/stm32f10x_tim.c ****   }
 566:../SPL/src/stm32f10x_tim.c ****   /* Write to TIMx CR2 */
 567:../SPL/src/stm32f10x_tim.c ****   TIMx->CR2 = tmpcr2;
 2031              		.loc 1 567 0
 2032 0de2 7B68     		ldr	r3, [r7, #4]
 2033 0de4 FA89     		ldrh	r2, [r7, #14]	@ movhi
 2034 0de6 9A80     		strh	r2, [r3, #4]	@ movhi
 568:../SPL/src/stm32f10x_tim.c ****   
 569:../SPL/src/stm32f10x_tim.c ****   /* Write to TIMx CCMR2 */  
 570:../SPL/src/stm32f10x_tim.c ****   TIMx->CCMR2 = tmpccmrx;
 2035              		.loc 1 570 0
 2036 0de8 7B68     		ldr	r3, [r7, #4]
 2037 0dea BA89     		ldrh	r2, [r7, #12]	@ movhi
 2038 0dec 9A83     		strh	r2, [r3, #28]	@ movhi
 571:../SPL/src/stm32f10x_tim.c **** 
 572:../SPL/src/stm32f10x_tim.c ****   /* Set the Capture Compare Register value */
 573:../SPL/src/stm32f10x_tim.c ****   TIMx->CCR4 = TIM_OCInitStruct->TIM_Pulse;
 2039              		.loc 1 573 0
 2040 0dee 3B68     		ldr	r3, [r7, #0]
 2041 0df0 DA88     		ldrh	r2, [r3, #6]
 2042 0df2 7B68     		ldr	r3, [r7, #4]
 2043 0df4 A3F84020 		strh	r2, [r3, #64]	@ movhi
 574:../SPL/src/stm32f10x_tim.c ****   
 575:../SPL/src/stm32f10x_tim.c ****   /* Write to TIMx CCER */
 576:../SPL/src/stm32f10x_tim.c ****   TIMx->CCER = tmpccer;
 2044              		.loc 1 576 0
 2045 0df8 7B68     		ldr	r3, [r7, #4]
 2046 0dfa 7A89     		ldrh	r2, [r7, #10]	@ movhi
 2047 0dfc 1A84     		strh	r2, [r3, #32]	@ movhi
 577:../SPL/src/stm32f10x_tim.c **** }
 2048              		.loc 1 577 0
 2049 0dfe 07F11007 		add	r7, r7, #16
 2050 0e02 BD46     		mov	sp, r7
 2051 0e04 80BD     		pop	{r7, pc}
 2052              	.L81:
 2053 0e06 00BF     		.align	2
 2054              	.L80:
 2055 0e08 002C0140 		.word	1073818624
 2056 0e0c 00040040 		.word	1073742848
 2057 0e10 00080040 		.word	1073743872
 2058 0e14 000C0040 		.word	1073744896
 2059 0e18 00340140 		.word	1073820672
 2060 0e1c 00000000 		.word	.LC0
 2061              		.cfi_endproc
 2062              	.LFE34:
 2064              		.align	2
 2065              		.global	TIM_ICInit
 2066              		.thumb
 2067              		.thumb_func
 2069              	TIM_ICInit:
 2070              	.LFB35:
 578:../SPL/src/stm32f10x_tim.c **** 
 579:../SPL/src/stm32f10x_tim.c **** /**
 580:../SPL/src/stm32f10x_tim.c ****   * @brief  Initializes the TIM peripheral according to the specified
 581:../SPL/src/stm32f10x_tim.c ****   *         parameters in the TIM_ICInitStruct.
 582:../SPL/src/stm32f10x_tim.c ****   * @param  TIMx: where x can be  1 to 17 except 6 and 7 to select the TIM peripheral.
 583:../SPL/src/stm32f10x_tim.c ****   * @param  TIM_ICInitStruct: pointer to a TIM_ICInitTypeDef structure
 584:../SPL/src/stm32f10x_tim.c ****   *         that contains the configuration information for the specified TIM peripheral.
 585:../SPL/src/stm32f10x_tim.c ****   * @retval None
 586:../SPL/src/stm32f10x_tim.c ****   */
 587:../SPL/src/stm32f10x_tim.c **** void TIM_ICInit(TIM_TypeDef* TIMx, TIM_ICInitTypeDef* TIM_ICInitStruct)
 588:../SPL/src/stm32f10x_tim.c **** {
 2071              		.loc 1 588 0
 2072              		.cfi_startproc
 2073              		@ args = 0, pretend = 0, frame = 8
 2074              		@ frame_needed = 1, uses_anonymous_args = 0
 2075 0e20 80B5     		push	{r7, lr}
 2076              	.LCFI18:
 2077              		.cfi_def_cfa_offset 8
 2078              		.cfi_offset 7, -8
 2079              		.cfi_offset 14, -4
 2080 0e22 82B0     		sub	sp, sp, #8
 2081              	.LCFI19:
 2082              		.cfi_def_cfa_offset 16
 2083 0e24 00AF     		add	r7, sp, #0
 2084              	.LCFI20:
 2085              		.cfi_def_cfa_register 7
 2086 0e26 7860     		str	r0, [r7, #4]
 2087 0e28 3960     		str	r1, [r7, #0]
 589:../SPL/src/stm32f10x_tim.c ****   /* Check the parameters */
 590:../SPL/src/stm32f10x_tim.c ****   assert_param(IS_TIM_CHANNEL(TIM_ICInitStruct->TIM_Channel));  
 2088              		.loc 1 590 0
 2089 0e2a 3B68     		ldr	r3, [r7, #0]
 2090 0e2c 1B88     		ldrh	r3, [r3, #0]
 2091 0e2e 002B     		cmp	r3, #0
 2092 0e30 10D0     		beq	.L83
 2093              		.loc 1 590 0 is_stmt 0 discriminator 1
 2094 0e32 3B68     		ldr	r3, [r7, #0]
 2095 0e34 1B88     		ldrh	r3, [r3, #0]
 2096 0e36 042B     		cmp	r3, #4
 2097 0e38 0CD0     		beq	.L83
 2098              		.loc 1 590 0 discriminator 2
 2099 0e3a 3B68     		ldr	r3, [r7, #0]
 2100 0e3c 1B88     		ldrh	r3, [r3, #0]
 2101 0e3e 082B     		cmp	r3, #8
 2102 0e40 08D0     		beq	.L83
 2103              		.loc 1 590 0 discriminator 3
 2104 0e42 3B68     		ldr	r3, [r7, #0]
 2105 0e44 1B88     		ldrh	r3, [r3, #0]
 2106 0e46 0C2B     		cmp	r3, #12
 2107 0e48 04D0     		beq	.L83
 2108              		.loc 1 590 0 discriminator 4
 2109 0e4a 9748     		ldr	r0, .L99
 2110 0e4c 40F24E21 		movw	r1, #590
 2111 0e50 FFF7FEFF 		bl	assert_failed
 2112              	.L83:
 591:../SPL/src/stm32f10x_tim.c ****   assert_param(IS_TIM_IC_SELECTION(TIM_ICInitStruct->TIM_ICSelection));
 2113              		.loc 1 591 0 is_stmt 1
 2114 0e54 3B68     		ldr	r3, [r7, #0]
 2115 0e56 9B88     		ldrh	r3, [r3, #4]
 2116 0e58 012B     		cmp	r3, #1
 2117 0e5a 0CD0     		beq	.L84
 2118              		.loc 1 591 0 is_stmt 0 discriminator 1
 2119 0e5c 3B68     		ldr	r3, [r7, #0]
 2120 0e5e 9B88     		ldrh	r3, [r3, #4]
 2121 0e60 022B     		cmp	r3, #2
 2122 0e62 08D0     		beq	.L84
 2123              		.loc 1 591 0 discriminator 2
 2124 0e64 3B68     		ldr	r3, [r7, #0]
 2125 0e66 9B88     		ldrh	r3, [r3, #4]
 2126 0e68 032B     		cmp	r3, #3
 2127 0e6a 04D0     		beq	.L84
 2128              		.loc 1 591 0 discriminator 3
 2129 0e6c 8E48     		ldr	r0, .L99
 2130 0e6e 40F24F21 		movw	r1, #591
 2131 0e72 FFF7FEFF 		bl	assert_failed
 2132              	.L84:
 592:../SPL/src/stm32f10x_tim.c ****   assert_param(IS_TIM_IC_PRESCALER(TIM_ICInitStruct->TIM_ICPrescaler));
 2133              		.loc 1 592 0 is_stmt 1
 2134 0e76 3B68     		ldr	r3, [r7, #0]
 2135 0e78 DB88     		ldrh	r3, [r3, #6]
 2136 0e7a 002B     		cmp	r3, #0
 2137 0e7c 10D0     		beq	.L85
 2138              		.loc 1 592 0 is_stmt 0 discriminator 1
 2139 0e7e 3B68     		ldr	r3, [r7, #0]
 2140 0e80 DB88     		ldrh	r3, [r3, #6]
 2141 0e82 042B     		cmp	r3, #4
 2142 0e84 0CD0     		beq	.L85
 2143              		.loc 1 592 0 discriminator 2
 2144 0e86 3B68     		ldr	r3, [r7, #0]
 2145 0e88 DB88     		ldrh	r3, [r3, #6]
 2146 0e8a 082B     		cmp	r3, #8
 2147 0e8c 08D0     		beq	.L85
 2148              		.loc 1 592 0 discriminator 3
 2149 0e8e 3B68     		ldr	r3, [r7, #0]
 2150 0e90 DB88     		ldrh	r3, [r3, #6]
 2151 0e92 0C2B     		cmp	r3, #12
 2152 0e94 04D0     		beq	.L85
 2153              		.loc 1 592 0 discriminator 4
 2154 0e96 8448     		ldr	r0, .L99
 2155 0e98 4FF41471 		mov	r1, #592
 2156 0e9c FFF7FEFF 		bl	assert_failed
 2157              	.L85:
 593:../SPL/src/stm32f10x_tim.c ****   assert_param(IS_TIM_IC_FILTER(TIM_ICInitStruct->TIM_ICFilter));
 2158              		.loc 1 593 0 is_stmt 1
 2159 0ea0 3B68     		ldr	r3, [r7, #0]
 2160 0ea2 1B89     		ldrh	r3, [r3, #8]
 2161 0ea4 0F2B     		cmp	r3, #15
 2162 0ea6 04D9     		bls	.L86
 2163              		.loc 1 593 0 is_stmt 0 discriminator 1
 2164 0ea8 7F48     		ldr	r0, .L99
 2165 0eaa 40F25121 		movw	r1, #593
 2166 0eae FFF7FEFF 		bl	assert_failed
 2167              	.L86:
 594:../SPL/src/stm32f10x_tim.c ****   
 595:../SPL/src/stm32f10x_tim.c ****   if((TIMx == TIM1) || (TIMx == TIM8) || (TIMx == TIM2) || (TIMx == TIM3) ||
 2168              		.loc 1 595 0 is_stmt 1
 2169 0eb2 7A68     		ldr	r2, [r7, #4]
 2170 0eb4 7D4B     		ldr	r3, .L99+4
 2171 0eb6 9A42     		cmp	r2, r3
 2172 0eb8 13D0     		beq	.L87
 2173              		.loc 1 595 0 is_stmt 0 discriminator 1
 2174 0eba 7A68     		ldr	r2, [r7, #4]
 2175 0ebc 7C4B     		ldr	r3, .L99+8
 2176 0ebe 9A42     		cmp	r2, r3
 2177 0ec0 0FD0     		beq	.L87
 2178 0ec2 7B68     		ldr	r3, [r7, #4]
 2179 0ec4 B3F1804F 		cmp	r3, #1073741824
 2180 0ec8 0BD0     		beq	.L87
 2181 0eca 7A68     		ldr	r2, [r7, #4]
 2182 0ecc 794B     		ldr	r3, .L99+12
 2183 0ece 9A42     		cmp	r2, r3
 2184 0ed0 07D0     		beq	.L87
 2185 0ed2 7A68     		ldr	r2, [r7, #4]
 2186 0ed4 784B     		ldr	r3, .L99+16
 2187 0ed6 9A42     		cmp	r2, r3
 2188 0ed8 03D0     		beq	.L87
 596:../SPL/src/stm32f10x_tim.c ****      (TIMx == TIM4) ||(TIMx == TIM5))
 2189              		.loc 1 596 0 is_stmt 1
 2190 0eda 7A68     		ldr	r2, [r7, #4]
 2191 0edc 774B     		ldr	r3, .L99+20
 2192 0ede 9A42     		cmp	r2, r3
 2193 0ee0 0DD1     		bne	.L88
 2194              	.L87:
 597:../SPL/src/stm32f10x_tim.c ****   {
 598:../SPL/src/stm32f10x_tim.c ****     assert_param(IS_TIM_IC_POLARITY(TIM_ICInitStruct->TIM_ICPolarity));
 2195              		.loc 1 598 0
 2196 0ee2 3B68     		ldr	r3, [r7, #0]
 2197 0ee4 5B88     		ldrh	r3, [r3, #2]
 2198 0ee6 002B     		cmp	r3, #0
 2199 0ee8 1AD0     		beq	.L90
 2200              		.loc 1 598 0 is_stmt 0 discriminator 1
 2201 0eea 3B68     		ldr	r3, [r7, #0]
 2202 0eec 5B88     		ldrh	r3, [r3, #2]
 2203 0eee 022B     		cmp	r3, #2
 2204 0ef0 16D0     		beq	.L90
 2205              		.loc 1 598 0 discriminator 3
 2206 0ef2 6D48     		ldr	r0, .L99
 2207 0ef4 40F25621 		movw	r1, #598
 2208 0ef8 FFF7FEFF 		bl	assert_failed
 2209 0efc 10E0     		b	.L90
 2210              	.L88:
 599:../SPL/src/stm32f10x_tim.c ****   }
 600:../SPL/src/stm32f10x_tim.c ****   else
 601:../SPL/src/stm32f10x_tim.c ****   {
 602:../SPL/src/stm32f10x_tim.c ****     assert_param(IS_TIM_IC_POLARITY_LITE(TIM_ICInitStruct->TIM_ICPolarity));
 2211              		.loc 1 602 0 is_stmt 1
 2212 0efe 3B68     		ldr	r3, [r7, #0]
 2213 0f00 5B88     		ldrh	r3, [r3, #2]
 2214 0f02 002B     		cmp	r3, #0
 2215 0f04 0CD0     		beq	.L90
 2216              		.loc 1 602 0 is_stmt 0 discriminator 1
 2217 0f06 3B68     		ldr	r3, [r7, #0]
 2218 0f08 5B88     		ldrh	r3, [r3, #2]
 2219 0f0a 022B     		cmp	r3, #2
 2220 0f0c 08D0     		beq	.L90
 2221              		.loc 1 602 0 discriminator 2
 2222 0f0e 3B68     		ldr	r3, [r7, #0]
 2223 0f10 5B88     		ldrh	r3, [r3, #2]
 2224 0f12 0A2B     		cmp	r3, #10
 2225 0f14 04D0     		beq	.L90
 2226              		.loc 1 602 0 discriminator 3
 2227 0f16 6448     		ldr	r0, .L99
 2228 0f18 40F25A21 		movw	r1, #602
 2229 0f1c FFF7FEFF 		bl	assert_failed
 2230              	.L90:
 603:../SPL/src/stm32f10x_tim.c ****   }
 604:../SPL/src/stm32f10x_tim.c ****   if (TIM_ICInitStruct->TIM_Channel == TIM_Channel_1)
 2231              		.loc 1 604 0 is_stmt 1
 2232 0f20 3B68     		ldr	r3, [r7, #0]
 2233 0f22 1B88     		ldrh	r3, [r3, #0]
 2234 0f24 002B     		cmp	r3, #0
 2235 0f26 50D1     		bne	.L91
 605:../SPL/src/stm32f10x_tim.c ****   {
 606:../SPL/src/stm32f10x_tim.c ****     assert_param(IS_TIM_LIST8_PERIPH(TIMx));
 2236              		.loc 1 606 0
 2237 0f28 7A68     		ldr	r2, [r7, #4]
 2238 0f2a 604B     		ldr	r3, .L99+4
 2239 0f2c 9A42     		cmp	r2, r3
 2240 0f2e 3CD0     		beq	.L92
 2241              		.loc 1 606 0 is_stmt 0 discriminator 1
 2242 0f30 7B68     		ldr	r3, [r7, #4]
 2243 0f32 B3F1804F 		cmp	r3, #1073741824
 2244 0f36 38D0     		beq	.L92
 2245              		.loc 1 606 0 discriminator 2
 2246 0f38 7A68     		ldr	r2, [r7, #4]
 2247 0f3a 5E4B     		ldr	r3, .L99+12
 2248 0f3c 9A42     		cmp	r2, r3
 2249 0f3e 34D0     		beq	.L92
 2250              		.loc 1 606 0 discriminator 3
 2251 0f40 7A68     		ldr	r2, [r7, #4]
 2252 0f42 5D4B     		ldr	r3, .L99+16
 2253 0f44 9A42     		cmp	r2, r3
 2254 0f46 30D0     		beq	.L92
 2255              		.loc 1 606 0 discriminator 4
 2256 0f48 7A68     		ldr	r2, [r7, #4]
 2257 0f4a 5C4B     		ldr	r3, .L99+20
 2258 0f4c 9A42     		cmp	r2, r3
 2259 0f4e 2CD0     		beq	.L92
 2260              		.loc 1 606 0 discriminator 5
 2261 0f50 7A68     		ldr	r2, [r7, #4]
 2262 0f52 574B     		ldr	r3, .L99+8
 2263 0f54 9A42     		cmp	r2, r3
 2264 0f56 28D0     		beq	.L92
 2265              		.loc 1 606 0 discriminator 6
 2266 0f58 7A68     		ldr	r2, [r7, #4]
 2267 0f5a 594B     		ldr	r3, .L99+24
 2268 0f5c 9A42     		cmp	r2, r3
 2269 0f5e 24D0     		beq	.L92
 2270              		.loc 1 606 0 discriminator 7
 2271 0f60 7A68     		ldr	r2, [r7, #4]
 2272 0f62 584B     		ldr	r3, .L99+28
 2273 0f64 9A42     		cmp	r2, r3
 2274 0f66 20D0     		beq	.L92
 2275              		.loc 1 606 0 discriminator 8
 2276 0f68 7A68     		ldr	r2, [r7, #4]
 2277 0f6a 574B     		ldr	r3, .L99+32
 2278 0f6c 9A42     		cmp	r2, r3
 2279 0f6e 1CD0     		beq	.L92
 2280              		.loc 1 606 0 discriminator 9
 2281 0f70 7A68     		ldr	r2, [r7, #4]
 2282 0f72 564B     		ldr	r3, .L99+36
 2283 0f74 9A42     		cmp	r2, r3
 2284 0f76 18D0     		beq	.L92
 2285              		.loc 1 606 0 discriminator 10
 2286 0f78 7A68     		ldr	r2, [r7, #4]
 2287 0f7a 554B     		ldr	r3, .L99+40
 2288 0f7c 9A42     		cmp	r2, r3
 2289 0f7e 14D0     		beq	.L92
 2290              		.loc 1 606 0 discriminator 11
 2291 0f80 7A68     		ldr	r2, [r7, #4]
 2292 0f82 544B     		ldr	r3, .L99+44
 2293 0f84 9A42     		cmp	r2, r3
 2294 0f86 10D0     		beq	.L92
 2295              		.loc 1 606 0 discriminator 12
 2296 0f88 7A68     		ldr	r2, [r7, #4]
 2297 0f8a 534B     		ldr	r3, .L99+48
 2298 0f8c 9A42     		cmp	r2, r3
 2299 0f8e 0CD0     		beq	.L92
 2300              		.loc 1 606 0 discriminator 13
 2301 0f90 7A68     		ldr	r2, [r7, #4]
 2302 0f92 524B     		ldr	r3, .L99+52
 2303 0f94 9A42     		cmp	r2, r3
 2304 0f96 08D0     		beq	.L92
 2305              		.loc 1 606 0 discriminator 14
 2306 0f98 7A68     		ldr	r2, [r7, #4]
 2307 0f9a 514B     		ldr	r3, .L99+56
 2308 0f9c 9A42     		cmp	r2, r3
 2309 0f9e 04D0     		beq	.L92
 2310              		.loc 1 606 0 discriminator 15
 2311 0fa0 4148     		ldr	r0, .L99
 2312 0fa2 40F25E21 		movw	r1, #606
 2313 0fa6 FFF7FEFF 		bl	assert_failed
 2314              	.L92:
 607:../SPL/src/stm32f10x_tim.c ****     /* TI1 Configuration */
 608:../SPL/src/stm32f10x_tim.c ****     TI1_Config(TIMx, TIM_ICInitStruct->TIM_ICPolarity,
 2315              		.loc 1 608 0 is_stmt 1
 2316 0faa 3B68     		ldr	r3, [r7, #0]
 2317 0fac 5988     		ldrh	r1, [r3, #2]
 609:../SPL/src/stm32f10x_tim.c ****                TIM_ICInitStruct->TIM_ICSelection,
 2318              		.loc 1 609 0
 2319 0fae 3B68     		ldr	r3, [r7, #0]
 608:../SPL/src/stm32f10x_tim.c ****     TI1_Config(TIMx, TIM_ICInitStruct->TIM_ICPolarity,
 2320              		.loc 1 608 0
 2321 0fb0 9A88     		ldrh	r2, [r3, #4]
 610:../SPL/src/stm32f10x_tim.c ****                TIM_ICInitStruct->TIM_ICFilter);
 2322              		.loc 1 610 0
 2323 0fb2 3B68     		ldr	r3, [r7, #0]
 608:../SPL/src/stm32f10x_tim.c ****     TI1_Config(TIMx, TIM_ICInitStruct->TIM_ICPolarity,
 2324              		.loc 1 608 0
 2325 0fb4 1B89     		ldrh	r3, [r3, #8]
 2326 0fb6 7868     		ldr	r0, [r7, #4]
 2327 0fb8 04F09AFA 		bl	TI1_Config
 611:../SPL/src/stm32f10x_tim.c ****     /* Set the Input Capture Prescaler value */
 612:../SPL/src/stm32f10x_tim.c ****     TIM_SetIC1Prescaler(TIMx, TIM_ICInitStruct->TIM_ICPrescaler);
 2328              		.loc 1 612 0
 2329 0fbc 3B68     		ldr	r3, [r7, #0]
 2330 0fbe DB88     		ldrh	r3, [r3, #6]
 2331 0fc0 7868     		ldr	r0, [r7, #4]
 2332 0fc2 1946     		mov	r1, r3
 2333 0fc4 FFF7FEFF 		bl	TIM_SetIC1Prescaler
 2334 0fc8 B8E0     		b	.L82
 2335              	.L91:
 613:../SPL/src/stm32f10x_tim.c ****   }
 614:../SPL/src/stm32f10x_tim.c ****   else if (TIM_ICInitStruct->TIM_Channel == TIM_Channel_2)
 2336              		.loc 1 614 0
 2337 0fca 3B68     		ldr	r3, [r7, #0]
 2338 0fcc 1B88     		ldrh	r3, [r3, #0]
 2339 0fce 042B     		cmp	r3, #4
 2340 0fd0 38D1     		bne	.L94
 615:../SPL/src/stm32f10x_tim.c ****   {
 616:../SPL/src/stm32f10x_tim.c ****     assert_param(IS_TIM_LIST6_PERIPH(TIMx));
 2341              		.loc 1 616 0
 2342 0fd2 7A68     		ldr	r2, [r7, #4]
 2343 0fd4 354B     		ldr	r3, .L99+4
 2344 0fd6 9A42     		cmp	r2, r3
 2345 0fd8 24D0     		beq	.L95
 2346              		.loc 1 616 0 is_stmt 0 discriminator 1
 2347 0fda 7B68     		ldr	r3, [r7, #4]
 2348 0fdc B3F1804F 		cmp	r3, #1073741824
 2349 0fe0 20D0     		beq	.L95
 2350              		.loc 1 616 0 discriminator 2
 2351 0fe2 7A68     		ldr	r2, [r7, #4]
 2352 0fe4 334B     		ldr	r3, .L99+12
 2353 0fe6 9A42     		cmp	r2, r3
 2354 0fe8 1CD0     		beq	.L95
 2355              		.loc 1 616 0 discriminator 3
 2356 0fea 7A68     		ldr	r2, [r7, #4]
 2357 0fec 324B     		ldr	r3, .L99+16
 2358 0fee 9A42     		cmp	r2, r3
 2359 0ff0 18D0     		beq	.L95
 2360              		.loc 1 616 0 discriminator 4
 2361 0ff2 7A68     		ldr	r2, [r7, #4]
 2362 0ff4 314B     		ldr	r3, .L99+20
 2363 0ff6 9A42     		cmp	r2, r3
 2364 0ff8 14D0     		beq	.L95
 2365              		.loc 1 616 0 discriminator 5
 2366 0ffa 7A68     		ldr	r2, [r7, #4]
 2367 0ffc 2C4B     		ldr	r3, .L99+8
 2368 0ffe 9A42     		cmp	r2, r3
 2369 1000 10D0     		beq	.L95
 2370              		.loc 1 616 0 discriminator 6
 2371 1002 7A68     		ldr	r2, [r7, #4]
 2372 1004 2E4B     		ldr	r3, .L99+24
 2373 1006 9A42     		cmp	r2, r3
 2374 1008 0CD0     		beq	.L95
 2375              		.loc 1 616 0 discriminator 7
 2376 100a 7A68     		ldr	r2, [r7, #4]
 2377 100c 2F4B     		ldr	r3, .L99+36
 2378 100e 9A42     		cmp	r2, r3
 2379 1010 08D0     		beq	.L95
 2380              		.loc 1 616 0 discriminator 8
 2381 1012 7A68     		ldr	r2, [r7, #4]
 2382 1014 304B     		ldr	r3, .L99+48
 2383 1016 9A42     		cmp	r2, r3
 2384 1018 04D0     		beq	.L95
 2385              		.loc 1 616 0 discriminator 9
 2386 101a 2348     		ldr	r0, .L99
 2387 101c 4FF41A71 		mov	r1, #616
 2388 1020 FFF7FEFF 		bl	assert_failed
 2389              	.L95:
 617:../SPL/src/stm32f10x_tim.c ****     /* TI2 Configuration */
 618:../SPL/src/stm32f10x_tim.c ****     TI2_Config(TIMx, TIM_ICInitStruct->TIM_ICPolarity,
 2390              		.loc 1 618 0 is_stmt 1
 2391 1024 3B68     		ldr	r3, [r7, #0]
 2392 1026 5988     		ldrh	r1, [r3, #2]
 619:../SPL/src/stm32f10x_tim.c ****                TIM_ICInitStruct->TIM_ICSelection,
 2393              		.loc 1 619 0
 2394 1028 3B68     		ldr	r3, [r7, #0]
 618:../SPL/src/stm32f10x_tim.c ****     TI2_Config(TIMx, TIM_ICInitStruct->TIM_ICPolarity,
 2395              		.loc 1 618 0
 2396 102a 9A88     		ldrh	r2, [r3, #4]
 620:../SPL/src/stm32f10x_tim.c ****                TIM_ICInitStruct->TIM_ICFilter);
 2397              		.loc 1 620 0
 2398 102c 3B68     		ldr	r3, [r7, #0]
 618:../SPL/src/stm32f10x_tim.c ****     TI2_Config(TIMx, TIM_ICInitStruct->TIM_ICPolarity,
 2399              		.loc 1 618 0
 2400 102e 1B89     		ldrh	r3, [r3, #8]
 2401 1030 7868     		ldr	r0, [r7, #4]
 2402 1032 04F0CBFA 		bl	TI2_Config
 621:../SPL/src/stm32f10x_tim.c ****     /* Set the Input Capture Prescaler value */
 622:../SPL/src/stm32f10x_tim.c ****     TIM_SetIC2Prescaler(TIMx, TIM_ICInitStruct->TIM_ICPrescaler);
 2403              		.loc 1 622 0
 2404 1036 3B68     		ldr	r3, [r7, #0]
 2405 1038 DB88     		ldrh	r3, [r3, #6]
 2406 103a 7868     		ldr	r0, [r7, #4]
 2407 103c 1946     		mov	r1, r3
 2408 103e FFF7FEFF 		bl	TIM_SetIC2Prescaler
 2409 1042 7BE0     		b	.L82
 2410              	.L94:
 623:../SPL/src/stm32f10x_tim.c ****   }
 624:../SPL/src/stm32f10x_tim.c ****   else if (TIM_ICInitStruct->TIM_Channel == TIM_Channel_3)
 2411              		.loc 1 624 0
 2412 1044 3B68     		ldr	r3, [r7, #0]
 2413 1046 1B88     		ldrh	r3, [r3, #0]
 2414 1048 082B     		cmp	r3, #8
 2415 104a 4BD1     		bne	.L96
 625:../SPL/src/stm32f10x_tim.c ****   {
 626:../SPL/src/stm32f10x_tim.c ****     assert_param(IS_TIM_LIST3_PERIPH(TIMx));
 2416              		.loc 1 626 0
 2417 104c 7A68     		ldr	r2, [r7, #4]
 2418 104e 174B     		ldr	r3, .L99+4
 2419 1050 9A42     		cmp	r2, r3
 2420 1052 18D0     		beq	.L97
 2421              		.loc 1 626 0 is_stmt 0 discriminator 1
 2422 1054 7B68     		ldr	r3, [r7, #4]
 2423 1056 B3F1804F 		cmp	r3, #1073741824
 2424 105a 14D0     		beq	.L97
 2425              		.loc 1 626 0 discriminator 2
 2426 105c 7A68     		ldr	r2, [r7, #4]
 2427 105e 154B     		ldr	r3, .L99+12
 2428 1060 9A42     		cmp	r2, r3
 2429 1062 10D0     		beq	.L97
 2430              		.loc 1 626 0 discriminator 3
 2431 1064 7A68     		ldr	r2, [r7, #4]
 2432 1066 144B     		ldr	r3, .L99+16
 2433 1068 9A42     		cmp	r2, r3
 2434 106a 0CD0     		beq	.L97
 2435              		.loc 1 626 0 discriminator 4
 2436 106c 7A68     		ldr	r2, [r7, #4]
 2437 106e 134B     		ldr	r3, .L99+20
 2438 1070 9A42     		cmp	r2, r3
 2439 1072 08D0     		beq	.L97
 2440              		.loc 1 626 0 discriminator 5
 2441 1074 7A68     		ldr	r2, [r7, #4]
 2442 1076 0E4B     		ldr	r3, .L99+8
 2443 1078 9A42     		cmp	r2, r3
 2444 107a 04D0     		beq	.L97
 2445              		.loc 1 626 0 discriminator 6
 2446 107c 0A48     		ldr	r0, .L99
 2447 107e 40F27221 		movw	r1, #626
 2448 1082 FFF7FEFF 		bl	assert_failed
 2449              	.L97:
 627:../SPL/src/stm32f10x_tim.c ****     /* TI3 Configuration */
 628:../SPL/src/stm32f10x_tim.c ****     TI3_Config(TIMx,  TIM_ICInitStruct->TIM_ICPolarity,
 2450              		.loc 1 628 0 is_stmt 1
 2451 1086 3B68     		ldr	r3, [r7, #0]
 2452 1088 5988     		ldrh	r1, [r3, #2]
 629:../SPL/src/stm32f10x_tim.c ****                TIM_ICInitStruct->TIM_ICSelection,
 2453              		.loc 1 629 0
 2454 108a 3B68     		ldr	r3, [r7, #0]
 628:../SPL/src/stm32f10x_tim.c ****     TI3_Config(TIMx,  TIM_ICInitStruct->TIM_ICPolarity,
 2455              		.loc 1 628 0
 2456 108c 9A88     		ldrh	r2, [r3, #4]
 630:../SPL/src/stm32f10x_tim.c ****                TIM_ICInitStruct->TIM_ICFilter);
 2457              		.loc 1 630 0
 2458 108e 3B68     		ldr	r3, [r7, #0]
 628:../SPL/src/stm32f10x_tim.c ****     TI3_Config(TIMx,  TIM_ICInitStruct->TIM_ICPolarity,
 2459              		.loc 1 628 0
 2460 1090 1B89     		ldrh	r3, [r3, #8]
 2461 1092 7868     		ldr	r0, [r7, #4]
 2462 1094 04F016FB 		bl	TI3_Config
 631:../SPL/src/stm32f10x_tim.c ****     /* Set the Input Capture Prescaler value */
 632:../SPL/src/stm32f10x_tim.c ****     TIM_SetIC3Prescaler(TIMx, TIM_ICInitStruct->TIM_ICPrescaler);
 2463              		.loc 1 632 0
 2464 1098 3B68     		ldr	r3, [r7, #0]
 2465 109a DB88     		ldrh	r3, [r3, #6]
 2466 109c 7868     		ldr	r0, [r7, #4]
 2467 109e 1946     		mov	r1, r3
 2468 10a0 FFF7FEFF 		bl	TIM_SetIC3Prescaler
 2469 10a4 4AE0     		b	.L82
 2470              	.L100:
 2471 10a6 00BF     		.align	2
 2472              	.L99:
 2473 10a8 00000000 		.word	.LC0
 2474 10ac 002C0140 		.word	1073818624
 2475 10b0 00340140 		.word	1073820672
 2476 10b4 00040040 		.word	1073742848
 2477 10b8 00080040 		.word	1073743872
 2478 10bc 000C0040 		.word	1073744896
 2479 10c0 004C0140 		.word	1073826816
 2480 10c4 00500140 		.word	1073827840
 2481 10c8 00540140 		.word	1073828864
 2482 10cc 00180040 		.word	1073747968
 2483 10d0 001C0040 		.word	1073748992
 2484 10d4 00200040 		.word	1073750016
 2485 10d8 00400140 		.word	1073823744
 2486 10dc 00440140 		.word	1073824768
 2487 10e0 00480140 		.word	1073825792
 2488              	.L96:
 633:../SPL/src/stm32f10x_tim.c ****   }
 634:../SPL/src/stm32f10x_tim.c ****   else
 635:../SPL/src/stm32f10x_tim.c ****   {
 636:../SPL/src/stm32f10x_tim.c ****     assert_param(IS_TIM_LIST3_PERIPH(TIMx));
 2489              		.loc 1 636 0
 2490 10e4 7A68     		ldr	r2, [r7, #4]
 2491 10e6 174B     		ldr	r3, .L101
 2492 10e8 9A42     		cmp	r2, r3
 2493 10ea 18D0     		beq	.L98
 2494              		.loc 1 636 0 is_stmt 0 discriminator 1
 2495 10ec 7B68     		ldr	r3, [r7, #4]
 2496 10ee B3F1804F 		cmp	r3, #1073741824
 2497 10f2 14D0     		beq	.L98
 2498              		.loc 1 636 0 discriminator 2
 2499 10f4 7A68     		ldr	r2, [r7, #4]
 2500 10f6 144B     		ldr	r3, .L101+4
 2501 10f8 9A42     		cmp	r2, r3
 2502 10fa 10D0     		beq	.L98
 2503              		.loc 1 636 0 discriminator 3
 2504 10fc 7A68     		ldr	r2, [r7, #4]
 2505 10fe 134B     		ldr	r3, .L101+8
 2506 1100 9A42     		cmp	r2, r3
 2507 1102 0CD0     		beq	.L98
 2508              		.loc 1 636 0 discriminator 4
 2509 1104 7A68     		ldr	r2, [r7, #4]
 2510 1106 124B     		ldr	r3, .L101+12
 2511 1108 9A42     		cmp	r2, r3
 2512 110a 08D0     		beq	.L98
 2513              		.loc 1 636 0 discriminator 5
 2514 110c 7A68     		ldr	r2, [r7, #4]
 2515 110e 114B     		ldr	r3, .L101+16
 2516 1110 9A42     		cmp	r2, r3
 2517 1112 04D0     		beq	.L98
 2518              		.loc 1 636 0 discriminator 6
 2519 1114 1048     		ldr	r0, .L101+20
 2520 1116 4FF41F71 		mov	r1, #636
 2521 111a FFF7FEFF 		bl	assert_failed
 2522              	.L98:
 637:../SPL/src/stm32f10x_tim.c ****     /* TI4 Configuration */
 638:../SPL/src/stm32f10x_tim.c ****     TI4_Config(TIMx, TIM_ICInitStruct->TIM_ICPolarity,
 2523              		.loc 1 638 0 is_stmt 1
 2524 111e 3B68     		ldr	r3, [r7, #0]
 2525 1120 5988     		ldrh	r1, [r3, #2]
 639:../SPL/src/stm32f10x_tim.c ****                TIM_ICInitStruct->TIM_ICSelection,
 2526              		.loc 1 639 0
 2527 1122 3B68     		ldr	r3, [r7, #0]
 638:../SPL/src/stm32f10x_tim.c ****     TI4_Config(TIMx, TIM_ICInitStruct->TIM_ICPolarity,
 2528              		.loc 1 638 0
 2529 1124 9A88     		ldrh	r2, [r3, #4]
 640:../SPL/src/stm32f10x_tim.c ****                TIM_ICInitStruct->TIM_ICFilter);
 2530              		.loc 1 640 0
 2531 1126 3B68     		ldr	r3, [r7, #0]
 638:../SPL/src/stm32f10x_tim.c ****     TI4_Config(TIMx, TIM_ICInitStruct->TIM_ICPolarity,
 2532              		.loc 1 638 0
 2533 1128 1B89     		ldrh	r3, [r3, #8]
 2534 112a 7868     		ldr	r0, [r7, #4]
 2535 112c 04F03EFB 		bl	TI4_Config
 641:../SPL/src/stm32f10x_tim.c ****     /* Set the Input Capture Prescaler value */
 642:../SPL/src/stm32f10x_tim.c ****     TIM_SetIC4Prescaler(TIMx, TIM_ICInitStruct->TIM_ICPrescaler);
 2536              		.loc 1 642 0
 2537 1130 3B68     		ldr	r3, [r7, #0]
 2538 1132 DB88     		ldrh	r3, [r3, #6]
 2539 1134 7868     		ldr	r0, [r7, #4]
 2540 1136 1946     		mov	r1, r3
 2541 1138 FFF7FEFF 		bl	TIM_SetIC4Prescaler
 2542              	.L82:
 643:../SPL/src/stm32f10x_tim.c ****   }
 644:../SPL/src/stm32f10x_tim.c **** }
 2543              		.loc 1 644 0
 2544 113c 07F10807 		add	r7, r7, #8
 2545 1140 BD46     		mov	sp, r7
 2546 1142 80BD     		pop	{r7, pc}
 2547              	.L102:
 2548              		.align	2
 2549              	.L101:
 2550 1144 002C0140 		.word	1073818624
 2551 1148 00040040 		.word	1073742848
 2552 114c 00080040 		.word	1073743872
 2553 1150 000C0040 		.word	1073744896
 2554 1154 00340140 		.word	1073820672
 2555 1158 00000000 		.word	.LC0
 2556              		.cfi_endproc
 2557              	.LFE35:
 2559              		.align	2
 2560              		.global	TIM_PWMIConfig
 2561              		.thumb
 2562              		.thumb_func
 2564              	TIM_PWMIConfig:
 2565              	.LFB36:
 645:../SPL/src/stm32f10x_tim.c **** 
 646:../SPL/src/stm32f10x_tim.c **** /**
 647:../SPL/src/stm32f10x_tim.c ****   * @brief  Configures the TIM peripheral according to the specified
 648:../SPL/src/stm32f10x_tim.c ****   *         parameters in the TIM_ICInitStruct to measure an external PWM signal.
 649:../SPL/src/stm32f10x_tim.c ****   * @param  TIMx: where x can be  1, 2, 3, 4, 5, 8, 9, 12 or 15 to select the TIM peripheral.
 650:../SPL/src/stm32f10x_tim.c ****   * @param  TIM_ICInitStruct: pointer to a TIM_ICInitTypeDef structure
 651:../SPL/src/stm32f10x_tim.c ****   *         that contains the configuration information for the specified TIM peripheral.
 652:../SPL/src/stm32f10x_tim.c ****   * @retval None
 653:../SPL/src/stm32f10x_tim.c ****   */
 654:../SPL/src/stm32f10x_tim.c **** void TIM_PWMIConfig(TIM_TypeDef* TIMx, TIM_ICInitTypeDef* TIM_ICInitStruct)
 655:../SPL/src/stm32f10x_tim.c **** {
 2566              		.loc 1 655 0
 2567              		.cfi_startproc
 2568              		@ args = 0, pretend = 0, frame = 16
 2569              		@ frame_needed = 1, uses_anonymous_args = 0
 2570 115c 80B5     		push	{r7, lr}
 2571              	.LCFI21:
 2572              		.cfi_def_cfa_offset 8
 2573              		.cfi_offset 7, -8
 2574              		.cfi_offset 14, -4
 2575 115e 84B0     		sub	sp, sp, #16
 2576              	.LCFI22:
 2577              		.cfi_def_cfa_offset 24
 2578 1160 00AF     		add	r7, sp, #0
 2579              	.LCFI23:
 2580              		.cfi_def_cfa_register 7
 2581 1162 7860     		str	r0, [r7, #4]
 2582 1164 3960     		str	r1, [r7, #0]
 656:../SPL/src/stm32f10x_tim.c ****   uint16_t icoppositepolarity = TIM_ICPolarity_Rising;
 2583              		.loc 1 656 0
 2584 1166 4FF00003 		mov	r3, #0
 2585 116a FB81     		strh	r3, [r7, #14]	@ movhi
 657:../SPL/src/stm32f10x_tim.c ****   uint16_t icoppositeselection = TIM_ICSelection_DirectTI;
 2586              		.loc 1 657 0
 2587 116c 4FF00103 		mov	r3, #1
 2588 1170 BB81     		strh	r3, [r7, #12]	@ movhi
 658:../SPL/src/stm32f10x_tim.c ****   /* Check the parameters */
 659:../SPL/src/stm32f10x_tim.c ****   assert_param(IS_TIM_LIST6_PERIPH(TIMx));
 2589              		.loc 1 659 0
 2590 1172 7A68     		ldr	r2, [r7, #4]
 2591 1174 3F4B     		ldr	r3, .L111
 2592 1176 9A42     		cmp	r2, r3
 2593 1178 24D0     		beq	.L104
 2594              		.loc 1 659 0 is_stmt 0 discriminator 1
 2595 117a 7B68     		ldr	r3, [r7, #4]
 2596 117c B3F1804F 		cmp	r3, #1073741824
 2597 1180 20D0     		beq	.L104
 2598              		.loc 1 659 0 discriminator 2
 2599 1182 7A68     		ldr	r2, [r7, #4]
 2600 1184 3C4B     		ldr	r3, .L111+4
 2601 1186 9A42     		cmp	r2, r3
 2602 1188 1CD0     		beq	.L104
 2603              		.loc 1 659 0 discriminator 3
 2604 118a 7A68     		ldr	r2, [r7, #4]
 2605 118c 3B4B     		ldr	r3, .L111+8
 2606 118e 9A42     		cmp	r2, r3
 2607 1190 18D0     		beq	.L104
 2608              		.loc 1 659 0 discriminator 4
 2609 1192 7A68     		ldr	r2, [r7, #4]
 2610 1194 3A4B     		ldr	r3, .L111+12
 2611 1196 9A42     		cmp	r2, r3
 2612 1198 14D0     		beq	.L104
 2613              		.loc 1 659 0 discriminator 5
 2614 119a 7A68     		ldr	r2, [r7, #4]
 2615 119c 394B     		ldr	r3, .L111+16
 2616 119e 9A42     		cmp	r2, r3
 2617 11a0 10D0     		beq	.L104
 2618              		.loc 1 659 0 discriminator 6
 2619 11a2 7A68     		ldr	r2, [r7, #4]
 2620 11a4 384B     		ldr	r3, .L111+20
 2621 11a6 9A42     		cmp	r2, r3
 2622 11a8 0CD0     		beq	.L104
 2623              		.loc 1 659 0 discriminator 7
 2624 11aa 7A68     		ldr	r2, [r7, #4]
 2625 11ac 374B     		ldr	r3, .L111+24
 2626 11ae 9A42     		cmp	r2, r3
 2627 11b0 08D0     		beq	.L104
 2628              		.loc 1 659 0 discriminator 8
 2629 11b2 7A68     		ldr	r2, [r7, #4]
 2630 11b4 364B     		ldr	r3, .L111+28
 2631 11b6 9A42     		cmp	r2, r3
 2632 11b8 04D0     		beq	.L104
 2633              		.loc 1 659 0 discriminator 9
 2634 11ba 3648     		ldr	r0, .L111+32
 2635 11bc 40F29321 		movw	r1, #659
 2636 11c0 FFF7FEFF 		bl	assert_failed
 2637              	.L104:
 660:../SPL/src/stm32f10x_tim.c ****   /* Select the Opposite Input Polarity */
 661:../SPL/src/stm32f10x_tim.c ****   if (TIM_ICInitStruct->TIM_ICPolarity == TIM_ICPolarity_Rising)
 2638              		.loc 1 661 0 is_stmt 1
 2639 11c4 3B68     		ldr	r3, [r7, #0]
 2640 11c6 5B88     		ldrh	r3, [r3, #2]
 2641 11c8 002B     		cmp	r3, #0
 2642 11ca 03D1     		bne	.L105
 662:../SPL/src/stm32f10x_tim.c ****   {
 663:../SPL/src/stm32f10x_tim.c ****     icoppositepolarity = TIM_ICPolarity_Falling;
 2643              		.loc 1 663 0
 2644 11cc 4FF00203 		mov	r3, #2
 2645 11d0 FB81     		strh	r3, [r7, #14]	@ movhi
 2646 11d2 02E0     		b	.L106
 2647              	.L105:
 664:../SPL/src/stm32f10x_tim.c ****   }
 665:../SPL/src/stm32f10x_tim.c ****   else
 666:../SPL/src/stm32f10x_tim.c ****   {
 667:../SPL/src/stm32f10x_tim.c ****     icoppositepolarity = TIM_ICPolarity_Rising;
 2648              		.loc 1 667 0
 2649 11d4 4FF00003 		mov	r3, #0
 2650 11d8 FB81     		strh	r3, [r7, #14]	@ movhi
 2651              	.L106:
 668:../SPL/src/stm32f10x_tim.c ****   }
 669:../SPL/src/stm32f10x_tim.c ****   /* Select the Opposite Input */
 670:../SPL/src/stm32f10x_tim.c ****   if (TIM_ICInitStruct->TIM_ICSelection == TIM_ICSelection_DirectTI)
 2652              		.loc 1 670 0
 2653 11da 3B68     		ldr	r3, [r7, #0]
 2654 11dc 9B88     		ldrh	r3, [r3, #4]
 2655 11de 012B     		cmp	r3, #1
 2656 11e0 03D1     		bne	.L107
 671:../SPL/src/stm32f10x_tim.c ****   {
 672:../SPL/src/stm32f10x_tim.c ****     icoppositeselection = TIM_ICSelection_IndirectTI;
 2657              		.loc 1 672 0
 2658 11e2 4FF00203 		mov	r3, #2
 2659 11e6 BB81     		strh	r3, [r7, #12]	@ movhi
 2660 11e8 02E0     		b	.L108
 2661              	.L107:
 673:../SPL/src/stm32f10x_tim.c ****   }
 674:../SPL/src/stm32f10x_tim.c ****   else
 675:../SPL/src/stm32f10x_tim.c ****   {
 676:../SPL/src/stm32f10x_tim.c ****     icoppositeselection = TIM_ICSelection_DirectTI;
 2662              		.loc 1 676 0
 2663 11ea 4FF00103 		mov	r3, #1
 2664 11ee BB81     		strh	r3, [r7, #12]	@ movhi
 2665              	.L108:
 677:../SPL/src/stm32f10x_tim.c ****   }
 678:../SPL/src/stm32f10x_tim.c ****   if (TIM_ICInitStruct->TIM_Channel == TIM_Channel_1)
 2666              		.loc 1 678 0
 2667 11f0 3B68     		ldr	r3, [r7, #0]
 2668 11f2 1B88     		ldrh	r3, [r3, #0]
 2669 11f4 002B     		cmp	r3, #0
 2670 11f6 1CD1     		bne	.L109
 679:../SPL/src/stm32f10x_tim.c ****   {
 680:../SPL/src/stm32f10x_tim.c ****     /* TI1 Configuration */
 681:../SPL/src/stm32f10x_tim.c ****     TI1_Config(TIMx, TIM_ICInitStruct->TIM_ICPolarity, TIM_ICInitStruct->TIM_ICSelection,
 2671              		.loc 1 681 0
 2672 11f8 3B68     		ldr	r3, [r7, #0]
 2673 11fa 5988     		ldrh	r1, [r3, #2]
 2674 11fc 3B68     		ldr	r3, [r7, #0]
 2675 11fe 9A88     		ldrh	r2, [r3, #4]
 682:../SPL/src/stm32f10x_tim.c ****                TIM_ICInitStruct->TIM_ICFilter);
 2676              		.loc 1 682 0
 2677 1200 3B68     		ldr	r3, [r7, #0]
 681:../SPL/src/stm32f10x_tim.c ****     TI1_Config(TIMx, TIM_ICInitStruct->TIM_ICPolarity, TIM_ICInitStruct->TIM_ICSelection,
 2678              		.loc 1 681 0
 2679 1202 1B89     		ldrh	r3, [r3, #8]
 2680 1204 7868     		ldr	r0, [r7, #4]
 2681 1206 04F073F9 		bl	TI1_Config
 683:../SPL/src/stm32f10x_tim.c ****     /* Set the Input Capture Prescaler value */
 684:../SPL/src/stm32f10x_tim.c ****     TIM_SetIC1Prescaler(TIMx, TIM_ICInitStruct->TIM_ICPrescaler);
 2682              		.loc 1 684 0
 2683 120a 3B68     		ldr	r3, [r7, #0]
 2684 120c DB88     		ldrh	r3, [r3, #6]
 2685 120e 7868     		ldr	r0, [r7, #4]
 2686 1210 1946     		mov	r1, r3
 2687 1212 FFF7FEFF 		bl	TIM_SetIC1Prescaler
 685:../SPL/src/stm32f10x_tim.c ****     /* TI2 Configuration */
 686:../SPL/src/stm32f10x_tim.c ****     TI2_Config(TIMx, icoppositepolarity, icoppositeselection, TIM_ICInitStruct->TIM_ICFilter);
 2688              		.loc 1 686 0
 2689 1216 3B68     		ldr	r3, [r7, #0]
 2690 1218 1B89     		ldrh	r3, [r3, #8]
 2691 121a F989     		ldrh	r1, [r7, #14]
 2692 121c BA89     		ldrh	r2, [r7, #12]
 2693 121e 7868     		ldr	r0, [r7, #4]
 2694 1220 04F0D4F9 		bl	TI2_Config
 687:../SPL/src/stm32f10x_tim.c ****     /* Set the Input Capture Prescaler value */
 688:../SPL/src/stm32f10x_tim.c ****     TIM_SetIC2Prescaler(TIMx, TIM_ICInitStruct->TIM_ICPrescaler);
 2695              		.loc 1 688 0
 2696 1224 3B68     		ldr	r3, [r7, #0]
 2697 1226 DB88     		ldrh	r3, [r3, #6]
 2698 1228 7868     		ldr	r0, [r7, #4]
 2699 122a 1946     		mov	r1, r3
 2700 122c FFF7FEFF 		bl	TIM_SetIC2Prescaler
 2701 1230 1BE0     		b	.L103
 2702              	.L109:
 689:../SPL/src/stm32f10x_tim.c ****   }
 690:../SPL/src/stm32f10x_tim.c ****   else
 691:../SPL/src/stm32f10x_tim.c ****   { 
 692:../SPL/src/stm32f10x_tim.c ****     /* TI2 Configuration */
 693:../SPL/src/stm32f10x_tim.c ****     TI2_Config(TIMx, TIM_ICInitStruct->TIM_ICPolarity, TIM_ICInitStruct->TIM_ICSelection,
 2703              		.loc 1 693 0
 2704 1232 3B68     		ldr	r3, [r7, #0]
 2705 1234 5988     		ldrh	r1, [r3, #2]
 2706 1236 3B68     		ldr	r3, [r7, #0]
 2707 1238 9A88     		ldrh	r2, [r3, #4]
 694:../SPL/src/stm32f10x_tim.c ****                TIM_ICInitStruct->TIM_ICFilter);
 2708              		.loc 1 694 0
 2709 123a 3B68     		ldr	r3, [r7, #0]
 693:../SPL/src/stm32f10x_tim.c ****     TI2_Config(TIMx, TIM_ICInitStruct->TIM_ICPolarity, TIM_ICInitStruct->TIM_ICSelection,
 2710              		.loc 1 693 0
 2711 123c 1B89     		ldrh	r3, [r3, #8]
 2712 123e 7868     		ldr	r0, [r7, #4]
 2713 1240 04F0C4F9 		bl	TI2_Config
 695:../SPL/src/stm32f10x_tim.c ****     /* Set the Input Capture Prescaler value */
 696:../SPL/src/stm32f10x_tim.c ****     TIM_SetIC2Prescaler(TIMx, TIM_ICInitStruct->TIM_ICPrescaler);
 2714              		.loc 1 696 0
 2715 1244 3B68     		ldr	r3, [r7, #0]
 2716 1246 DB88     		ldrh	r3, [r3, #6]
 2717 1248 7868     		ldr	r0, [r7, #4]
 2718 124a 1946     		mov	r1, r3
 2719 124c FFF7FEFF 		bl	TIM_SetIC2Prescaler
 697:../SPL/src/stm32f10x_tim.c ****     /* TI1 Configuration */
 698:../SPL/src/stm32f10x_tim.c ****     TI1_Config(TIMx, icoppositepolarity, icoppositeselection, TIM_ICInitStruct->TIM_ICFilter);
 2720              		.loc 1 698 0
 2721 1250 3B68     		ldr	r3, [r7, #0]
 2722 1252 1B89     		ldrh	r3, [r3, #8]
 2723 1254 F989     		ldrh	r1, [r7, #14]
 2724 1256 BA89     		ldrh	r2, [r7, #12]
 2725 1258 7868     		ldr	r0, [r7, #4]
 2726 125a 04F049F9 		bl	TI1_Config
 699:../SPL/src/stm32f10x_tim.c ****     /* Set the Input Capture Prescaler value */
 700:../SPL/src/stm32f10x_tim.c ****     TIM_SetIC1Prescaler(TIMx, TIM_ICInitStruct->TIM_ICPrescaler);
 2727              		.loc 1 700 0
 2728 125e 3B68     		ldr	r3, [r7, #0]
 2729 1260 DB88     		ldrh	r3, [r3, #6]
 2730 1262 7868     		ldr	r0, [r7, #4]
 2731 1264 1946     		mov	r1, r3
 2732 1266 FFF7FEFF 		bl	TIM_SetIC1Prescaler
 2733              	.L103:
 701:../SPL/src/stm32f10x_tim.c ****   }
 702:../SPL/src/stm32f10x_tim.c **** }
 2734              		.loc 1 702 0
 2735 126a 07F11007 		add	r7, r7, #16
 2736 126e BD46     		mov	sp, r7
 2737 1270 80BD     		pop	{r7, pc}
 2738              	.L112:
 2739 1272 00BF     		.align	2
 2740              	.L111:
 2741 1274 002C0140 		.word	1073818624
 2742 1278 00040040 		.word	1073742848
 2743 127c 00080040 		.word	1073743872
 2744 1280 000C0040 		.word	1073744896
 2745 1284 00340140 		.word	1073820672
 2746 1288 004C0140 		.word	1073826816
 2747 128c 00180040 		.word	1073747968
 2748 1290 00400140 		.word	1073823744
 2749 1294 00000000 		.word	.LC0
 2750              		.cfi_endproc
 2751              	.LFE36:
 2753              		.align	2
 2754              		.global	TIM_BDTRConfig
 2755              		.thumb
 2756              		.thumb_func
 2758              	TIM_BDTRConfig:
 2759              	.LFB37:
 703:../SPL/src/stm32f10x_tim.c **** 
 704:../SPL/src/stm32f10x_tim.c **** /**
 705:../SPL/src/stm32f10x_tim.c ****   * @brief  Configures the: Break feature, dead time, Lock level, the OSSI,
 706:../SPL/src/stm32f10x_tim.c ****   *         the OSSR State and the AOE(automatic output enable).
 707:../SPL/src/stm32f10x_tim.c ****   * @param  TIMx: where x can be  1 or 8 to select the TIM 
 708:../SPL/src/stm32f10x_tim.c ****   * @param  TIM_BDTRInitStruct: pointer to a TIM_BDTRInitTypeDef structure that
 709:../SPL/src/stm32f10x_tim.c ****   *         contains the BDTR Register configuration  information for the TIM peripheral.
 710:../SPL/src/stm32f10x_tim.c ****   * @retval None
 711:../SPL/src/stm32f10x_tim.c ****   */
 712:../SPL/src/stm32f10x_tim.c **** void TIM_BDTRConfig(TIM_TypeDef* TIMx, TIM_BDTRInitTypeDef *TIM_BDTRInitStruct)
 713:../SPL/src/stm32f10x_tim.c **** {
 2760              		.loc 1 713 0
 2761              		.cfi_startproc
 2762              		@ args = 0, pretend = 0, frame = 8
 2763              		@ frame_needed = 1, uses_anonymous_args = 0
 2764 1298 80B5     		push	{r7, lr}
 2765              	.LCFI24:
 2766              		.cfi_def_cfa_offset 8
 2767              		.cfi_offset 7, -8
 2768              		.cfi_offset 14, -4
 2769 129a 82B0     		sub	sp, sp, #8
 2770              	.LCFI25:
 2771              		.cfi_def_cfa_offset 16
 2772 129c 00AF     		add	r7, sp, #0
 2773              	.LCFI26:
 2774              		.cfi_def_cfa_register 7
 2775 129e 7860     		str	r0, [r7, #4]
 2776 12a0 3960     		str	r1, [r7, #0]
 714:../SPL/src/stm32f10x_tim.c ****   /* Check the parameters */
 715:../SPL/src/stm32f10x_tim.c ****   assert_param(IS_TIM_LIST2_PERIPH(TIMx));
 2777              		.loc 1 715 0
 2778 12a2 7A68     		ldr	r2, [r7, #4]
 2779 12a4 4B4B     		ldr	r3, .L121
 2780 12a6 9A42     		cmp	r2, r3
 2781 12a8 14D0     		beq	.L114
 2782              		.loc 1 715 0 is_stmt 0 discriminator 1
 2783 12aa 7A68     		ldr	r2, [r7, #4]
 2784 12ac 4A4B     		ldr	r3, .L121+4
 2785 12ae 9A42     		cmp	r2, r3
 2786 12b0 10D0     		beq	.L114
 2787              		.loc 1 715 0 discriminator 2
 2788 12b2 7A68     		ldr	r2, [r7, #4]
 2789 12b4 494B     		ldr	r3, .L121+8
 2790 12b6 9A42     		cmp	r2, r3
 2791 12b8 0CD0     		beq	.L114
 2792              		.loc 1 715 0 discriminator 3
 2793 12ba 7A68     		ldr	r2, [r7, #4]
 2794 12bc 484B     		ldr	r3, .L121+12
 2795 12be 9A42     		cmp	r2, r3
 2796 12c0 08D0     		beq	.L114
 2797              		.loc 1 715 0 discriminator 4
 2798 12c2 7A68     		ldr	r2, [r7, #4]
 2799 12c4 474B     		ldr	r3, .L121+16
 2800 12c6 9A42     		cmp	r2, r3
 2801 12c8 04D0     		beq	.L114
 2802              		.loc 1 715 0 discriminator 5
 2803 12ca 4748     		ldr	r0, .L121+20
 2804 12cc 40F2CB21 		movw	r1, #715
 2805 12d0 FFF7FEFF 		bl	assert_failed
 2806              	.L114:
 716:../SPL/src/stm32f10x_tim.c ****   assert_param(IS_TIM_OSSR_STATE(TIM_BDTRInitStruct->TIM_OSSRState));
 2807              		.loc 1 716 0 is_stmt 1
 2808 12d4 3B68     		ldr	r3, [r7, #0]
 2809 12d6 1B88     		ldrh	r3, [r3, #0]
 2810 12d8 B3F5006F 		cmp	r3, #2048
 2811 12dc 08D0     		beq	.L115
 2812              		.loc 1 716 0 is_stmt 0 discriminator 1
 2813 12de 3B68     		ldr	r3, [r7, #0]
 2814 12e0 1B88     		ldrh	r3, [r3, #0]
 2815 12e2 002B     		cmp	r3, #0
 2816 12e4 04D0     		beq	.L115
 2817              		.loc 1 716 0 discriminator 2
 2818 12e6 4048     		ldr	r0, .L121+20
 2819 12e8 4FF43371 		mov	r1, #716
 2820 12ec FFF7FEFF 		bl	assert_failed
 2821              	.L115:
 717:../SPL/src/stm32f10x_tim.c ****   assert_param(IS_TIM_OSSI_STATE(TIM_BDTRInitStruct->TIM_OSSIState));
 2822              		.loc 1 717 0 is_stmt 1
 2823 12f0 3B68     		ldr	r3, [r7, #0]
 2824 12f2 5B88     		ldrh	r3, [r3, #2]
 2825 12f4 B3F5806F 		cmp	r3, #1024
 2826 12f8 08D0     		beq	.L116
 2827              		.loc 1 717 0 is_stmt 0 discriminator 1
 2828 12fa 3B68     		ldr	r3, [r7, #0]
 2829 12fc 5B88     		ldrh	r3, [r3, #2]
 2830 12fe 002B     		cmp	r3, #0
 2831 1300 04D0     		beq	.L116
 2832              		.loc 1 717 0 discriminator 2
 2833 1302 3948     		ldr	r0, .L121+20
 2834 1304 40F2CD21 		movw	r1, #717
 2835 1308 FFF7FEFF 		bl	assert_failed
 2836              	.L116:
 718:../SPL/src/stm32f10x_tim.c ****   assert_param(IS_TIM_LOCK_LEVEL(TIM_BDTRInitStruct->TIM_LOCKLevel));
 2837              		.loc 1 718 0 is_stmt 1
 2838 130c 3B68     		ldr	r3, [r7, #0]
 2839 130e 9B88     		ldrh	r3, [r3, #4]
 2840 1310 002B     		cmp	r3, #0
 2841 1312 13D0     		beq	.L117
 2842              		.loc 1 718 0 is_stmt 0 discriminator 1
 2843 1314 3B68     		ldr	r3, [r7, #0]
 2844 1316 9B88     		ldrh	r3, [r3, #4]
 2845 1318 B3F5807F 		cmp	r3, #256
 2846 131c 0ED0     		beq	.L117
 2847              		.loc 1 718 0 discriminator 2
 2848 131e 3B68     		ldr	r3, [r7, #0]
 2849 1320 9B88     		ldrh	r3, [r3, #4]
 2850 1322 B3F5007F 		cmp	r3, #512
 2851 1326 09D0     		beq	.L117
 2852              		.loc 1 718 0 discriminator 3
 2853 1328 3B68     		ldr	r3, [r7, #0]
 2854 132a 9B88     		ldrh	r3, [r3, #4]
 2855 132c B3F5407F 		cmp	r3, #768
 2856 1330 04D0     		beq	.L117
 2857              		.loc 1 718 0 discriminator 4
 2858 1332 2D48     		ldr	r0, .L121+20
 2859 1334 40F2CE21 		movw	r1, #718
 2860 1338 FFF7FEFF 		bl	assert_failed
 2861              	.L117:
 719:../SPL/src/stm32f10x_tim.c ****   assert_param(IS_TIM_BREAK_STATE(TIM_BDTRInitStruct->TIM_Break));
 2862              		.loc 1 719 0 is_stmt 1
 2863 133c 3B68     		ldr	r3, [r7, #0]
 2864 133e 1B89     		ldrh	r3, [r3, #8]
 2865 1340 B3F5805F 		cmp	r3, #4096
 2866 1344 08D0     		beq	.L118
 2867              		.loc 1 719 0 is_stmt 0 discriminator 1
 2868 1346 3B68     		ldr	r3, [r7, #0]
 2869 1348 1B89     		ldrh	r3, [r3, #8]
 2870 134a 002B     		cmp	r3, #0
 2871 134c 04D0     		beq	.L118
 2872              		.loc 1 719 0 discriminator 2
 2873 134e 2648     		ldr	r0, .L121+20
 2874 1350 40F2CF21 		movw	r1, #719
 2875 1354 FFF7FEFF 		bl	assert_failed
 2876              	.L118:
 720:../SPL/src/stm32f10x_tim.c ****   assert_param(IS_TIM_BREAK_POLARITY(TIM_BDTRInitStruct->TIM_BreakPolarity));
 2877              		.loc 1 720 0 is_stmt 1
 2878 1358 3B68     		ldr	r3, [r7, #0]
 2879 135a 5B89     		ldrh	r3, [r3, #10]
 2880 135c 002B     		cmp	r3, #0
 2881 135e 09D0     		beq	.L119
 2882              		.loc 1 720 0 is_stmt 0 discriminator 1
 2883 1360 3B68     		ldr	r3, [r7, #0]
 2884 1362 5B89     		ldrh	r3, [r3, #10]
 2885 1364 B3F5005F 		cmp	r3, #8192
 2886 1368 04D0     		beq	.L119
 2887              		.loc 1 720 0 discriminator 2
 2888 136a 1F48     		ldr	r0, .L121+20
 2889 136c 4FF43471 		mov	r1, #720
 2890 1370 FFF7FEFF 		bl	assert_failed
 2891              	.L119:
 721:../SPL/src/stm32f10x_tim.c ****   assert_param(IS_TIM_AUTOMATIC_OUTPUT_STATE(TIM_BDTRInitStruct->TIM_AutomaticOutput));
 2892              		.loc 1 721 0 is_stmt 1
 2893 1374 3B68     		ldr	r3, [r7, #0]
 2894 1376 9B89     		ldrh	r3, [r3, #12]
 2895 1378 B3F5804F 		cmp	r3, #16384
 2896 137c 08D0     		beq	.L120
 2897              		.loc 1 721 0 is_stmt 0 discriminator 1
 2898 137e 3B68     		ldr	r3, [r7, #0]
 2899 1380 9B89     		ldrh	r3, [r3, #12]
 2900 1382 002B     		cmp	r3, #0
 2901 1384 04D0     		beq	.L120
 2902              		.loc 1 721 0 discriminator 2
 2903 1386 1848     		ldr	r0, .L121+20
 2904 1388 40F2D121 		movw	r1, #721
 2905 138c FFF7FEFF 		bl	assert_failed
 2906              	.L120:
 722:../SPL/src/stm32f10x_tim.c ****   /* Set the Lock level, the Break enable Bit and the Ploarity, the OSSR State,
 723:../SPL/src/stm32f10x_tim.c ****      the OSSI State, the dead time value and the Automatic Output Enable Bit */
 724:../SPL/src/stm32f10x_tim.c ****   TIMx->BDTR = (uint32_t)TIM_BDTRInitStruct->TIM_OSSRState | TIM_BDTRInitStruct->TIM_OSSIState |
 2907              		.loc 1 724 0 is_stmt 1
 2908 1390 3B68     		ldr	r3, [r7, #0]
 2909 1392 1A88     		ldrh	r2, [r3, #0]
 2910 1394 3B68     		ldr	r3, [r7, #0]
 2911 1396 5B88     		ldrh	r3, [r3, #2]
 2912 1398 1343     		orrs	r3, r3, r2
 2913 139a 9AB2     		uxth	r2, r3
 725:../SPL/src/stm32f10x_tim.c ****              TIM_BDTRInitStruct->TIM_LOCKLevel | TIM_BDTRInitStruct->TIM_DeadTime |
 2914              		.loc 1 725 0
 2915 139c 3B68     		ldr	r3, [r7, #0]
 2916 139e 9B88     		ldrh	r3, [r3, #4]
 724:../SPL/src/stm32f10x_tim.c ****   TIMx->BDTR = (uint32_t)TIM_BDTRInitStruct->TIM_OSSRState | TIM_BDTRInitStruct->TIM_OSSIState |
 2917              		.loc 1 724 0
 2918 13a0 1343     		orrs	r3, r3, r2
 2919 13a2 9AB2     		uxth	r2, r3
 2920              		.loc 1 725 0
 2921 13a4 3B68     		ldr	r3, [r7, #0]
 2922 13a6 DB88     		ldrh	r3, [r3, #6]
 724:../SPL/src/stm32f10x_tim.c ****   TIMx->BDTR = (uint32_t)TIM_BDTRInitStruct->TIM_OSSRState | TIM_BDTRInitStruct->TIM_OSSIState |
 2923              		.loc 1 724 0
 2924 13a8 1343     		orrs	r3, r3, r2
 2925 13aa 9AB2     		uxth	r2, r3
 726:../SPL/src/stm32f10x_tim.c ****              TIM_BDTRInitStruct->TIM_Break | TIM_BDTRInitStruct->TIM_BreakPolarity |
 2926              		.loc 1 726 0
 2927 13ac 3B68     		ldr	r3, [r7, #0]
 2928 13ae 1B89     		ldrh	r3, [r3, #8]
 724:../SPL/src/stm32f10x_tim.c ****   TIMx->BDTR = (uint32_t)TIM_BDTRInitStruct->TIM_OSSRState | TIM_BDTRInitStruct->TIM_OSSIState |
 2929              		.loc 1 724 0
 2930 13b0 1343     		orrs	r3, r3, r2
 2931 13b2 9AB2     		uxth	r2, r3
 2932              		.loc 1 726 0
 2933 13b4 3B68     		ldr	r3, [r7, #0]
 2934 13b6 5B89     		ldrh	r3, [r3, #10]
 724:../SPL/src/stm32f10x_tim.c ****   TIMx->BDTR = (uint32_t)TIM_BDTRInitStruct->TIM_OSSRState | TIM_BDTRInitStruct->TIM_OSSIState |
 2935              		.loc 1 724 0
 2936 13b8 1343     		orrs	r3, r3, r2
 2937 13ba 9AB2     		uxth	r2, r3
 727:../SPL/src/stm32f10x_tim.c ****              TIM_BDTRInitStruct->TIM_AutomaticOutput;
 2938              		.loc 1 727 0
 2939 13bc 3B68     		ldr	r3, [r7, #0]
 2940 13be 9B89     		ldrh	r3, [r3, #12]
 724:../SPL/src/stm32f10x_tim.c ****   TIMx->BDTR = (uint32_t)TIM_BDTRInitStruct->TIM_OSSRState | TIM_BDTRInitStruct->TIM_OSSIState |
 2941              		.loc 1 724 0
 2942 13c0 1343     		orrs	r3, r3, r2
 2943 13c2 9AB2     		uxth	r2, r3
 2944 13c4 7B68     		ldr	r3, [r7, #4]
 2945 13c6 A3F84420 		strh	r2, [r3, #68]	@ movhi
 728:../SPL/src/stm32f10x_tim.c **** }
 2946              		.loc 1 728 0
 2947 13ca 07F10807 		add	r7, r7, #8
 2948 13ce BD46     		mov	sp, r7
 2949 13d0 80BD     		pop	{r7, pc}
 2950              	.L122:
 2951 13d2 00BF     		.align	2
 2952              	.L121:
 2953 13d4 002C0140 		.word	1073818624
 2954 13d8 00340140 		.word	1073820672
 2955 13dc 00400140 		.word	1073823744
 2956 13e0 00440140 		.word	1073824768
 2957 13e4 00480140 		.word	1073825792
 2958 13e8 00000000 		.word	.LC0
 2959              		.cfi_endproc
 2960              	.LFE37:
 2962              		.align	2
 2963              		.global	TIM_TimeBaseStructInit
 2964              		.thumb
 2965              		.thumb_func
 2967              	TIM_TimeBaseStructInit:
 2968              	.LFB38:
 729:../SPL/src/stm32f10x_tim.c **** 
 730:../SPL/src/stm32f10x_tim.c **** /**
 731:../SPL/src/stm32f10x_tim.c ****   * @brief  Fills each TIM_TimeBaseInitStruct member with its default value.
 732:../SPL/src/stm32f10x_tim.c ****   * @param  TIM_TimeBaseInitStruct : pointer to a TIM_TimeBaseInitTypeDef
 733:../SPL/src/stm32f10x_tim.c ****   *         structure which will be initialized.
 734:../SPL/src/stm32f10x_tim.c ****   * @retval None
 735:../SPL/src/stm32f10x_tim.c ****   */
 736:../SPL/src/stm32f10x_tim.c **** void TIM_TimeBaseStructInit(TIM_TimeBaseInitTypeDef* TIM_TimeBaseInitStruct)
 737:../SPL/src/stm32f10x_tim.c **** {
 2969              		.loc 1 737 0
 2970              		.cfi_startproc
 2971              		@ args = 0, pretend = 0, frame = 8
 2972              		@ frame_needed = 1, uses_anonymous_args = 0
 2973              		@ link register save eliminated.
 2974 13ec 80B4     		push	{r7}
 2975              	.LCFI27:
 2976              		.cfi_def_cfa_offset 4
 2977              		.cfi_offset 7, -4
 2978 13ee 83B0     		sub	sp, sp, #12
 2979              	.LCFI28:
 2980              		.cfi_def_cfa_offset 16
 2981 13f0 00AF     		add	r7, sp, #0
 2982              	.LCFI29:
 2983              		.cfi_def_cfa_register 7
 2984 13f2 7860     		str	r0, [r7, #4]
 738:../SPL/src/stm32f10x_tim.c ****   /* Set the default configuration */
 739:../SPL/src/stm32f10x_tim.c ****   TIM_TimeBaseInitStruct->TIM_Period = 0xFFFF;
 2985              		.loc 1 739 0
 2986 13f4 7B68     		ldr	r3, [r7, #4]
 2987 13f6 4FF6FF72 		movw	r2, #65535
 2988 13fa 9A80     		strh	r2, [r3, #4]	@ movhi
 740:../SPL/src/stm32f10x_tim.c ****   TIM_TimeBaseInitStruct->TIM_Prescaler = 0x0000;
 2989              		.loc 1 740 0
 2990 13fc 7B68     		ldr	r3, [r7, #4]
 2991 13fe 4FF00002 		mov	r2, #0
 2992 1402 1A80     		strh	r2, [r3, #0]	@ movhi
 741:../SPL/src/stm32f10x_tim.c ****   TIM_TimeBaseInitStruct->TIM_ClockDivision = TIM_CKD_DIV1;
 2993              		.loc 1 741 0
 2994 1404 7B68     		ldr	r3, [r7, #4]
 2995 1406 4FF00002 		mov	r2, #0
 2996 140a DA80     		strh	r2, [r3, #6]	@ movhi
 742:../SPL/src/stm32f10x_tim.c ****   TIM_TimeBaseInitStruct->TIM_CounterMode = TIM_CounterMode_Up;
 2997              		.loc 1 742 0
 2998 140c 7B68     		ldr	r3, [r7, #4]
 2999 140e 4FF00002 		mov	r2, #0
 3000 1412 5A80     		strh	r2, [r3, #2]	@ movhi
 743:../SPL/src/stm32f10x_tim.c ****   TIM_TimeBaseInitStruct->TIM_RepetitionCounter = 0x0000;
 3001              		.loc 1 743 0
 3002 1414 7B68     		ldr	r3, [r7, #4]
 3003 1416 4FF00002 		mov	r2, #0
 3004 141a 1A72     		strb	r2, [r3, #8]
 744:../SPL/src/stm32f10x_tim.c **** }
 3005              		.loc 1 744 0
 3006 141c 07F10C07 		add	r7, r7, #12
 3007 1420 BD46     		mov	sp, r7
 3008 1422 80BC     		pop	{r7}
 3009 1424 7047     		bx	lr
 3010              		.cfi_endproc
 3011              	.LFE38:
 3013 1426 00BF     		.align	2
 3014              		.global	TIM_OCStructInit
 3015              		.thumb
 3016              		.thumb_func
 3018              	TIM_OCStructInit:
 3019              	.LFB39:
 745:../SPL/src/stm32f10x_tim.c **** 
 746:../SPL/src/stm32f10x_tim.c **** /**
 747:../SPL/src/stm32f10x_tim.c ****   * @brief  Fills each TIM_OCInitStruct member with its default value.
 748:../SPL/src/stm32f10x_tim.c ****   * @param  TIM_OCInitStruct : pointer to a TIM_OCInitTypeDef structure which will
 749:../SPL/src/stm32f10x_tim.c ****   *         be initialized.
 750:../SPL/src/stm32f10x_tim.c ****   * @retval None
 751:../SPL/src/stm32f10x_tim.c ****   */
 752:../SPL/src/stm32f10x_tim.c **** void TIM_OCStructInit(TIM_OCInitTypeDef* TIM_OCInitStruct)
 753:../SPL/src/stm32f10x_tim.c **** {
 3020              		.loc 1 753 0
 3021              		.cfi_startproc
 3022              		@ args = 0, pretend = 0, frame = 8
 3023              		@ frame_needed = 1, uses_anonymous_args = 0
 3024              		@ link register save eliminated.
 3025 1428 80B4     		push	{r7}
 3026              	.LCFI30:
 3027              		.cfi_def_cfa_offset 4
 3028              		.cfi_offset 7, -4
 3029 142a 83B0     		sub	sp, sp, #12
 3030              	.LCFI31:
 3031              		.cfi_def_cfa_offset 16
 3032 142c 00AF     		add	r7, sp, #0
 3033              	.LCFI32:
 3034              		.cfi_def_cfa_register 7
 3035 142e 7860     		str	r0, [r7, #4]
 754:../SPL/src/stm32f10x_tim.c ****   /* Set the default configuration */
 755:../SPL/src/stm32f10x_tim.c ****   TIM_OCInitStruct->TIM_OCMode = TIM_OCMode_Timing;
 3036              		.loc 1 755 0
 3037 1430 7B68     		ldr	r3, [r7, #4]
 3038 1432 4FF00002 		mov	r2, #0
 3039 1436 1A80     		strh	r2, [r3, #0]	@ movhi
 756:../SPL/src/stm32f10x_tim.c ****   TIM_OCInitStruct->TIM_OutputState = TIM_OutputState_Disable;
 3040              		.loc 1 756 0
 3041 1438 7B68     		ldr	r3, [r7, #4]
 3042 143a 4FF00002 		mov	r2, #0
 3043 143e 5A80     		strh	r2, [r3, #2]	@ movhi
 757:../SPL/src/stm32f10x_tim.c ****   TIM_OCInitStruct->TIM_OutputNState = TIM_OutputNState_Disable;
 3044              		.loc 1 757 0
 3045 1440 7B68     		ldr	r3, [r7, #4]
 3046 1442 4FF00002 		mov	r2, #0
 3047 1446 9A80     		strh	r2, [r3, #4]	@ movhi
 758:../SPL/src/stm32f10x_tim.c ****   TIM_OCInitStruct->TIM_Pulse = 0x0000;
 3048              		.loc 1 758 0
 3049 1448 7B68     		ldr	r3, [r7, #4]
 3050 144a 4FF00002 		mov	r2, #0
 3051 144e DA80     		strh	r2, [r3, #6]	@ movhi
 759:../SPL/src/stm32f10x_tim.c ****   TIM_OCInitStruct->TIM_OCPolarity = TIM_OCPolarity_High;
 3052              		.loc 1 759 0
 3053 1450 7B68     		ldr	r3, [r7, #4]
 3054 1452 4FF00002 		mov	r2, #0
 3055 1456 1A81     		strh	r2, [r3, #8]	@ movhi
 760:../SPL/src/stm32f10x_tim.c ****   TIM_OCInitStruct->TIM_OCNPolarity = TIM_OCPolarity_High;
 3056              		.loc 1 760 0
 3057 1458 7B68     		ldr	r3, [r7, #4]
 3058 145a 4FF00002 		mov	r2, #0
 3059 145e 5A81     		strh	r2, [r3, #10]	@ movhi
 761:../SPL/src/stm32f10x_tim.c ****   TIM_OCInitStruct->TIM_OCIdleState = TIM_OCIdleState_Reset;
 3060              		.loc 1 761 0
 3061 1460 7B68     		ldr	r3, [r7, #4]
 3062 1462 4FF00002 		mov	r2, #0
 3063 1466 9A81     		strh	r2, [r3, #12]	@ movhi
 762:../SPL/src/stm32f10x_tim.c ****   TIM_OCInitStruct->TIM_OCNIdleState = TIM_OCNIdleState_Reset;
 3064              		.loc 1 762 0
 3065 1468 7B68     		ldr	r3, [r7, #4]
 3066 146a 4FF00002 		mov	r2, #0
 3067 146e DA81     		strh	r2, [r3, #14]	@ movhi
 763:../SPL/src/stm32f10x_tim.c **** }
 3068              		.loc 1 763 0
 3069 1470 07F10C07 		add	r7, r7, #12
 3070 1474 BD46     		mov	sp, r7
 3071 1476 80BC     		pop	{r7}
 3072 1478 7047     		bx	lr
 3073              		.cfi_endproc
 3074              	.LFE39:
 3076 147a 00BF     		.align	2
 3077              		.global	TIM_ICStructInit
 3078              		.thumb
 3079              		.thumb_func
 3081              	TIM_ICStructInit:
 3082              	.LFB40:
 764:../SPL/src/stm32f10x_tim.c **** 
 765:../SPL/src/stm32f10x_tim.c **** /**
 766:../SPL/src/stm32f10x_tim.c ****   * @brief  Fills each TIM_ICInitStruct member with its default value.
 767:../SPL/src/stm32f10x_tim.c ****   * @param  TIM_ICInitStruct: pointer to a TIM_ICInitTypeDef structure which will
 768:../SPL/src/stm32f10x_tim.c ****   *         be initialized.
 769:../SPL/src/stm32f10x_tim.c ****   * @retval None
 770:../SPL/src/stm32f10x_tim.c ****   */
 771:../SPL/src/stm32f10x_tim.c **** void TIM_ICStructInit(TIM_ICInitTypeDef* TIM_ICInitStruct)
 772:../SPL/src/stm32f10x_tim.c **** {
 3083              		.loc 1 772 0
 3084              		.cfi_startproc
 3085              		@ args = 0, pretend = 0, frame = 8
 3086              		@ frame_needed = 1, uses_anonymous_args = 0
 3087              		@ link register save eliminated.
 3088 147c 80B4     		push	{r7}
 3089              	.LCFI33:
 3090              		.cfi_def_cfa_offset 4
 3091              		.cfi_offset 7, -4
 3092 147e 83B0     		sub	sp, sp, #12
 3093              	.LCFI34:
 3094              		.cfi_def_cfa_offset 16
 3095 1480 00AF     		add	r7, sp, #0
 3096              	.LCFI35:
 3097              		.cfi_def_cfa_register 7
 3098 1482 7860     		str	r0, [r7, #4]
 773:../SPL/src/stm32f10x_tim.c ****   /* Set the default configuration */
 774:../SPL/src/stm32f10x_tim.c ****   TIM_ICInitStruct->TIM_Channel = TIM_Channel_1;
 3099              		.loc 1 774 0
 3100 1484 7B68     		ldr	r3, [r7, #4]
 3101 1486 4FF00002 		mov	r2, #0
 3102 148a 1A80     		strh	r2, [r3, #0]	@ movhi
 775:../SPL/src/stm32f10x_tim.c ****   TIM_ICInitStruct->TIM_ICPolarity = TIM_ICPolarity_Rising;
 3103              		.loc 1 775 0
 3104 148c 7B68     		ldr	r3, [r7, #4]
 3105 148e 4FF00002 		mov	r2, #0
 3106 1492 5A80     		strh	r2, [r3, #2]	@ movhi
 776:../SPL/src/stm32f10x_tim.c ****   TIM_ICInitStruct->TIM_ICSelection = TIM_ICSelection_DirectTI;
 3107              		.loc 1 776 0
 3108 1494 7B68     		ldr	r3, [r7, #4]
 3109 1496 4FF00102 		mov	r2, #1
 3110 149a 9A80     		strh	r2, [r3, #4]	@ movhi
 777:../SPL/src/stm32f10x_tim.c ****   TIM_ICInitStruct->TIM_ICPrescaler = TIM_ICPSC_DIV1;
 3111              		.loc 1 777 0
 3112 149c 7B68     		ldr	r3, [r7, #4]
 3113 149e 4FF00002 		mov	r2, #0
 3114 14a2 DA80     		strh	r2, [r3, #6]	@ movhi
 778:../SPL/src/stm32f10x_tim.c ****   TIM_ICInitStruct->TIM_ICFilter = 0x00;
 3115              		.loc 1 778 0
 3116 14a4 7B68     		ldr	r3, [r7, #4]
 3117 14a6 4FF00002 		mov	r2, #0
 3118 14aa 1A81     		strh	r2, [r3, #8]	@ movhi
 779:../SPL/src/stm32f10x_tim.c **** }
 3119              		.loc 1 779 0
 3120 14ac 07F10C07 		add	r7, r7, #12
 3121 14b0 BD46     		mov	sp, r7
 3122 14b2 80BC     		pop	{r7}
 3123 14b4 7047     		bx	lr
 3124              		.cfi_endproc
 3125              	.LFE40:
 3127 14b6 00BF     		.align	2
 3128              		.global	TIM_BDTRStructInit
 3129              		.thumb
 3130              		.thumb_func
 3132              	TIM_BDTRStructInit:
 3133              	.LFB41:
 780:../SPL/src/stm32f10x_tim.c **** 
 781:../SPL/src/stm32f10x_tim.c **** /**
 782:../SPL/src/stm32f10x_tim.c ****   * @brief  Fills each TIM_BDTRInitStruct member with its default value.
 783:../SPL/src/stm32f10x_tim.c ****   * @param  TIM_BDTRInitStruct: pointer to a TIM_BDTRInitTypeDef structure which
 784:../SPL/src/stm32f10x_tim.c ****   *         will be initialized.
 785:../SPL/src/stm32f10x_tim.c ****   * @retval None
 786:../SPL/src/stm32f10x_tim.c ****   */
 787:../SPL/src/stm32f10x_tim.c **** void TIM_BDTRStructInit(TIM_BDTRInitTypeDef* TIM_BDTRInitStruct)
 788:../SPL/src/stm32f10x_tim.c **** {
 3134              		.loc 1 788 0
 3135              		.cfi_startproc
 3136              		@ args = 0, pretend = 0, frame = 8
 3137              		@ frame_needed = 1, uses_anonymous_args = 0
 3138              		@ link register save eliminated.
 3139 14b8 80B4     		push	{r7}
 3140              	.LCFI36:
 3141              		.cfi_def_cfa_offset 4
 3142              		.cfi_offset 7, -4
 3143 14ba 83B0     		sub	sp, sp, #12
 3144              	.LCFI37:
 3145              		.cfi_def_cfa_offset 16
 3146 14bc 00AF     		add	r7, sp, #0
 3147              	.LCFI38:
 3148              		.cfi_def_cfa_register 7
 3149 14be 7860     		str	r0, [r7, #4]
 789:../SPL/src/stm32f10x_tim.c ****   /* Set the default configuration */
 790:../SPL/src/stm32f10x_tim.c ****   TIM_BDTRInitStruct->TIM_OSSRState = TIM_OSSRState_Disable;
 3150              		.loc 1 790 0
 3151 14c0 7B68     		ldr	r3, [r7, #4]
 3152 14c2 4FF00002 		mov	r2, #0
 3153 14c6 1A80     		strh	r2, [r3, #0]	@ movhi
 791:../SPL/src/stm32f10x_tim.c ****   TIM_BDTRInitStruct->TIM_OSSIState = TIM_OSSIState_Disable;
 3154              		.loc 1 791 0
 3155 14c8 7B68     		ldr	r3, [r7, #4]
 3156 14ca 4FF00002 		mov	r2, #0
 3157 14ce 5A80     		strh	r2, [r3, #2]	@ movhi
 792:../SPL/src/stm32f10x_tim.c ****   TIM_BDTRInitStruct->TIM_LOCKLevel = TIM_LOCKLevel_OFF;
 3158              		.loc 1 792 0
 3159 14d0 7B68     		ldr	r3, [r7, #4]
 3160 14d2 4FF00002 		mov	r2, #0
 3161 14d6 9A80     		strh	r2, [r3, #4]	@ movhi
 793:../SPL/src/stm32f10x_tim.c ****   TIM_BDTRInitStruct->TIM_DeadTime = 0x00;
 3162              		.loc 1 793 0
 3163 14d8 7B68     		ldr	r3, [r7, #4]
 3164 14da 4FF00002 		mov	r2, #0
 3165 14de DA80     		strh	r2, [r3, #6]	@ movhi
 794:../SPL/src/stm32f10x_tim.c ****   TIM_BDTRInitStruct->TIM_Break = TIM_Break_Disable;
 3166              		.loc 1 794 0
 3167 14e0 7B68     		ldr	r3, [r7, #4]
 3168 14e2 4FF00002 		mov	r2, #0
 3169 14e6 1A81     		strh	r2, [r3, #8]	@ movhi
 795:../SPL/src/stm32f10x_tim.c ****   TIM_BDTRInitStruct->TIM_BreakPolarity = TIM_BreakPolarity_Low;
 3170              		.loc 1 795 0
 3171 14e8 7B68     		ldr	r3, [r7, #4]
 3172 14ea 4FF00002 		mov	r2, #0
 3173 14ee 5A81     		strh	r2, [r3, #10]	@ movhi
 796:../SPL/src/stm32f10x_tim.c ****   TIM_BDTRInitStruct->TIM_AutomaticOutput = TIM_AutomaticOutput_Disable;
 3174              		.loc 1 796 0
 3175 14f0 7B68     		ldr	r3, [r7, #4]
 3176 14f2 4FF00002 		mov	r2, #0
 3177 14f6 9A81     		strh	r2, [r3, #12]	@ movhi
 797:../SPL/src/stm32f10x_tim.c **** }
 3178              		.loc 1 797 0
 3179 14f8 07F10C07 		add	r7, r7, #12
 3180 14fc BD46     		mov	sp, r7
 3181 14fe 80BC     		pop	{r7}
 3182 1500 7047     		bx	lr
 3183              		.cfi_endproc
 3184              	.LFE41:
 3186 1502 00BF     		.align	2
 3187              		.global	TIM_Cmd
 3188              		.thumb
 3189              		.thumb_func
 3191              	TIM_Cmd:
 3192              	.LFB42:
 798:../SPL/src/stm32f10x_tim.c **** 
 799:../SPL/src/stm32f10x_tim.c **** /**
 800:../SPL/src/stm32f10x_tim.c ****   * @brief  Enables or disables the specified TIM peripheral.
 801:../SPL/src/stm32f10x_tim.c ****   * @param  TIMx: where x can be 1 to 17 to select the TIMx peripheral.
 802:../SPL/src/stm32f10x_tim.c ****   * @param  NewState: new state of the TIMx peripheral.
 803:../SPL/src/stm32f10x_tim.c ****   *   This parameter can be: ENABLE or DISABLE.
 804:../SPL/src/stm32f10x_tim.c ****   * @retval None
 805:../SPL/src/stm32f10x_tim.c ****   */
 806:../SPL/src/stm32f10x_tim.c **** void TIM_Cmd(TIM_TypeDef* TIMx, FunctionalState NewState)
 807:../SPL/src/stm32f10x_tim.c **** {
 3193              		.loc 1 807 0
 3194              		.cfi_startproc
 3195              		@ args = 0, pretend = 0, frame = 8
 3196              		@ frame_needed = 1, uses_anonymous_args = 0
 3197 1504 80B5     		push	{r7, lr}
 3198              	.LCFI39:
 3199              		.cfi_def_cfa_offset 8
 3200              		.cfi_offset 7, -8
 3201              		.cfi_offset 14, -4
 3202 1506 82B0     		sub	sp, sp, #8
 3203              	.LCFI40:
 3204              		.cfi_def_cfa_offset 16
 3205 1508 00AF     		add	r7, sp, #0
 3206              	.LCFI41:
 3207              		.cfi_def_cfa_register 7
 3208 150a 7860     		str	r0, [r7, #4]
 3209 150c 0B46     		mov	r3, r1
 3210 150e FB70     		strb	r3, [r7, #3]
 808:../SPL/src/stm32f10x_tim.c ****   /* Check the parameters */
 809:../SPL/src/stm32f10x_tim.c ****   assert_param(IS_TIM_ALL_PERIPH(TIMx));
 3211              		.loc 1 809 0
 3212 1510 7A68     		ldr	r2, [r7, #4]
 3213 1512 354B     		ldr	r3, .L132
 3214 1514 9A42     		cmp	r2, r3
 3215 1516 44D0     		beq	.L128
 3216              		.loc 1 809 0 is_stmt 0 discriminator 1
 3217 1518 7B68     		ldr	r3, [r7, #4]
 3218 151a B3F1804F 		cmp	r3, #1073741824
 3219 151e 40D0     		beq	.L128
 3220              		.loc 1 809 0 discriminator 2
 3221 1520 7A68     		ldr	r2, [r7, #4]
 3222 1522 324B     		ldr	r3, .L132+4
 3223 1524 9A42     		cmp	r2, r3
 3224 1526 3CD0     		beq	.L128
 3225              		.loc 1 809 0 discriminator 3
 3226 1528 7A68     		ldr	r2, [r7, #4]
 3227 152a 314B     		ldr	r3, .L132+8
 3228 152c 9A42     		cmp	r2, r3
 3229 152e 38D0     		beq	.L128
 3230              		.loc 1 809 0 discriminator 4
 3231 1530 7A68     		ldr	r2, [r7, #4]
 3232 1532 304B     		ldr	r3, .L132+12
 3233 1534 9A42     		cmp	r2, r3
 3234 1536 34D0     		beq	.L128
 3235              		.loc 1 809 0 discriminator 5
 3236 1538 7A68     		ldr	r2, [r7, #4]
 3237 153a 2F4B     		ldr	r3, .L132+16
 3238 153c 9A42     		cmp	r2, r3
 3239 153e 30D0     		beq	.L128
 3240              		.loc 1 809 0 discriminator 6
 3241 1540 7A68     		ldr	r2, [r7, #4]
 3242 1542 2E4B     		ldr	r3, .L132+20
 3243 1544 9A42     		cmp	r2, r3
 3244 1546 2CD0     		beq	.L128
 3245              		.loc 1 809 0 discriminator 7
 3246 1548 7A68     		ldr	r2, [r7, #4]
 3247 154a 2D4B     		ldr	r3, .L132+24
 3248 154c 9A42     		cmp	r2, r3
 3249 154e 28D0     		beq	.L128
 3250              		.loc 1 809 0 discriminator 8
 3251 1550 7A68     		ldr	r2, [r7, #4]
 3252 1552 2C4B     		ldr	r3, .L132+28
 3253 1554 9A42     		cmp	r2, r3
 3254 1556 24D0     		beq	.L128
 3255              		.loc 1 809 0 discriminator 9
 3256 1558 7A68     		ldr	r2, [r7, #4]
 3257 155a 2B4B     		ldr	r3, .L132+32
 3258 155c 9A42     		cmp	r2, r3
 3259 155e 20D0     		beq	.L128
 3260              		.loc 1 809 0 discriminator 10
 3261 1560 7A68     		ldr	r2, [r7, #4]
 3262 1562 2A4B     		ldr	r3, .L132+36
 3263 1564 9A42     		cmp	r2, r3
 3264 1566 1CD0     		beq	.L128
 3265              		.loc 1 809 0 discriminator 11
 3266 1568 7A68     		ldr	r2, [r7, #4]
 3267 156a 294B     		ldr	r3, .L132+40
 3268 156c 9A42     		cmp	r2, r3
 3269 156e 18D0     		beq	.L128
 3270              		.loc 1 809 0 discriminator 12
 3271 1570 7A68     		ldr	r2, [r7, #4]
 3272 1572 284B     		ldr	r3, .L132+44
 3273 1574 9A42     		cmp	r2, r3
 3274 1576 14D0     		beq	.L128
 3275              		.loc 1 809 0 discriminator 13
 3276 1578 7A68     		ldr	r2, [r7, #4]
 3277 157a 274B     		ldr	r3, .L132+48
 3278 157c 9A42     		cmp	r2, r3
 3279 157e 10D0     		beq	.L128
 3280              		.loc 1 809 0 discriminator 14
 3281 1580 7A68     		ldr	r2, [r7, #4]
 3282 1582 264B     		ldr	r3, .L132+52
 3283 1584 9A42     		cmp	r2, r3
 3284 1586 0CD0     		beq	.L128
 3285              		.loc 1 809 0 discriminator 15
 3286 1588 7A68     		ldr	r2, [r7, #4]
 3287 158a 254B     		ldr	r3, .L132+56
 3288 158c 9A42     		cmp	r2, r3
 3289 158e 08D0     		beq	.L128
 3290              		.loc 1 809 0 discriminator 16
 3291 1590 7A68     		ldr	r2, [r7, #4]
 3292 1592 244B     		ldr	r3, .L132+60
 3293 1594 9A42     		cmp	r2, r3
 3294 1596 04D0     		beq	.L128
 3295              		.loc 1 809 0 discriminator 17
 3296 1598 2348     		ldr	r0, .L132+64
 3297 159a 40F22931 		movw	r1, #809
 3298 159e FFF7FEFF 		bl	assert_failed
 3299              	.L128:
 810:../SPL/src/stm32f10x_tim.c ****   assert_param(IS_FUNCTIONAL_STATE(NewState));
 3300              		.loc 1 810 0 is_stmt 1
 3301 15a2 FB78     		ldrb	r3, [r7, #3]	@ zero_extendqisi2
 3302 15a4 002B     		cmp	r3, #0
 3303 15a6 07D0     		beq	.L129
 3304              		.loc 1 810 0 is_stmt 0 discriminator 1
 3305 15a8 FB78     		ldrb	r3, [r7, #3]	@ zero_extendqisi2
 3306 15aa 012B     		cmp	r3, #1
 3307 15ac 04D0     		beq	.L129
 3308              		.loc 1 810 0 discriminator 2
 3309 15ae 1E48     		ldr	r0, .L132+64
 3310 15b0 40F22A31 		movw	r1, #810
 3311 15b4 FFF7FEFF 		bl	assert_failed
 3312              	.L129:
 811:../SPL/src/stm32f10x_tim.c ****   
 812:../SPL/src/stm32f10x_tim.c ****   if (NewState != DISABLE)
 3313              		.loc 1 812 0 is_stmt 1
 3314 15b8 FB78     		ldrb	r3, [r7, #3]	@ zero_extendqisi2
 3315 15ba 002B     		cmp	r3, #0
 3316 15bc 08D0     		beq	.L130
 813:../SPL/src/stm32f10x_tim.c ****   {
 814:../SPL/src/stm32f10x_tim.c ****     /* Enable the TIM Counter */
 815:../SPL/src/stm32f10x_tim.c ****     TIMx->CR1 |= TIM_CR1_CEN;
 3317              		.loc 1 815 0
 3318 15be 7B68     		ldr	r3, [r7, #4]
 3319 15c0 1B88     		ldrh	r3, [r3, #0]	@ movhi
 3320 15c2 9BB2     		uxth	r3, r3
 3321 15c4 43F00103 		orr	r3, r3, #1
 3322 15c8 9AB2     		uxth	r2, r3
 3323 15ca 7B68     		ldr	r3, [r7, #4]
 3324 15cc 1A80     		strh	r2, [r3, #0]	@ movhi
 3325 15ce 07E0     		b	.L127
 3326              	.L130:
 816:../SPL/src/stm32f10x_tim.c ****   }
 817:../SPL/src/stm32f10x_tim.c ****   else
 818:../SPL/src/stm32f10x_tim.c ****   {
 819:../SPL/src/stm32f10x_tim.c ****     /* Disable the TIM Counter */
 820:../SPL/src/stm32f10x_tim.c ****     TIMx->CR1 &= (uint16_t)(~((uint16_t)TIM_CR1_CEN));
 3327              		.loc 1 820 0
 3328 15d0 7B68     		ldr	r3, [r7, #4]
 3329 15d2 1B88     		ldrh	r3, [r3, #0]	@ movhi
 3330 15d4 9BB2     		uxth	r3, r3
 3331 15d6 23F00103 		bic	r3, r3, #1
 3332 15da 9AB2     		uxth	r2, r3
 3333 15dc 7B68     		ldr	r3, [r7, #4]
 3334 15de 1A80     		strh	r2, [r3, #0]	@ movhi
 3335              	.L127:
 821:../SPL/src/stm32f10x_tim.c ****   }
 822:../SPL/src/stm32f10x_tim.c **** }
 3336              		.loc 1 822 0
 3337 15e0 07F10807 		add	r7, r7, #8
 3338 15e4 BD46     		mov	sp, r7
 3339 15e6 80BD     		pop	{r7, pc}
 3340              	.L133:
 3341              		.align	2
 3342              	.L132:
 3343 15e8 002C0140 		.word	1073818624
 3344 15ec 00040040 		.word	1073742848
 3345 15f0 00080040 		.word	1073743872
 3346 15f4 000C0040 		.word	1073744896
 3347 15f8 00100040 		.word	1073745920
 3348 15fc 00140040 		.word	1073746944
 3349 1600 00340140 		.word	1073820672
 3350 1604 004C0140 		.word	1073826816
 3351 1608 00500140 		.word	1073827840
 3352 160c 00540140 		.word	1073828864
 3353 1610 00180040 		.word	1073747968
 3354 1614 001C0040 		.word	1073748992
 3355 1618 00200040 		.word	1073750016
 3356 161c 00400140 		.word	1073823744
 3357 1620 00440140 		.word	1073824768
 3358 1624 00480140 		.word	1073825792
 3359 1628 00000000 		.word	.LC0
 3360              		.cfi_endproc
 3361              	.LFE42:
 3363              		.align	2
 3364              		.global	TIM_CtrlPWMOutputs
 3365              		.thumb
 3366              		.thumb_func
 3368              	TIM_CtrlPWMOutputs:
 3369              	.LFB43:
 823:../SPL/src/stm32f10x_tim.c **** 
 824:../SPL/src/stm32f10x_tim.c **** /**
 825:../SPL/src/stm32f10x_tim.c ****   * @brief  Enables or disables the TIM peripheral Main Outputs.
 826:../SPL/src/stm32f10x_tim.c ****   * @param  TIMx: where x can be 1, 8, 15, 16 or 17 to select the TIMx peripheral.
 827:../SPL/src/stm32f10x_tim.c ****   * @param  NewState: new state of the TIM peripheral Main Outputs.
 828:../SPL/src/stm32f10x_tim.c ****   *   This parameter can be: ENABLE or DISABLE.
 829:../SPL/src/stm32f10x_tim.c ****   * @retval None
 830:../SPL/src/stm32f10x_tim.c ****   */
 831:../SPL/src/stm32f10x_tim.c **** void TIM_CtrlPWMOutputs(TIM_TypeDef* TIMx, FunctionalState NewState)
 832:../SPL/src/stm32f10x_tim.c **** {
 3370              		.loc 1 832 0
 3371              		.cfi_startproc
 3372              		@ args = 0, pretend = 0, frame = 8
 3373              		@ frame_needed = 1, uses_anonymous_args = 0
 3374 162c 80B5     		push	{r7, lr}
 3375              	.LCFI42:
 3376              		.cfi_def_cfa_offset 8
 3377              		.cfi_offset 7, -8
 3378              		.cfi_offset 14, -4
 3379 162e 82B0     		sub	sp, sp, #8
 3380              	.LCFI43:
 3381              		.cfi_def_cfa_offset 16
 3382 1630 00AF     		add	r7, sp, #0
 3383              	.LCFI44:
 3384              		.cfi_def_cfa_register 7
 3385 1632 7860     		str	r0, [r7, #4]
 3386 1634 0B46     		mov	r3, r1
 3387 1636 FB70     		strb	r3, [r7, #3]
 833:../SPL/src/stm32f10x_tim.c ****   /* Check the parameters */
 834:../SPL/src/stm32f10x_tim.c ****   assert_param(IS_TIM_LIST2_PERIPH(TIMx));
 3388              		.loc 1 834 0
 3389 1638 7A68     		ldr	r2, [r7, #4]
 3390 163a 214B     		ldr	r3, .L139
 3391 163c 9A42     		cmp	r2, r3
 3392 163e 14D0     		beq	.L135
 3393              		.loc 1 834 0 is_stmt 0 discriminator 1
 3394 1640 7A68     		ldr	r2, [r7, #4]
 3395 1642 204B     		ldr	r3, .L139+4
 3396 1644 9A42     		cmp	r2, r3
 3397 1646 10D0     		beq	.L135
 3398              		.loc 1 834 0 discriminator 2
 3399 1648 7A68     		ldr	r2, [r7, #4]
 3400 164a 1F4B     		ldr	r3, .L139+8
 3401 164c 9A42     		cmp	r2, r3
 3402 164e 0CD0     		beq	.L135
 3403              		.loc 1 834 0 discriminator 3
 3404 1650 7A68     		ldr	r2, [r7, #4]
 3405 1652 1E4B     		ldr	r3, .L139+12
 3406 1654 9A42     		cmp	r2, r3
 3407 1656 08D0     		beq	.L135
 3408              		.loc 1 834 0 discriminator 4
 3409 1658 7A68     		ldr	r2, [r7, #4]
 3410 165a 1D4B     		ldr	r3, .L139+16
 3411 165c 9A42     		cmp	r2, r3
 3412 165e 04D0     		beq	.L135
 3413              		.loc 1 834 0 discriminator 5
 3414 1660 1C48     		ldr	r0, .L139+20
 3415 1662 40F24231 		movw	r1, #834
 3416 1666 FFF7FEFF 		bl	assert_failed
 3417              	.L135:
 835:../SPL/src/stm32f10x_tim.c ****   assert_param(IS_FUNCTIONAL_STATE(NewState));
 3418              		.loc 1 835 0 is_stmt 1
 3419 166a FB78     		ldrb	r3, [r7, #3]	@ zero_extendqisi2
 3420 166c 002B     		cmp	r3, #0
 3421 166e 07D0     		beq	.L136
 3422              		.loc 1 835 0 is_stmt 0 discriminator 1
 3423 1670 FB78     		ldrb	r3, [r7, #3]	@ zero_extendqisi2
 3424 1672 012B     		cmp	r3, #1
 3425 1674 04D0     		beq	.L136
 3426              		.loc 1 835 0 discriminator 2
 3427 1676 1748     		ldr	r0, .L139+20
 3428 1678 40F24331 		movw	r1, #835
 3429 167c FFF7FEFF 		bl	assert_failed
 3430              	.L136:
 836:../SPL/src/stm32f10x_tim.c ****   if (NewState != DISABLE)
 3431              		.loc 1 836 0 is_stmt 1
 3432 1680 FB78     		ldrb	r3, [r7, #3]	@ zero_extendqisi2
 3433 1682 002B     		cmp	r3, #0
 3434 1684 0CD0     		beq	.L137
 837:../SPL/src/stm32f10x_tim.c ****   {
 838:../SPL/src/stm32f10x_tim.c ****     /* Enable the TIM Main Output */
 839:../SPL/src/stm32f10x_tim.c ****     TIMx->BDTR |= TIM_BDTR_MOE;
 3435              		.loc 1 839 0
 3436 1686 7B68     		ldr	r3, [r7, #4]
 3437 1688 B3F84430 		ldrh	r3, [r3, #68]	@ movhi
 3438 168c 9BB2     		uxth	r3, r3
 3439 168e 6FEA4343 		mvn	r3, r3, lsl #17
 3440 1692 6FEA5343 		mvn	r3, r3, lsr #17
 3441 1696 9AB2     		uxth	r2, r3
 3442 1698 7B68     		ldr	r3, [r7, #4]
 3443 169a A3F84420 		strh	r2, [r3, #68]	@ movhi
 3444 169e 0BE0     		b	.L134
 3445              	.L137:
 840:../SPL/src/stm32f10x_tim.c ****   }
 841:../SPL/src/stm32f10x_tim.c ****   else
 842:../SPL/src/stm32f10x_tim.c ****   {
 843:../SPL/src/stm32f10x_tim.c ****     /* Disable the TIM Main Output */
 844:../SPL/src/stm32f10x_tim.c ****     TIMx->BDTR &= (uint16_t)(~((uint16_t)TIM_BDTR_MOE));
 3446              		.loc 1 844 0
 3447 16a0 7B68     		ldr	r3, [r7, #4]
 3448 16a2 B3F84430 		ldrh	r3, [r3, #68]	@ movhi
 3449 16a6 9BB2     		uxth	r3, r3
 3450 16a8 4FEA4343 		lsl	r3, r3, #17
 3451 16ac 4FEA5343 		lsr	r3, r3, #17
 3452 16b0 9AB2     		uxth	r2, r3
 3453 16b2 7B68     		ldr	r3, [r7, #4]
 3454 16b4 A3F84420 		strh	r2, [r3, #68]	@ movhi
 3455              	.L134:
 845:../SPL/src/stm32f10x_tim.c ****   }  
 846:../SPL/src/stm32f10x_tim.c **** }
 3456              		.loc 1 846 0
 3457 16b8 07F10807 		add	r7, r7, #8
 3458 16bc BD46     		mov	sp, r7
 3459 16be 80BD     		pop	{r7, pc}
 3460              	.L140:
 3461              		.align	2
 3462              	.L139:
 3463 16c0 002C0140 		.word	1073818624
 3464 16c4 00340140 		.word	1073820672
 3465 16c8 00400140 		.word	1073823744
 3466 16cc 00440140 		.word	1073824768
 3467 16d0 00480140 		.word	1073825792
 3468 16d4 00000000 		.word	.LC0
 3469              		.cfi_endproc
 3470              	.LFE43:
 3472              		.align	2
 3473              		.global	TIM_ITConfig
 3474              		.thumb
 3475              		.thumb_func
 3477              	TIM_ITConfig:
 3478              	.LFB44:
 847:../SPL/src/stm32f10x_tim.c **** 
 848:../SPL/src/stm32f10x_tim.c **** /**
 849:../SPL/src/stm32f10x_tim.c ****   * @brief  Enables or disables the specified TIM interrupts.
 850:../SPL/src/stm32f10x_tim.c ****   * @param  TIMx: where x can be 1 to 17 to select the TIMx peripheral.
 851:../SPL/src/stm32f10x_tim.c ****   * @param  TIM_IT: specifies the TIM interrupts sources to be enabled or disabled.
 852:../SPL/src/stm32f10x_tim.c ****   *   This parameter can be any combination of the following values:
 853:../SPL/src/stm32f10x_tim.c ****   *     @arg TIM_IT_Update: TIM update Interrupt source
 854:../SPL/src/stm32f10x_tim.c ****   *     @arg TIM_IT_CC1: TIM Capture Compare 1 Interrupt source
 855:../SPL/src/stm32f10x_tim.c ****   *     @arg TIM_IT_CC2: TIM Capture Compare 2 Interrupt source
 856:../SPL/src/stm32f10x_tim.c ****   *     @arg TIM_IT_CC3: TIM Capture Compare 3 Interrupt source
 857:../SPL/src/stm32f10x_tim.c ****   *     @arg TIM_IT_CC4: TIM Capture Compare 4 Interrupt source
 858:../SPL/src/stm32f10x_tim.c ****   *     @arg TIM_IT_COM: TIM Commutation Interrupt source
 859:../SPL/src/stm32f10x_tim.c ****   *     @arg TIM_IT_Trigger: TIM Trigger Interrupt source
 860:../SPL/src/stm32f10x_tim.c ****   *     @arg TIM_IT_Break: TIM Break Interrupt source
 861:../SPL/src/stm32f10x_tim.c ****   * @note 
 862:../SPL/src/stm32f10x_tim.c ****   *   - TIM6 and TIM7 can only generate an update interrupt.
 863:../SPL/src/stm32f10x_tim.c ****   *   - TIM9, TIM12 and TIM15 can have only TIM_IT_Update, TIM_IT_CC1,
 864:../SPL/src/stm32f10x_tim.c ****   *      TIM_IT_CC2 or TIM_IT_Trigger. 
 865:../SPL/src/stm32f10x_tim.c ****   *   - TIM10, TIM11, TIM13, TIM14, TIM16 and TIM17 can have TIM_IT_Update or TIM_IT_CC1.   
 866:../SPL/src/stm32f10x_tim.c ****   *   - TIM_IT_Break is used only with TIM1, TIM8 and TIM15. 
 867:../SPL/src/stm32f10x_tim.c ****   *   - TIM_IT_COM is used only with TIM1, TIM8, TIM15, TIM16 and TIM17.    
 868:../SPL/src/stm32f10x_tim.c ****   * @param  NewState: new state of the TIM interrupts.
 869:../SPL/src/stm32f10x_tim.c ****   *   This parameter can be: ENABLE or DISABLE.
 870:../SPL/src/stm32f10x_tim.c ****   * @retval None
 871:../SPL/src/stm32f10x_tim.c ****   */
 872:../SPL/src/stm32f10x_tim.c **** void TIM_ITConfig(TIM_TypeDef* TIMx, uint16_t TIM_IT, FunctionalState NewState)
 873:../SPL/src/stm32f10x_tim.c **** {  
 3479              		.loc 1 873 0
 3480              		.cfi_startproc
 3481              		@ args = 0, pretend = 0, frame = 8
 3482              		@ frame_needed = 1, uses_anonymous_args = 0
 3483 16d8 80B5     		push	{r7, lr}
 3484              	.LCFI45:
 3485              		.cfi_def_cfa_offset 8
 3486              		.cfi_offset 7, -8
 3487              		.cfi_offset 14, -4
 3488 16da 82B0     		sub	sp, sp, #8
 3489              	.LCFI46:
 3490              		.cfi_def_cfa_offset 16
 3491 16dc 00AF     		add	r7, sp, #0
 3492              	.LCFI47:
 3493              		.cfi_def_cfa_register 7
 3494 16de 7860     		str	r0, [r7, #4]
 3495 16e0 1346     		mov	r3, r2
 3496 16e2 0A46     		mov	r2, r1	@ movhi
 3497 16e4 7A80     		strh	r2, [r7, #2]	@ movhi
 3498 16e6 7B70     		strb	r3, [r7, #1]
 874:../SPL/src/stm32f10x_tim.c ****   /* Check the parameters */
 875:../SPL/src/stm32f10x_tim.c ****   assert_param(IS_TIM_ALL_PERIPH(TIMx));
 3499              		.loc 1 875 0
 3500 16e8 7A68     		ldr	r2, [r7, #4]
 3501 16ea 3D4B     		ldr	r3, .L148
 3502 16ec 9A42     		cmp	r2, r3
 3503 16ee 44D0     		beq	.L142
 3504              		.loc 1 875 0 is_stmt 0 discriminator 1
 3505 16f0 7B68     		ldr	r3, [r7, #4]
 3506 16f2 B3F1804F 		cmp	r3, #1073741824
 3507 16f6 40D0     		beq	.L142
 3508              		.loc 1 875 0 discriminator 2
 3509 16f8 7A68     		ldr	r2, [r7, #4]
 3510 16fa 3A4B     		ldr	r3, .L148+4
 3511 16fc 9A42     		cmp	r2, r3
 3512 16fe 3CD0     		beq	.L142
 3513              		.loc 1 875 0 discriminator 3
 3514 1700 7A68     		ldr	r2, [r7, #4]
 3515 1702 394B     		ldr	r3, .L148+8
 3516 1704 9A42     		cmp	r2, r3
 3517 1706 38D0     		beq	.L142
 3518              		.loc 1 875 0 discriminator 4
 3519 1708 7A68     		ldr	r2, [r7, #4]
 3520 170a 384B     		ldr	r3, .L148+12
 3521 170c 9A42     		cmp	r2, r3
 3522 170e 34D0     		beq	.L142
 3523              		.loc 1 875 0 discriminator 5
 3524 1710 7A68     		ldr	r2, [r7, #4]
 3525 1712 374B     		ldr	r3, .L148+16
 3526 1714 9A42     		cmp	r2, r3
 3527 1716 30D0     		beq	.L142
 3528              		.loc 1 875 0 discriminator 6
 3529 1718 7A68     		ldr	r2, [r7, #4]
 3530 171a 364B     		ldr	r3, .L148+20
 3531 171c 9A42     		cmp	r2, r3
 3532 171e 2CD0     		beq	.L142
 3533              		.loc 1 875 0 discriminator 7
 3534 1720 7A68     		ldr	r2, [r7, #4]
 3535 1722 354B     		ldr	r3, .L148+24
 3536 1724 9A42     		cmp	r2, r3
 3537 1726 28D0     		beq	.L142
 3538              		.loc 1 875 0 discriminator 8
 3539 1728 7A68     		ldr	r2, [r7, #4]
 3540 172a 344B     		ldr	r3, .L148+28
 3541 172c 9A42     		cmp	r2, r3
 3542 172e 24D0     		beq	.L142
 3543              		.loc 1 875 0 discriminator 9
 3544 1730 7A68     		ldr	r2, [r7, #4]
 3545 1732 334B     		ldr	r3, .L148+32
 3546 1734 9A42     		cmp	r2, r3
 3547 1736 20D0     		beq	.L142
 3548              		.loc 1 875 0 discriminator 10
 3549 1738 7A68     		ldr	r2, [r7, #4]
 3550 173a 324B     		ldr	r3, .L148+36
 3551 173c 9A42     		cmp	r2, r3
 3552 173e 1CD0     		beq	.L142
 3553              		.loc 1 875 0 discriminator 11
 3554 1740 7A68     		ldr	r2, [r7, #4]
 3555 1742 314B     		ldr	r3, .L148+40
 3556 1744 9A42     		cmp	r2, r3
 3557 1746 18D0     		beq	.L142
 3558              		.loc 1 875 0 discriminator 12
 3559 1748 7A68     		ldr	r2, [r7, #4]
 3560 174a 304B     		ldr	r3, .L148+44
 3561 174c 9A42     		cmp	r2, r3
 3562 174e 14D0     		beq	.L142
 3563              		.loc 1 875 0 discriminator 13
 3564 1750 7A68     		ldr	r2, [r7, #4]
 3565 1752 2F4B     		ldr	r3, .L148+48
 3566 1754 9A42     		cmp	r2, r3
 3567 1756 10D0     		beq	.L142
 3568              		.loc 1 875 0 discriminator 14
 3569 1758 7A68     		ldr	r2, [r7, #4]
 3570 175a 2E4B     		ldr	r3, .L148+52
 3571 175c 9A42     		cmp	r2, r3
 3572 175e 0CD0     		beq	.L142
 3573              		.loc 1 875 0 discriminator 15
 3574 1760 7A68     		ldr	r2, [r7, #4]
 3575 1762 2D4B     		ldr	r3, .L148+56
 3576 1764 9A42     		cmp	r2, r3
 3577 1766 08D0     		beq	.L142
 3578              		.loc 1 875 0 discriminator 16
 3579 1768 7A68     		ldr	r2, [r7, #4]
 3580 176a 2C4B     		ldr	r3, .L148+60
 3581 176c 9A42     		cmp	r2, r3
 3582 176e 04D0     		beq	.L142
 3583              		.loc 1 875 0 discriminator 17
 3584 1770 2B48     		ldr	r0, .L148+64
 3585 1772 40F26B31 		movw	r1, #875
 3586 1776 FFF7FEFF 		bl	assert_failed
 3587              	.L142:
 876:../SPL/src/stm32f10x_tim.c ****   assert_param(IS_TIM_IT(TIM_IT));
 3588              		.loc 1 876 0 is_stmt 1
 3589 177a 7B88     		ldrh	r3, [r7, #2]
 3590 177c 03F47F43 		and	r3, r3, #65280
 3591 1780 002B     		cmp	r3, #0
 3592 1782 02D1     		bne	.L143
 3593              		.loc 1 876 0 is_stmt 0 discriminator 2
 3594 1784 7B88     		ldrh	r3, [r7, #2]
 3595 1786 002B     		cmp	r3, #0
 3596 1788 04D1     		bne	.L144
 3597              	.L143:
 3598              		.loc 1 876 0 discriminator 1
 3599 178a 2548     		ldr	r0, .L148+64
 3600 178c 4FF45B71 		mov	r1, #876
 3601 1790 FFF7FEFF 		bl	assert_failed
 3602              	.L144:
 877:../SPL/src/stm32f10x_tim.c ****   assert_param(IS_FUNCTIONAL_STATE(NewState));
 3603              		.loc 1 877 0 is_stmt 1
 3604 1794 7B78     		ldrb	r3, [r7, #1]	@ zero_extendqisi2
 3605 1796 002B     		cmp	r3, #0
 3606 1798 07D0     		beq	.L145
 3607              		.loc 1 877 0 is_stmt 0 discriminator 1
 3608 179a 7B78     		ldrb	r3, [r7, #1]	@ zero_extendqisi2
 3609 179c 012B     		cmp	r3, #1
 3610 179e 04D0     		beq	.L145
 3611              		.loc 1 877 0 discriminator 2
 3612 17a0 1F48     		ldr	r0, .L148+64
 3613 17a2 40F26D31 		movw	r1, #877
 3614 17a6 FFF7FEFF 		bl	assert_failed
 3615              	.L145:
 878:../SPL/src/stm32f10x_tim.c ****   
 879:../SPL/src/stm32f10x_tim.c ****   if (NewState != DISABLE)
 3616              		.loc 1 879 0 is_stmt 1
 3617 17aa 7B78     		ldrb	r3, [r7, #1]	@ zero_extendqisi2
 3618 17ac 002B     		cmp	r3, #0
 3619 17ae 08D0     		beq	.L146
 880:../SPL/src/stm32f10x_tim.c ****   {
 881:../SPL/src/stm32f10x_tim.c ****     /* Enable the Interrupt sources */
 882:../SPL/src/stm32f10x_tim.c ****     TIMx->DIER |= TIM_IT;
 3620              		.loc 1 882 0
 3621 17b0 7B68     		ldr	r3, [r7, #4]
 3622 17b2 9B89     		ldrh	r3, [r3, #12]	@ movhi
 3623 17b4 9AB2     		uxth	r2, r3
 3624 17b6 7B88     		ldrh	r3, [r7, #2]	@ movhi
 3625 17b8 1343     		orrs	r3, r3, r2
 3626 17ba 9AB2     		uxth	r2, r3
 3627 17bc 7B68     		ldr	r3, [r7, #4]
 3628 17be 9A81     		strh	r2, [r3, #12]	@ movhi
 3629 17c0 0AE0     		b	.L141
 3630              	.L146:
 883:../SPL/src/stm32f10x_tim.c ****   }
 884:../SPL/src/stm32f10x_tim.c ****   else
 885:../SPL/src/stm32f10x_tim.c ****   {
 886:../SPL/src/stm32f10x_tim.c ****     /* Disable the Interrupt sources */
 887:../SPL/src/stm32f10x_tim.c ****     TIMx->DIER &= (uint16_t)~TIM_IT;
 3631              		.loc 1 887 0
 3632 17c2 7B68     		ldr	r3, [r7, #4]
 3633 17c4 9B89     		ldrh	r3, [r3, #12]	@ movhi
 3634 17c6 9AB2     		uxth	r2, r3
 3635 17c8 7B88     		ldrh	r3, [r7, #2]	@ movhi
 3636 17ca 6FEA0303 		mvn	r3, r3
 3637 17ce 9BB2     		uxth	r3, r3
 3638 17d0 1340     		ands	r3, r3, r2
 3639 17d2 9AB2     		uxth	r2, r3
 3640 17d4 7B68     		ldr	r3, [r7, #4]
 3641 17d6 9A81     		strh	r2, [r3, #12]	@ movhi
 3642              	.L141:
 888:../SPL/src/stm32f10x_tim.c ****   }
 889:../SPL/src/stm32f10x_tim.c **** }
 3643              		.loc 1 889 0
 3644 17d8 07F10807 		add	r7, r7, #8
 3645 17dc BD46     		mov	sp, r7
 3646 17de 80BD     		pop	{r7, pc}
 3647              	.L149:
 3648              		.align	2
 3649              	.L148:
 3650 17e0 002C0140 		.word	1073818624
 3651 17e4 00040040 		.word	1073742848
 3652 17e8 00080040 		.word	1073743872
 3653 17ec 000C0040 		.word	1073744896
 3654 17f0 00100040 		.word	1073745920
 3655 17f4 00140040 		.word	1073746944
 3656 17f8 00340140 		.word	1073820672
 3657 17fc 004C0140 		.word	1073826816
 3658 1800 00500140 		.word	1073827840
 3659 1804 00540140 		.word	1073828864
 3660 1808 00180040 		.word	1073747968
 3661 180c 001C0040 		.word	1073748992
 3662 1810 00200040 		.word	1073750016
 3663 1814 00400140 		.word	1073823744
 3664 1818 00440140 		.word	1073824768
 3665 181c 00480140 		.word	1073825792
 3666 1820 00000000 		.word	.LC0
 3667              		.cfi_endproc
 3668              	.LFE44:
 3670              		.align	2
 3671              		.global	TIM_GenerateEvent
 3672              		.thumb
 3673              		.thumb_func
 3675              	TIM_GenerateEvent:
 3676              	.LFB45:
 890:../SPL/src/stm32f10x_tim.c **** 
 891:../SPL/src/stm32f10x_tim.c **** /**
 892:../SPL/src/stm32f10x_tim.c ****   * @brief  Configures the TIMx event to be generate by software.
 893:../SPL/src/stm32f10x_tim.c ****   * @param  TIMx: where x can be 1 to 17 to select the TIM peripheral.
 894:../SPL/src/stm32f10x_tim.c ****   * @param  TIM_EventSource: specifies the event source.
 895:../SPL/src/stm32f10x_tim.c ****   *   This parameter can be one or more of the following values:	   
 896:../SPL/src/stm32f10x_tim.c ****   *     @arg TIM_EventSource_Update: Timer update Event source
 897:../SPL/src/stm32f10x_tim.c ****   *     @arg TIM_EventSource_CC1: Timer Capture Compare 1 Event source
 898:../SPL/src/stm32f10x_tim.c ****   *     @arg TIM_EventSource_CC2: Timer Capture Compare 2 Event source
 899:../SPL/src/stm32f10x_tim.c ****   *     @arg TIM_EventSource_CC3: Timer Capture Compare 3 Event source
 900:../SPL/src/stm32f10x_tim.c ****   *     @arg TIM_EventSource_CC4: Timer Capture Compare 4 Event source
 901:../SPL/src/stm32f10x_tim.c ****   *     @arg TIM_EventSource_COM: Timer COM event source  
 902:../SPL/src/stm32f10x_tim.c ****   *     @arg TIM_EventSource_Trigger: Timer Trigger Event source
 903:../SPL/src/stm32f10x_tim.c ****   *     @arg TIM_EventSource_Break: Timer Break event source
 904:../SPL/src/stm32f10x_tim.c ****   * @note 
 905:../SPL/src/stm32f10x_tim.c ****   *   - TIM6 and TIM7 can only generate an update event. 
 906:../SPL/src/stm32f10x_tim.c ****   *   - TIM_EventSource_COM and TIM_EventSource_Break are used only with TIM1 and TIM8.      
 907:../SPL/src/stm32f10x_tim.c ****   * @retval None
 908:../SPL/src/stm32f10x_tim.c ****   */
 909:../SPL/src/stm32f10x_tim.c **** void TIM_GenerateEvent(TIM_TypeDef* TIMx, uint16_t TIM_EventSource)
 910:../SPL/src/stm32f10x_tim.c **** { 
 3677              		.loc 1 910 0
 3678              		.cfi_startproc
 3679              		@ args = 0, pretend = 0, frame = 8
 3680              		@ frame_needed = 1, uses_anonymous_args = 0
 3681 1824 80B5     		push	{r7, lr}
 3682              	.LCFI48:
 3683              		.cfi_def_cfa_offset 8
 3684              		.cfi_offset 7, -8
 3685              		.cfi_offset 14, -4
 3686 1826 82B0     		sub	sp, sp, #8
 3687              	.LCFI49:
 3688              		.cfi_def_cfa_offset 16
 3689 1828 00AF     		add	r7, sp, #0
 3690              	.LCFI50:
 3691              		.cfi_def_cfa_register 7
 3692 182a 7860     		str	r0, [r7, #4]
 3693 182c 0B46     		mov	r3, r1
 3694 182e 7B80     		strh	r3, [r7, #2]	@ movhi
 911:../SPL/src/stm32f10x_tim.c ****   /* Check the parameters */
 912:../SPL/src/stm32f10x_tim.c ****   assert_param(IS_TIM_ALL_PERIPH(TIMx));
 3695              		.loc 1 912 0
 3696 1830 7A68     		ldr	r2, [r7, #4]
 3697 1832 2E4B     		ldr	r3, .L154
 3698 1834 9A42     		cmp	r2, r3
 3699 1836 44D0     		beq	.L151
 3700              		.loc 1 912 0 is_stmt 0 discriminator 1
 3701 1838 7B68     		ldr	r3, [r7, #4]
 3702 183a B3F1804F 		cmp	r3, #1073741824
 3703 183e 40D0     		beq	.L151
 3704              		.loc 1 912 0 discriminator 2
 3705 1840 7A68     		ldr	r2, [r7, #4]
 3706 1842 2B4B     		ldr	r3, .L154+4
 3707 1844 9A42     		cmp	r2, r3
 3708 1846 3CD0     		beq	.L151
 3709              		.loc 1 912 0 discriminator 3
 3710 1848 7A68     		ldr	r2, [r7, #4]
 3711 184a 2A4B     		ldr	r3, .L154+8
 3712 184c 9A42     		cmp	r2, r3
 3713 184e 38D0     		beq	.L151
 3714              		.loc 1 912 0 discriminator 4
 3715 1850 7A68     		ldr	r2, [r7, #4]
 3716 1852 294B     		ldr	r3, .L154+12
 3717 1854 9A42     		cmp	r2, r3
 3718 1856 34D0     		beq	.L151
 3719              		.loc 1 912 0 discriminator 5
 3720 1858 7A68     		ldr	r2, [r7, #4]
 3721 185a 284B     		ldr	r3, .L154+16
 3722 185c 9A42     		cmp	r2, r3
 3723 185e 30D0     		beq	.L151
 3724              		.loc 1 912 0 discriminator 6
 3725 1860 7A68     		ldr	r2, [r7, #4]
 3726 1862 274B     		ldr	r3, .L154+20
 3727 1864 9A42     		cmp	r2, r3
 3728 1866 2CD0     		beq	.L151
 3729              		.loc 1 912 0 discriminator 7
 3730 1868 7A68     		ldr	r2, [r7, #4]
 3731 186a 264B     		ldr	r3, .L154+24
 3732 186c 9A42     		cmp	r2, r3
 3733 186e 28D0     		beq	.L151
 3734              		.loc 1 912 0 discriminator 8
 3735 1870 7A68     		ldr	r2, [r7, #4]
 3736 1872 254B     		ldr	r3, .L154+28
 3737 1874 9A42     		cmp	r2, r3
 3738 1876 24D0     		beq	.L151
 3739              		.loc 1 912 0 discriminator 9
 3740 1878 7A68     		ldr	r2, [r7, #4]
 3741 187a 244B     		ldr	r3, .L154+32
 3742 187c 9A42     		cmp	r2, r3
 3743 187e 20D0     		beq	.L151
 3744              		.loc 1 912 0 discriminator 10
 3745 1880 7A68     		ldr	r2, [r7, #4]
 3746 1882 234B     		ldr	r3, .L154+36
 3747 1884 9A42     		cmp	r2, r3
 3748 1886 1CD0     		beq	.L151
 3749              		.loc 1 912 0 discriminator 11
 3750 1888 7A68     		ldr	r2, [r7, #4]
 3751 188a 224B     		ldr	r3, .L154+40
 3752 188c 9A42     		cmp	r2, r3
 3753 188e 18D0     		beq	.L151
 3754              		.loc 1 912 0 discriminator 12
 3755 1890 7A68     		ldr	r2, [r7, #4]
 3756 1892 214B     		ldr	r3, .L154+44
 3757 1894 9A42     		cmp	r2, r3
 3758 1896 14D0     		beq	.L151
 3759              		.loc 1 912 0 discriminator 13
 3760 1898 7A68     		ldr	r2, [r7, #4]
 3761 189a 204B     		ldr	r3, .L154+48
 3762 189c 9A42     		cmp	r2, r3
 3763 189e 10D0     		beq	.L151
 3764              		.loc 1 912 0 discriminator 14
 3765 18a0 7A68     		ldr	r2, [r7, #4]
 3766 18a2 1F4B     		ldr	r3, .L154+52
 3767 18a4 9A42     		cmp	r2, r3
 3768 18a6 0CD0     		beq	.L151
 3769              		.loc 1 912 0 discriminator 15
 3770 18a8 7A68     		ldr	r2, [r7, #4]
 3771 18aa 1E4B     		ldr	r3, .L154+56
 3772 18ac 9A42     		cmp	r2, r3
 3773 18ae 08D0     		beq	.L151
 3774              		.loc 1 912 0 discriminator 16
 3775 18b0 7A68     		ldr	r2, [r7, #4]
 3776 18b2 1D4B     		ldr	r3, .L154+60
 3777 18b4 9A42     		cmp	r2, r3
 3778 18b6 04D0     		beq	.L151
 3779              		.loc 1 912 0 discriminator 17
 3780 18b8 1C48     		ldr	r0, .L154+64
 3781 18ba 4FF46471 		mov	r1, #912
 3782 18be FFF7FEFF 		bl	assert_failed
 3783              	.L151:
 913:../SPL/src/stm32f10x_tim.c ****   assert_param(IS_TIM_EVENT_SOURCE(TIM_EventSource));
 3784              		.loc 1 913 0 is_stmt 1
 3785 18c2 7B88     		ldrh	r3, [r7, #2]
 3786 18c4 03F47F43 		and	r3, r3, #65280
 3787 18c8 002B     		cmp	r3, #0
 3788 18ca 02D1     		bne	.L152
 3789              		.loc 1 913 0 is_stmt 0 discriminator 2
 3790 18cc 7B88     		ldrh	r3, [r7, #2]
 3791 18ce 002B     		cmp	r3, #0
 3792 18d0 04D1     		bne	.L153
 3793              	.L152:
 3794              		.loc 1 913 0 discriminator 1
 3795 18d2 1648     		ldr	r0, .L154+64
 3796 18d4 40F29131 		movw	r1, #913
 3797 18d8 FFF7FEFF 		bl	assert_failed
 3798              	.L153:
 914:../SPL/src/stm32f10x_tim.c ****   
 915:../SPL/src/stm32f10x_tim.c ****   /* Set the event sources */
 916:../SPL/src/stm32f10x_tim.c ****   TIMx->EGR = TIM_EventSource;
 3799              		.loc 1 916 0 is_stmt 1
 3800 18dc 7B68     		ldr	r3, [r7, #4]
 3801 18de 7A88     		ldrh	r2, [r7, #2]	@ movhi
 3802 18e0 9A82     		strh	r2, [r3, #20]	@ movhi
 917:../SPL/src/stm32f10x_tim.c **** }
 3803              		.loc 1 917 0
 3804 18e2 07F10807 		add	r7, r7, #8
 3805 18e6 BD46     		mov	sp, r7
 3806 18e8 80BD     		pop	{r7, pc}
 3807              	.L155:
 3808 18ea 00BF     		.align	2
 3809              	.L154:
 3810 18ec 002C0140 		.word	1073818624
 3811 18f0 00040040 		.word	1073742848
 3812 18f4 00080040 		.word	1073743872
 3813 18f8 000C0040 		.word	1073744896
 3814 18fc 00100040 		.word	1073745920
 3815 1900 00140040 		.word	1073746944
 3816 1904 00340140 		.word	1073820672
 3817 1908 004C0140 		.word	1073826816
 3818 190c 00500140 		.word	1073827840
 3819 1910 00540140 		.word	1073828864
 3820 1914 00180040 		.word	1073747968
 3821 1918 001C0040 		.word	1073748992
 3822 191c 00200040 		.word	1073750016
 3823 1920 00400140 		.word	1073823744
 3824 1924 00440140 		.word	1073824768
 3825 1928 00480140 		.word	1073825792
 3826 192c 00000000 		.word	.LC0
 3827              		.cfi_endproc
 3828              	.LFE45:
 3830              		.align	2
 3831              		.global	TIM_DMAConfig
 3832              		.thumb
 3833              		.thumb_func
 3835              	TIM_DMAConfig:
 3836              	.LFB46:
 918:../SPL/src/stm32f10x_tim.c **** 
 919:../SPL/src/stm32f10x_tim.c **** /**
 920:../SPL/src/stm32f10x_tim.c ****   * @brief  Configures the TIMx's DMA interface.
 921:../SPL/src/stm32f10x_tim.c ****   * @param  TIMx: where x can be  1, 2, 3, 4, 5, 8, 15, 16 or 17 to select 
 922:../SPL/src/stm32f10x_tim.c ****   *   the TIM peripheral.
 923:../SPL/src/stm32f10x_tim.c ****   * @param  TIM_DMABase: DMA Base address.
 924:../SPL/src/stm32f10x_tim.c ****   *   This parameter can be one of the following values:
 925:../SPL/src/stm32f10x_tim.c ****   *     @arg TIM_DMABase_CR, TIM_DMABase_CR2, TIM_DMABase_SMCR,
 926:../SPL/src/stm32f10x_tim.c ****   *          TIM_DMABase_DIER, TIM1_DMABase_SR, TIM_DMABase_EGR,
 927:../SPL/src/stm32f10x_tim.c ****   *          TIM_DMABase_CCMR1, TIM_DMABase_CCMR2, TIM_DMABase_CCER,
 928:../SPL/src/stm32f10x_tim.c ****   *          TIM_DMABase_CNT, TIM_DMABase_PSC, TIM_DMABase_ARR,
 929:../SPL/src/stm32f10x_tim.c ****   *          TIM_DMABase_RCR, TIM_DMABase_CCR1, TIM_DMABase_CCR2,
 930:../SPL/src/stm32f10x_tim.c ****   *          TIM_DMABase_CCR3, TIM_DMABase_CCR4, TIM_DMABase_BDTR,
 931:../SPL/src/stm32f10x_tim.c ****   *          TIM_DMABase_DCR.
 932:../SPL/src/stm32f10x_tim.c ****   * @param  TIM_DMABurstLength: DMA Burst length.
 933:../SPL/src/stm32f10x_tim.c ****   *   This parameter can be one value between:
 934:../SPL/src/stm32f10x_tim.c ****   *   TIM_DMABurstLength_1Transfer and TIM_DMABurstLength_18Transfers.
 935:../SPL/src/stm32f10x_tim.c ****   * @retval None
 936:../SPL/src/stm32f10x_tim.c ****   */
 937:../SPL/src/stm32f10x_tim.c **** void TIM_DMAConfig(TIM_TypeDef* TIMx, uint16_t TIM_DMABase, uint16_t TIM_DMABurstLength)
 938:../SPL/src/stm32f10x_tim.c **** {
 3837              		.loc 1 938 0
 3838              		.cfi_startproc
 3839              		@ args = 0, pretend = 0, frame = 8
 3840              		@ frame_needed = 1, uses_anonymous_args = 0
 3841 1930 80B5     		push	{r7, lr}
 3842              	.LCFI51:
 3843              		.cfi_def_cfa_offset 8
 3844              		.cfi_offset 7, -8
 3845              		.cfi_offset 14, -4
 3846 1932 82B0     		sub	sp, sp, #8
 3847              	.LCFI52:
 3848              		.cfi_def_cfa_offset 16
 3849 1934 00AF     		add	r7, sp, #0
 3850              	.LCFI53:
 3851              		.cfi_def_cfa_register 7
 3852 1936 7860     		str	r0, [r7, #4]
 3853 1938 1346     		mov	r3, r2
 3854 193a 0A46     		mov	r2, r1	@ movhi
 3855 193c 7A80     		strh	r2, [r7, #2]	@ movhi
 3856 193e 3B80     		strh	r3, [r7, #0]	@ movhi
 939:../SPL/src/stm32f10x_tim.c ****   /* Check the parameters */
 940:../SPL/src/stm32f10x_tim.c ****   assert_param(IS_TIM_LIST4_PERIPH(TIMx));
 3857              		.loc 1 940 0
 3858 1940 7A68     		ldr	r2, [r7, #4]
 3859 1942 5E4B     		ldr	r3, .L160
 3860 1944 9A42     		cmp	r2, r3
 3861 1946 24D0     		beq	.L157
 3862              		.loc 1 940 0 is_stmt 0 discriminator 1
 3863 1948 7B68     		ldr	r3, [r7, #4]
 3864 194a B3F1804F 		cmp	r3, #1073741824
 3865 194e 20D0     		beq	.L157
 3866              		.loc 1 940 0 discriminator 2
 3867 1950 7A68     		ldr	r2, [r7, #4]
 3868 1952 5B4B     		ldr	r3, .L160+4
 3869 1954 9A42     		cmp	r2, r3
 3870 1956 1CD0     		beq	.L157
 3871              		.loc 1 940 0 discriminator 3
 3872 1958 7A68     		ldr	r2, [r7, #4]
 3873 195a 5A4B     		ldr	r3, .L160+8
 3874 195c 9A42     		cmp	r2, r3
 3875 195e 18D0     		beq	.L157
 3876              		.loc 1 940 0 discriminator 4
 3877 1960 7A68     		ldr	r2, [r7, #4]
 3878 1962 594B     		ldr	r3, .L160+12
 3879 1964 9A42     		cmp	r2, r3
 3880 1966 14D0     		beq	.L157
 3881              		.loc 1 940 0 discriminator 5
 3882 1968 7A68     		ldr	r2, [r7, #4]
 3883 196a 584B     		ldr	r3, .L160+16
 3884 196c 9A42     		cmp	r2, r3
 3885 196e 10D0     		beq	.L157
 3886              		.loc 1 940 0 discriminator 6
 3887 1970 7A68     		ldr	r2, [r7, #4]
 3888 1972 574B     		ldr	r3, .L160+20
 3889 1974 9A42     		cmp	r2, r3
 3890 1976 0CD0     		beq	.L157
 3891              		.loc 1 940 0 discriminator 7
 3892 1978 7A68     		ldr	r2, [r7, #4]
 3893 197a 564B     		ldr	r3, .L160+24
 3894 197c 9A42     		cmp	r2, r3
 3895 197e 08D0     		beq	.L157
 3896              		.loc 1 940 0 discriminator 8
 3897 1980 7A68     		ldr	r2, [r7, #4]
 3898 1982 554B     		ldr	r3, .L160+28
 3899 1984 9A42     		cmp	r2, r3
 3900 1986 04D0     		beq	.L157
 3901              		.loc 1 940 0 discriminator 9
 3902 1988 5448     		ldr	r0, .L160+32
 3903 198a 4FF46B71 		mov	r1, #940
 3904 198e FFF7FEFF 		bl	assert_failed
 3905              	.L157:
 941:../SPL/src/stm32f10x_tim.c ****   assert_param(IS_TIM_DMA_BASE(TIM_DMABase));
 3906              		.loc 1 941 0 is_stmt 1
 3907 1992 7B88     		ldrh	r3, [r7, #2]
 3908 1994 002B     		cmp	r3, #0
 3909 1996 3AD0     		beq	.L158
 3910              		.loc 1 941 0 is_stmt 0 discriminator 1
 3911 1998 7B88     		ldrh	r3, [r7, #2]
 3912 199a 012B     		cmp	r3, #1
 3913 199c 37D0     		beq	.L158
 3914              		.loc 1 941 0 discriminator 2
 3915 199e 7B88     		ldrh	r3, [r7, #2]
 3916 19a0 022B     		cmp	r3, #2
 3917 19a2 34D0     		beq	.L158
 3918              		.loc 1 941 0 discriminator 3
 3919 19a4 7B88     		ldrh	r3, [r7, #2]
 3920 19a6 032B     		cmp	r3, #3
 3921 19a8 31D0     		beq	.L158
 3922              		.loc 1 941 0 discriminator 4
 3923 19aa 7B88     		ldrh	r3, [r7, #2]
 3924 19ac 042B     		cmp	r3, #4
 3925 19ae 2ED0     		beq	.L158
 3926              		.loc 1 941 0 discriminator 5
 3927 19b0 7B88     		ldrh	r3, [r7, #2]
 3928 19b2 052B     		cmp	r3, #5
 3929 19b4 2BD0     		beq	.L158
 3930              		.loc 1 941 0 discriminator 6
 3931 19b6 7B88     		ldrh	r3, [r7, #2]
 3932 19b8 062B     		cmp	r3, #6
 3933 19ba 28D0     		beq	.L158
 3934              		.loc 1 941 0 discriminator 7
 3935 19bc 7B88     		ldrh	r3, [r7, #2]
 3936 19be 072B     		cmp	r3, #7
 3937 19c0 25D0     		beq	.L158
 3938              		.loc 1 941 0 discriminator 8
 3939 19c2 7B88     		ldrh	r3, [r7, #2]
 3940 19c4 082B     		cmp	r3, #8
 3941 19c6 22D0     		beq	.L158
 3942              		.loc 1 941 0 discriminator 9
 3943 19c8 7B88     		ldrh	r3, [r7, #2]
 3944 19ca 092B     		cmp	r3, #9
 3945 19cc 1FD0     		beq	.L158
 3946              		.loc 1 941 0 discriminator 10
 3947 19ce 7B88     		ldrh	r3, [r7, #2]
 3948 19d0 0A2B     		cmp	r3, #10
 3949 19d2 1CD0     		beq	.L158
 3950              		.loc 1 941 0 discriminator 11
 3951 19d4 7B88     		ldrh	r3, [r7, #2]
 3952 19d6 0B2B     		cmp	r3, #11
 3953 19d8 19D0     		beq	.L158
 3954              		.loc 1 941 0 discriminator 12
 3955 19da 7B88     		ldrh	r3, [r7, #2]
 3956 19dc 0C2B     		cmp	r3, #12
 3957 19de 16D0     		beq	.L158
 3958              		.loc 1 941 0 discriminator 13
 3959 19e0 7B88     		ldrh	r3, [r7, #2]
 3960 19e2 0D2B     		cmp	r3, #13
 3961 19e4 13D0     		beq	.L158
 3962              		.loc 1 941 0 discriminator 14
 3963 19e6 7B88     		ldrh	r3, [r7, #2]
 3964 19e8 0E2B     		cmp	r3, #14
 3965 19ea 10D0     		beq	.L158
 3966              		.loc 1 941 0 discriminator 15
 3967 19ec 7B88     		ldrh	r3, [r7, #2]
 3968 19ee 0F2B     		cmp	r3, #15
 3969 19f0 0DD0     		beq	.L158
 3970              		.loc 1 941 0 discriminator 16
 3971 19f2 7B88     		ldrh	r3, [r7, #2]
 3972 19f4 102B     		cmp	r3, #16
 3973 19f6 0AD0     		beq	.L158
 3974              		.loc 1 941 0 discriminator 17
 3975 19f8 7B88     		ldrh	r3, [r7, #2]
 3976 19fa 112B     		cmp	r3, #17
 3977 19fc 07D0     		beq	.L158
 3978              		.loc 1 941 0 discriminator 18
 3979 19fe 7B88     		ldrh	r3, [r7, #2]
 3980 1a00 122B     		cmp	r3, #18
 3981 1a02 04D0     		beq	.L158
 3982              		.loc 1 941 0 discriminator 19
 3983 1a04 3548     		ldr	r0, .L160+32
 3984 1a06 40F2AD31 		movw	r1, #941
 3985 1a0a FFF7FEFF 		bl	assert_failed
 3986              	.L158:
 942:../SPL/src/stm32f10x_tim.c ****   assert_param(IS_TIM_DMA_LENGTH(TIM_DMABurstLength));
 3987              		.loc 1 942 0 is_stmt 1
 3988 1a0e 3B88     		ldrh	r3, [r7, #0]
 3989 1a10 002B     		cmp	r3, #0
 3990 1a12 48D0     		beq	.L159
 3991              		.loc 1 942 0 is_stmt 0 discriminator 1
 3992 1a14 3B88     		ldrh	r3, [r7, #0]
 3993 1a16 B3F5807F 		cmp	r3, #256
 3994 1a1a 44D0     		beq	.L159
 3995              		.loc 1 942 0 discriminator 2
 3996 1a1c 3B88     		ldrh	r3, [r7, #0]
 3997 1a1e B3F5007F 		cmp	r3, #512
 3998 1a22 40D0     		beq	.L159
 3999              		.loc 1 942 0 discriminator 3
 4000 1a24 3B88     		ldrh	r3, [r7, #0]
 4001 1a26 B3F5407F 		cmp	r3, #768
 4002 1a2a 3CD0     		beq	.L159
 4003              		.loc 1 942 0 discriminator 4
 4004 1a2c 3B88     		ldrh	r3, [r7, #0]
 4005 1a2e B3F5806F 		cmp	r3, #1024
 4006 1a32 38D0     		beq	.L159
 4007              		.loc 1 942 0 discriminator 5
 4008 1a34 3B88     		ldrh	r3, [r7, #0]
 4009 1a36 B3F5A06F 		cmp	r3, #1280
 4010 1a3a 34D0     		beq	.L159
 4011              		.loc 1 942 0 discriminator 6
 4012 1a3c 3B88     		ldrh	r3, [r7, #0]
 4013 1a3e B3F5C06F 		cmp	r3, #1536
 4014 1a42 30D0     		beq	.L159
 4015              		.loc 1 942 0 discriminator 7
 4016 1a44 3B88     		ldrh	r3, [r7, #0]
 4017 1a46 B3F5E06F 		cmp	r3, #1792
 4018 1a4a 2CD0     		beq	.L159
 4019              		.loc 1 942 0 discriminator 8
 4020 1a4c 3B88     		ldrh	r3, [r7, #0]
 4021 1a4e B3F5006F 		cmp	r3, #2048
 4022 1a52 28D0     		beq	.L159
 4023              		.loc 1 942 0 discriminator 9
 4024 1a54 3B88     		ldrh	r3, [r7, #0]
 4025 1a56 B3F5106F 		cmp	r3, #2304
 4026 1a5a 24D0     		beq	.L159
 4027              		.loc 1 942 0 discriminator 10
 4028 1a5c 3B88     		ldrh	r3, [r7, #0]
 4029 1a5e B3F5206F 		cmp	r3, #2560
 4030 1a62 20D0     		beq	.L159
 4031              		.loc 1 942 0 discriminator 11
 4032 1a64 3B88     		ldrh	r3, [r7, #0]
 4033 1a66 B3F5306F 		cmp	r3, #2816
 4034 1a6a 1CD0     		beq	.L159
 4035              		.loc 1 942 0 discriminator 12
 4036 1a6c 3B88     		ldrh	r3, [r7, #0]
 4037 1a6e B3F5406F 		cmp	r3, #3072
 4038 1a72 18D0     		beq	.L159
 4039              		.loc 1 942 0 discriminator 13
 4040 1a74 3B88     		ldrh	r3, [r7, #0]
 4041 1a76 B3F5506F 		cmp	r3, #3328
 4042 1a7a 14D0     		beq	.L159
 4043              		.loc 1 942 0 discriminator 14
 4044 1a7c 3B88     		ldrh	r3, [r7, #0]
 4045 1a7e B3F5606F 		cmp	r3, #3584
 4046 1a82 10D0     		beq	.L159
 4047              		.loc 1 942 0 discriminator 15
 4048 1a84 3B88     		ldrh	r3, [r7, #0]
 4049 1a86 B3F5706F 		cmp	r3, #3840
 4050 1a8a 0CD0     		beq	.L159
 4051              		.loc 1 942 0 discriminator 16
 4052 1a8c 3B88     		ldrh	r3, [r7, #0]
 4053 1a8e B3F5805F 		cmp	r3, #4096
 4054 1a92 08D0     		beq	.L159
 4055              		.loc 1 942 0 discriminator 17
 4056 1a94 3B88     		ldrh	r3, [r7, #0]
 4057 1a96 B3F5885F 		cmp	r3, #4352
 4058 1a9a 04D0     		beq	.L159
 4059              		.loc 1 942 0 discriminator 18
 4060 1a9c 0F48     		ldr	r0, .L160+32
 4061 1a9e 40F2AE31 		movw	r1, #942
 4062 1aa2 FFF7FEFF 		bl	assert_failed
 4063              	.L159:
 943:../SPL/src/stm32f10x_tim.c ****   /* Set the DMA Base and the DMA Burst Length */
 944:../SPL/src/stm32f10x_tim.c ****   TIMx->DCR = TIM_DMABase | TIM_DMABurstLength;
 4064              		.loc 1 944 0 is_stmt 1
 4065 1aa6 7A88     		ldrh	r2, [r7, #2]	@ movhi
 4066 1aa8 3B88     		ldrh	r3, [r7, #0]	@ movhi
 4067 1aaa 1343     		orrs	r3, r3, r2
 4068 1aac 9AB2     		uxth	r2, r3
 4069 1aae 7B68     		ldr	r3, [r7, #4]
 4070 1ab0 A3F84820 		strh	r2, [r3, #72]	@ movhi
 945:../SPL/src/stm32f10x_tim.c **** }
 4071              		.loc 1 945 0
 4072 1ab4 07F10807 		add	r7, r7, #8
 4073 1ab8 BD46     		mov	sp, r7
 4074 1aba 80BD     		pop	{r7, pc}
 4075              	.L161:
 4076              		.align	2
 4077              	.L160:
 4078 1abc 002C0140 		.word	1073818624
 4079 1ac0 00040040 		.word	1073742848
 4080 1ac4 00080040 		.word	1073743872
 4081 1ac8 000C0040 		.word	1073744896
 4082 1acc 00340140 		.word	1073820672
 4083 1ad0 00400140 		.word	1073823744
 4084 1ad4 00440140 		.word	1073824768
 4085 1ad8 00480140 		.word	1073825792
 4086 1adc 00000000 		.word	.LC0
 4087              		.cfi_endproc
 4088              	.LFE46:
 4090              		.align	2
 4091              		.global	TIM_DMACmd
 4092              		.thumb
 4093              		.thumb_func
 4095              	TIM_DMACmd:
 4096              	.LFB47:
 946:../SPL/src/stm32f10x_tim.c **** 
 947:../SPL/src/stm32f10x_tim.c **** /**
 948:../SPL/src/stm32f10x_tim.c ****   * @brief  Enables or disables the TIMx's DMA Requests.
 949:../SPL/src/stm32f10x_tim.c ****   * @param  TIMx: where x can be  1, 2, 3, 4, 5, 6, 7, 8, 15, 16 or 17 
 950:../SPL/src/stm32f10x_tim.c ****   *   to select the TIM peripheral. 
 951:../SPL/src/stm32f10x_tim.c ****   * @param  TIM_DMASource: specifies the DMA Request sources.
 952:../SPL/src/stm32f10x_tim.c ****   *   This parameter can be any combination of the following values:
 953:../SPL/src/stm32f10x_tim.c ****   *     @arg TIM_DMA_Update: TIM update Interrupt source
 954:../SPL/src/stm32f10x_tim.c ****   *     @arg TIM_DMA_CC1: TIM Capture Compare 1 DMA source
 955:../SPL/src/stm32f10x_tim.c ****   *     @arg TIM_DMA_CC2: TIM Capture Compare 2 DMA source
 956:../SPL/src/stm32f10x_tim.c ****   *     @arg TIM_DMA_CC3: TIM Capture Compare 3 DMA source
 957:../SPL/src/stm32f10x_tim.c ****   *     @arg TIM_DMA_CC4: TIM Capture Compare 4 DMA source
 958:../SPL/src/stm32f10x_tim.c ****   *     @arg TIM_DMA_COM: TIM Commutation DMA source
 959:../SPL/src/stm32f10x_tim.c ****   *     @arg TIM_DMA_Trigger: TIM Trigger DMA source
 960:../SPL/src/stm32f10x_tim.c ****   * @param  NewState: new state of the DMA Request sources.
 961:../SPL/src/stm32f10x_tim.c ****   *   This parameter can be: ENABLE or DISABLE.
 962:../SPL/src/stm32f10x_tim.c ****   * @retval None
 963:../SPL/src/stm32f10x_tim.c ****   */
 964:../SPL/src/stm32f10x_tim.c **** void TIM_DMACmd(TIM_TypeDef* TIMx, uint16_t TIM_DMASource, FunctionalState NewState)
 965:../SPL/src/stm32f10x_tim.c **** { 
 4097              		.loc 1 965 0
 4098              		.cfi_startproc
 4099              		@ args = 0, pretend = 0, frame = 8
 4100              		@ frame_needed = 1, uses_anonymous_args = 0
 4101 1ae0 80B5     		push	{r7, lr}
 4102              	.LCFI54:
 4103              		.cfi_def_cfa_offset 8
 4104              		.cfi_offset 7, -8
 4105              		.cfi_offset 14, -4
 4106 1ae2 82B0     		sub	sp, sp, #8
 4107              	.LCFI55:
 4108              		.cfi_def_cfa_offset 16
 4109 1ae4 00AF     		add	r7, sp, #0
 4110              	.LCFI56:
 4111              		.cfi_def_cfa_register 7
 4112 1ae6 7860     		str	r0, [r7, #4]
 4113 1ae8 1346     		mov	r3, r2
 4114 1aea 0A46     		mov	r2, r1	@ movhi
 4115 1aec 7A80     		strh	r2, [r7, #2]	@ movhi
 4116 1aee 7B70     		strb	r3, [r7, #1]
 966:../SPL/src/stm32f10x_tim.c ****   /* Check the parameters */
 967:../SPL/src/stm32f10x_tim.c ****   assert_param(IS_TIM_LIST9_PERIPH(TIMx));
 4117              		.loc 1 967 0
 4118 1af0 7A68     		ldr	r2, [r7, #4]
 4119 1af2 324B     		ldr	r3, .L169
 4120 1af4 9A42     		cmp	r2, r3
 4121 1af6 2CD0     		beq	.L163
 4122              		.loc 1 967 0 is_stmt 0 discriminator 1
 4123 1af8 7B68     		ldr	r3, [r7, #4]
 4124 1afa B3F1804F 		cmp	r3, #1073741824
 4125 1afe 28D0     		beq	.L163
 4126              		.loc 1 967 0 discriminator 2
 4127 1b00 7A68     		ldr	r2, [r7, #4]
 4128 1b02 2F4B     		ldr	r3, .L169+4
 4129 1b04 9A42     		cmp	r2, r3
 4130 1b06 24D0     		beq	.L163
 4131              		.loc 1 967 0 discriminator 3
 4132 1b08 7A68     		ldr	r2, [r7, #4]
 4133 1b0a 2E4B     		ldr	r3, .L169+8
 4134 1b0c 9A42     		cmp	r2, r3
 4135 1b0e 20D0     		beq	.L163
 4136              		.loc 1 967 0 discriminator 4
 4137 1b10 7A68     		ldr	r2, [r7, #4]
 4138 1b12 2D4B     		ldr	r3, .L169+12
 4139 1b14 9A42     		cmp	r2, r3
 4140 1b16 1CD0     		beq	.L163
 4141              		.loc 1 967 0 discriminator 5
 4142 1b18 7A68     		ldr	r2, [r7, #4]
 4143 1b1a 2C4B     		ldr	r3, .L169+16
 4144 1b1c 9A42     		cmp	r2, r3
 4145 1b1e 18D0     		beq	.L163
 4146              		.loc 1 967 0 discriminator 6
 4147 1b20 7A68     		ldr	r2, [r7, #4]
 4148 1b22 2B4B     		ldr	r3, .L169+20
 4149 1b24 9A42     		cmp	r2, r3
 4150 1b26 14D0     		beq	.L163
 4151              		.loc 1 967 0 discriminator 7
 4152 1b28 7A68     		ldr	r2, [r7, #4]
 4153 1b2a 2A4B     		ldr	r3, .L169+24
 4154 1b2c 9A42     		cmp	r2, r3
 4155 1b2e 10D0     		beq	.L163
 4156              		.loc 1 967 0 discriminator 8
 4157 1b30 7A68     		ldr	r2, [r7, #4]
 4158 1b32 294B     		ldr	r3, .L169+28
 4159 1b34 9A42     		cmp	r2, r3
 4160 1b36 0CD0     		beq	.L163
 4161              		.loc 1 967 0 discriminator 9
 4162 1b38 7A68     		ldr	r2, [r7, #4]
 4163 1b3a 284B     		ldr	r3, .L169+32
 4164 1b3c 9A42     		cmp	r2, r3
 4165 1b3e 08D0     		beq	.L163
 4166              		.loc 1 967 0 discriminator 10
 4167 1b40 7A68     		ldr	r2, [r7, #4]
 4168 1b42 274B     		ldr	r3, .L169+36
 4169 1b44 9A42     		cmp	r2, r3
 4170 1b46 04D0     		beq	.L163
 4171              		.loc 1 967 0 discriminator 11
 4172 1b48 2648     		ldr	r0, .L169+40
 4173 1b4a 40F2C731 		movw	r1, #967
 4174 1b4e FFF7FEFF 		bl	assert_failed
 4175              	.L163:
 968:../SPL/src/stm32f10x_tim.c ****   assert_param(IS_TIM_DMA_SOURCE(TIM_DMASource));
 4176              		.loc 1 968 0 is_stmt 1
 4177 1b52 7A88     		ldrh	r2, [r7, #2]
 4178 1b54 48F2FF03 		movw	r3, #33023
 4179 1b58 1340     		ands	r3, r3, r2
 4180 1b5a 002B     		cmp	r3, #0
 4181 1b5c 02D1     		bne	.L164
 4182              		.loc 1 968 0 is_stmt 0 discriminator 2
 4183 1b5e 7B88     		ldrh	r3, [r7, #2]
 4184 1b60 002B     		cmp	r3, #0
 4185 1b62 04D1     		bne	.L165
 4186              	.L164:
 4187              		.loc 1 968 0 discriminator 1
 4188 1b64 1F48     		ldr	r0, .L169+40
 4189 1b66 4FF47271 		mov	r1, #968
 4190 1b6a FFF7FEFF 		bl	assert_failed
 4191              	.L165:
 969:../SPL/src/stm32f10x_tim.c ****   assert_param(IS_FUNCTIONAL_STATE(NewState));
 4192              		.loc 1 969 0 is_stmt 1
 4193 1b6e 7B78     		ldrb	r3, [r7, #1]	@ zero_extendqisi2
 4194 1b70 002B     		cmp	r3, #0
 4195 1b72 07D0     		beq	.L166
 4196              		.loc 1 969 0 is_stmt 0 discriminator 1
 4197 1b74 7B78     		ldrb	r3, [r7, #1]	@ zero_extendqisi2
 4198 1b76 012B     		cmp	r3, #1
 4199 1b78 04D0     		beq	.L166
 4200              		.loc 1 969 0 discriminator 2
 4201 1b7a 1A48     		ldr	r0, .L169+40
 4202 1b7c 40F2C931 		movw	r1, #969
 4203 1b80 FFF7FEFF 		bl	assert_failed
 4204              	.L166:
 970:../SPL/src/stm32f10x_tim.c ****   
 971:../SPL/src/stm32f10x_tim.c ****   if (NewState != DISABLE)
 4205              		.loc 1 971 0 is_stmt 1
 4206 1b84 7B78     		ldrb	r3, [r7, #1]	@ zero_extendqisi2
 4207 1b86 002B     		cmp	r3, #0
 4208 1b88 08D0     		beq	.L167
 972:../SPL/src/stm32f10x_tim.c ****   {
 973:../SPL/src/stm32f10x_tim.c ****     /* Enable the DMA sources */
 974:../SPL/src/stm32f10x_tim.c ****     TIMx->DIER |= TIM_DMASource; 
 4209              		.loc 1 974 0
 4210 1b8a 7B68     		ldr	r3, [r7, #4]
 4211 1b8c 9B89     		ldrh	r3, [r3, #12]	@ movhi
 4212 1b8e 9AB2     		uxth	r2, r3
 4213 1b90 7B88     		ldrh	r3, [r7, #2]	@ movhi
 4214 1b92 1343     		orrs	r3, r3, r2
 4215 1b94 9AB2     		uxth	r2, r3
 4216 1b96 7B68     		ldr	r3, [r7, #4]
 4217 1b98 9A81     		strh	r2, [r3, #12]	@ movhi
 4218 1b9a 0AE0     		b	.L162
 4219              	.L167:
 975:../SPL/src/stm32f10x_tim.c ****   }
 976:../SPL/src/stm32f10x_tim.c ****   else
 977:../SPL/src/stm32f10x_tim.c ****   {
 978:../SPL/src/stm32f10x_tim.c ****     /* Disable the DMA sources */
 979:../SPL/src/stm32f10x_tim.c ****     TIMx->DIER &= (uint16_t)~TIM_DMASource;
 4220              		.loc 1 979 0
 4221 1b9c 7B68     		ldr	r3, [r7, #4]
 4222 1b9e 9B89     		ldrh	r3, [r3, #12]	@ movhi
 4223 1ba0 9AB2     		uxth	r2, r3
 4224 1ba2 7B88     		ldrh	r3, [r7, #2]	@ movhi
 4225 1ba4 6FEA0303 		mvn	r3, r3
 4226 1ba8 9BB2     		uxth	r3, r3
 4227 1baa 1340     		ands	r3, r3, r2
 4228 1bac 9AB2     		uxth	r2, r3
 4229 1bae 7B68     		ldr	r3, [r7, #4]
 4230 1bb0 9A81     		strh	r2, [r3, #12]	@ movhi
 4231              	.L162:
 980:../SPL/src/stm32f10x_tim.c ****   }
 981:../SPL/src/stm32f10x_tim.c **** }
 4232              		.loc 1 981 0
 4233 1bb2 07F10807 		add	r7, r7, #8
 4234 1bb6 BD46     		mov	sp, r7
 4235 1bb8 80BD     		pop	{r7, pc}
 4236              	.L170:
 4237 1bba 00BF     		.align	2
 4238              	.L169:
 4239 1bbc 002C0140 		.word	1073818624
 4240 1bc0 00040040 		.word	1073742848
 4241 1bc4 00080040 		.word	1073743872
 4242 1bc8 000C0040 		.word	1073744896
 4243 1bcc 00100040 		.word	1073745920
 4244 1bd0 00140040 		.word	1073746944
 4245 1bd4 00340140 		.word	1073820672
 4246 1bd8 00400140 		.word	1073823744
 4247 1bdc 00440140 		.word	1073824768
 4248 1be0 00480140 		.word	1073825792
 4249 1be4 00000000 		.word	.LC0
 4250              		.cfi_endproc
 4251              	.LFE47:
 4253              		.align	2
 4254              		.global	TIM_InternalClockConfig
 4255              		.thumb
 4256              		.thumb_func
 4258              	TIM_InternalClockConfig:
 4259              	.LFB48:
 982:../SPL/src/stm32f10x_tim.c **** 
 983:../SPL/src/stm32f10x_tim.c **** /**
 984:../SPL/src/stm32f10x_tim.c ****   * @brief  Configures the TIMx internal Clock
 985:../SPL/src/stm32f10x_tim.c ****   * @param  TIMx: where x can be  1, 2, 3, 4, 5, 8, 9, 12 or 15
 986:../SPL/src/stm32f10x_tim.c ****   *         to select the TIM peripheral.
 987:../SPL/src/stm32f10x_tim.c ****   * @retval None
 988:../SPL/src/stm32f10x_tim.c ****   */
 989:../SPL/src/stm32f10x_tim.c **** void TIM_InternalClockConfig(TIM_TypeDef* TIMx)
 990:../SPL/src/stm32f10x_tim.c **** {
 4260              		.loc 1 990 0
 4261              		.cfi_startproc
 4262              		@ args = 0, pretend = 0, frame = 8
 4263              		@ frame_needed = 1, uses_anonymous_args = 0
 4264 1be8 80B5     		push	{r7, lr}
 4265              	.LCFI57:
 4266              		.cfi_def_cfa_offset 8
 4267              		.cfi_offset 7, -8
 4268              		.cfi_offset 14, -4
 4269 1bea 82B0     		sub	sp, sp, #8
 4270              	.LCFI58:
 4271              		.cfi_def_cfa_offset 16
 4272 1bec 00AF     		add	r7, sp, #0
 4273              	.LCFI59:
 4274              		.cfi_def_cfa_register 7
 4275 1bee 7860     		str	r0, [r7, #4]
 991:../SPL/src/stm32f10x_tim.c ****   /* Check the parameters */
 992:../SPL/src/stm32f10x_tim.c ****   assert_param(IS_TIM_LIST6_PERIPH(TIMx));
 4276              		.loc 1 992 0
 4277 1bf0 7A68     		ldr	r2, [r7, #4]
 4278 1bf2 1A4B     		ldr	r3, .L173
 4279 1bf4 9A42     		cmp	r2, r3
 4280 1bf6 24D0     		beq	.L172
 4281              		.loc 1 992 0 is_stmt 0 discriminator 1
 4282 1bf8 7B68     		ldr	r3, [r7, #4]
 4283 1bfa B3F1804F 		cmp	r3, #1073741824
 4284 1bfe 20D0     		beq	.L172
 4285              		.loc 1 992 0 discriminator 2
 4286 1c00 7A68     		ldr	r2, [r7, #4]
 4287 1c02 174B     		ldr	r3, .L173+4
 4288 1c04 9A42     		cmp	r2, r3
 4289 1c06 1CD0     		beq	.L172
 4290              		.loc 1 992 0 discriminator 3
 4291 1c08 7A68     		ldr	r2, [r7, #4]
 4292 1c0a 164B     		ldr	r3, .L173+8
 4293 1c0c 9A42     		cmp	r2, r3
 4294 1c0e 18D0     		beq	.L172
 4295              		.loc 1 992 0 discriminator 4
 4296 1c10 7A68     		ldr	r2, [r7, #4]
 4297 1c12 154B     		ldr	r3, .L173+12
 4298 1c14 9A42     		cmp	r2, r3
 4299 1c16 14D0     		beq	.L172
 4300              		.loc 1 992 0 discriminator 5
 4301 1c18 7A68     		ldr	r2, [r7, #4]
 4302 1c1a 144B     		ldr	r3, .L173+16
 4303 1c1c 9A42     		cmp	r2, r3
 4304 1c1e 10D0     		beq	.L172
 4305              		.loc 1 992 0 discriminator 6
 4306 1c20 7A68     		ldr	r2, [r7, #4]
 4307 1c22 134B     		ldr	r3, .L173+20
 4308 1c24 9A42     		cmp	r2, r3
 4309 1c26 0CD0     		beq	.L172
 4310              		.loc 1 992 0 discriminator 7
 4311 1c28 7A68     		ldr	r2, [r7, #4]
 4312 1c2a 124B     		ldr	r3, .L173+24
 4313 1c2c 9A42     		cmp	r2, r3
 4314 1c2e 08D0     		beq	.L172
 4315              		.loc 1 992 0 discriminator 8
 4316 1c30 7A68     		ldr	r2, [r7, #4]
 4317 1c32 114B     		ldr	r3, .L173+28
 4318 1c34 9A42     		cmp	r2, r3
 4319 1c36 04D0     		beq	.L172
 4320              		.loc 1 992 0 discriminator 9
 4321 1c38 1048     		ldr	r0, .L173+32
 4322 1c3a 4FF47871 		mov	r1, #992
 4323 1c3e FFF7FEFF 		bl	assert_failed
 4324              	.L172:
 993:../SPL/src/stm32f10x_tim.c ****   /* Disable slave mode to clock the prescaler directly with the internal clock */
 994:../SPL/src/stm32f10x_tim.c ****   TIMx->SMCR &=  (uint16_t)(~((uint16_t)TIM_SMCR_SMS));
 4325              		.loc 1 994 0 is_stmt 1
 4326 1c42 7B68     		ldr	r3, [r7, #4]
 4327 1c44 1B89     		ldrh	r3, [r3, #8]	@ movhi
 4328 1c46 9BB2     		uxth	r3, r3
 4329 1c48 23F00703 		bic	r3, r3, #7
 4330 1c4c 9AB2     		uxth	r2, r3
 4331 1c4e 7B68     		ldr	r3, [r7, #4]
 4332 1c50 1A81     		strh	r2, [r3, #8]	@ movhi
 995:../SPL/src/stm32f10x_tim.c **** }
 4333              		.loc 1 995 0
 4334 1c52 07F10807 		add	r7, r7, #8
 4335 1c56 BD46     		mov	sp, r7
 4336 1c58 80BD     		pop	{r7, pc}
 4337              	.L174:
 4338 1c5a 00BF     		.align	2
 4339              	.L173:
 4340 1c5c 002C0140 		.word	1073818624
 4341 1c60 00040040 		.word	1073742848
 4342 1c64 00080040 		.word	1073743872
 4343 1c68 000C0040 		.word	1073744896
 4344 1c6c 00340140 		.word	1073820672
 4345 1c70 004C0140 		.word	1073826816
 4346 1c74 00180040 		.word	1073747968
 4347 1c78 00400140 		.word	1073823744
 4348 1c7c 00000000 		.word	.LC0
 4349              		.cfi_endproc
 4350              	.LFE48:
 4352              		.align	2
 4353              		.global	TIM_ITRxExternalClockConfig
 4354              		.thumb
 4355              		.thumb_func
 4357              	TIM_ITRxExternalClockConfig:
 4358              	.LFB49:
 996:../SPL/src/stm32f10x_tim.c **** 
 997:../SPL/src/stm32f10x_tim.c **** /**
 998:../SPL/src/stm32f10x_tim.c ****   * @brief  Configures the TIMx Internal Trigger as External Clock
 999:../SPL/src/stm32f10x_tim.c ****   * @param  TIMx: where x can be  1, 2, 3, 4, 5, 9, 12 or 15 to select the TIM peripheral.
1000:../SPL/src/stm32f10x_tim.c ****   * @param  TIM_ITRSource: Trigger source.
1001:../SPL/src/stm32f10x_tim.c ****   *   This parameter can be one of the following values:
1002:../SPL/src/stm32f10x_tim.c ****   * @param  TIM_TS_ITR0: Internal Trigger 0
1003:../SPL/src/stm32f10x_tim.c ****   * @param  TIM_TS_ITR1: Internal Trigger 1
1004:../SPL/src/stm32f10x_tim.c ****   * @param  TIM_TS_ITR2: Internal Trigger 2
1005:../SPL/src/stm32f10x_tim.c ****   * @param  TIM_TS_ITR3: Internal Trigger 3
1006:../SPL/src/stm32f10x_tim.c ****   * @retval None
1007:../SPL/src/stm32f10x_tim.c ****   */
1008:../SPL/src/stm32f10x_tim.c **** void TIM_ITRxExternalClockConfig(TIM_TypeDef* TIMx, uint16_t TIM_InputTriggerSource)
1009:../SPL/src/stm32f10x_tim.c **** {
 4359              		.loc 1 1009 0
 4360              		.cfi_startproc
 4361              		@ args = 0, pretend = 0, frame = 8
 4362              		@ frame_needed = 1, uses_anonymous_args = 0
 4363 1c80 80B5     		push	{r7, lr}
 4364              	.LCFI60:
 4365              		.cfi_def_cfa_offset 8
 4366              		.cfi_offset 7, -8
 4367              		.cfi_offset 14, -4
 4368 1c82 82B0     		sub	sp, sp, #8
 4369              	.LCFI61:
 4370              		.cfi_def_cfa_offset 16
 4371 1c84 00AF     		add	r7, sp, #0
 4372              	.LCFI62:
 4373              		.cfi_def_cfa_register 7
 4374 1c86 7860     		str	r0, [r7, #4]
 4375 1c88 0B46     		mov	r3, r1
 4376 1c8a 7B80     		strh	r3, [r7, #2]	@ movhi
1010:../SPL/src/stm32f10x_tim.c ****   /* Check the parameters */
1011:../SPL/src/stm32f10x_tim.c ****   assert_param(IS_TIM_LIST6_PERIPH(TIMx));
 4377              		.loc 1 1011 0
 4378 1c8c 7A68     		ldr	r2, [r7, #4]
 4379 1c8e 254B     		ldr	r3, .L178
 4380 1c90 9A42     		cmp	r2, r3
 4381 1c92 24D0     		beq	.L176
 4382              		.loc 1 1011 0 is_stmt 0 discriminator 1
 4383 1c94 7B68     		ldr	r3, [r7, #4]
 4384 1c96 B3F1804F 		cmp	r3, #1073741824
 4385 1c9a 20D0     		beq	.L176
 4386              		.loc 1 1011 0 discriminator 2
 4387 1c9c 7A68     		ldr	r2, [r7, #4]
 4388 1c9e 224B     		ldr	r3, .L178+4
 4389 1ca0 9A42     		cmp	r2, r3
 4390 1ca2 1CD0     		beq	.L176
 4391              		.loc 1 1011 0 discriminator 3
 4392 1ca4 7A68     		ldr	r2, [r7, #4]
 4393 1ca6 214B     		ldr	r3, .L178+8
 4394 1ca8 9A42     		cmp	r2, r3
 4395 1caa 18D0     		beq	.L176
 4396              		.loc 1 1011 0 discriminator 4
 4397 1cac 7A68     		ldr	r2, [r7, #4]
 4398 1cae 204B     		ldr	r3, .L178+12
 4399 1cb0 9A42     		cmp	r2, r3
 4400 1cb2 14D0     		beq	.L176
 4401              		.loc 1 1011 0 discriminator 5
 4402 1cb4 7A68     		ldr	r2, [r7, #4]
 4403 1cb6 1F4B     		ldr	r3, .L178+16
 4404 1cb8 9A42     		cmp	r2, r3
 4405 1cba 10D0     		beq	.L176
 4406              		.loc 1 1011 0 discriminator 6
 4407 1cbc 7A68     		ldr	r2, [r7, #4]
 4408 1cbe 1E4B     		ldr	r3, .L178+20
 4409 1cc0 9A42     		cmp	r2, r3
 4410 1cc2 0CD0     		beq	.L176
 4411              		.loc 1 1011 0 discriminator 7
 4412 1cc4 7A68     		ldr	r2, [r7, #4]
 4413 1cc6 1D4B     		ldr	r3, .L178+24
 4414 1cc8 9A42     		cmp	r2, r3
 4415 1cca 08D0     		beq	.L176
 4416              		.loc 1 1011 0 discriminator 8
 4417 1ccc 7A68     		ldr	r2, [r7, #4]
 4418 1cce 1C4B     		ldr	r3, .L178+28
 4419 1cd0 9A42     		cmp	r2, r3
 4420 1cd2 04D0     		beq	.L176
 4421              		.loc 1 1011 0 discriminator 9
 4422 1cd4 1B48     		ldr	r0, .L178+32
 4423 1cd6 40F2F331 		movw	r1, #1011
 4424 1cda FFF7FEFF 		bl	assert_failed
 4425              	.L176:
1012:../SPL/src/stm32f10x_tim.c ****   assert_param(IS_TIM_INTERNAL_TRIGGER_SELECTION(TIM_InputTriggerSource));
 4426              		.loc 1 1012 0 is_stmt 1
 4427 1cde 7B88     		ldrh	r3, [r7, #2]
 4428 1ce0 002B     		cmp	r3, #0
 4429 1ce2 0DD0     		beq	.L177
 4430              		.loc 1 1012 0 is_stmt 0 discriminator 1
 4431 1ce4 7B88     		ldrh	r3, [r7, #2]
 4432 1ce6 102B     		cmp	r3, #16
 4433 1ce8 0AD0     		beq	.L177
 4434              		.loc 1 1012 0 discriminator 2
 4435 1cea 7B88     		ldrh	r3, [r7, #2]
 4436 1cec 202B     		cmp	r3, #32
 4437 1cee 07D0     		beq	.L177
 4438              		.loc 1 1012 0 discriminator 3
 4439 1cf0 7B88     		ldrh	r3, [r7, #2]
 4440 1cf2 302B     		cmp	r3, #48
 4441 1cf4 04D0     		beq	.L177
 4442              		.loc 1 1012 0 discriminator 4
 4443 1cf6 1348     		ldr	r0, .L178+32
 4444 1cf8 4FF47D71 		mov	r1, #1012
 4445 1cfc FFF7FEFF 		bl	assert_failed
 4446              	.L177:
1013:../SPL/src/stm32f10x_tim.c ****   /* Select the Internal Trigger */
1014:../SPL/src/stm32f10x_tim.c ****   TIM_SelectInputTrigger(TIMx, TIM_InputTriggerSource);
 4447              		.loc 1 1014 0 is_stmt 1
 4448 1d00 7B88     		ldrh	r3, [r7, #2]
 4449 1d02 7868     		ldr	r0, [r7, #4]
 4450 1d04 1946     		mov	r1, r3
 4451 1d06 FFF7FEFF 		bl	TIM_SelectInputTrigger
1015:../SPL/src/stm32f10x_tim.c ****   /* Select the External clock mode1 */
1016:../SPL/src/stm32f10x_tim.c ****   TIMx->SMCR |= TIM_SlaveMode_External1;
 4452              		.loc 1 1016 0
 4453 1d0a 7B68     		ldr	r3, [r7, #4]
 4454 1d0c 1B89     		ldrh	r3, [r3, #8]	@ movhi
 4455 1d0e 9BB2     		uxth	r3, r3
 4456 1d10 43F00703 		orr	r3, r3, #7
 4457 1d14 9AB2     		uxth	r2, r3
 4458 1d16 7B68     		ldr	r3, [r7, #4]
 4459 1d18 1A81     		strh	r2, [r3, #8]	@ movhi
1017:../SPL/src/stm32f10x_tim.c **** }
 4460              		.loc 1 1017 0
 4461 1d1a 07F10807 		add	r7, r7, #8
 4462 1d1e BD46     		mov	sp, r7
 4463 1d20 80BD     		pop	{r7, pc}
 4464              	.L179:
 4465 1d22 00BF     		.align	2
 4466              	.L178:
 4467 1d24 002C0140 		.word	1073818624
 4468 1d28 00040040 		.word	1073742848
 4469 1d2c 00080040 		.word	1073743872
 4470 1d30 000C0040 		.word	1073744896
 4471 1d34 00340140 		.word	1073820672
 4472 1d38 004C0140 		.word	1073826816
 4473 1d3c 00180040 		.word	1073747968
 4474 1d40 00400140 		.word	1073823744
 4475 1d44 00000000 		.word	.LC0
 4476              		.cfi_endproc
 4477              	.LFE49:
 4479              		.align	2
 4480              		.global	TIM_TIxExternalClockConfig
 4481              		.thumb
 4482              		.thumb_func
 4484              	TIM_TIxExternalClockConfig:
 4485              	.LFB50:
1018:../SPL/src/stm32f10x_tim.c **** 
1019:../SPL/src/stm32f10x_tim.c **** /**
1020:../SPL/src/stm32f10x_tim.c ****   * @brief  Configures the TIMx Trigger as External Clock
1021:../SPL/src/stm32f10x_tim.c ****   * @param  TIMx: where x can be  1, 2, 3, 4, 5, 9, 12 or 15 to select the TIM peripheral.
1022:../SPL/src/stm32f10x_tim.c ****   * @param  TIM_TIxExternalCLKSource: Trigger source.
1023:../SPL/src/stm32f10x_tim.c ****   *   This parameter can be one of the following values:
1024:../SPL/src/stm32f10x_tim.c ****   *     @arg TIM_TIxExternalCLK1Source_TI1ED: TI1 Edge Detector
1025:../SPL/src/stm32f10x_tim.c ****   *     @arg TIM_TIxExternalCLK1Source_TI1: Filtered Timer Input 1
1026:../SPL/src/stm32f10x_tim.c ****   *     @arg TIM_TIxExternalCLK1Source_TI2: Filtered Timer Input 2
1027:../SPL/src/stm32f10x_tim.c ****   * @param  TIM_ICPolarity: specifies the TIx Polarity.
1028:../SPL/src/stm32f10x_tim.c ****   *   This parameter can be one of the following values:
1029:../SPL/src/stm32f10x_tim.c ****   *     @arg TIM_ICPolarity_Rising
1030:../SPL/src/stm32f10x_tim.c ****   *     @arg TIM_ICPolarity_Falling
1031:../SPL/src/stm32f10x_tim.c ****   * @param  ICFilter : specifies the filter value.
1032:../SPL/src/stm32f10x_tim.c ****   *   This parameter must be a value between 0x0 and 0xF.
1033:../SPL/src/stm32f10x_tim.c ****   * @retval None
1034:../SPL/src/stm32f10x_tim.c ****   */
1035:../SPL/src/stm32f10x_tim.c **** void TIM_TIxExternalClockConfig(TIM_TypeDef* TIMx, uint16_t TIM_TIxExternalCLKSource,
1036:../SPL/src/stm32f10x_tim.c ****                                 uint16_t TIM_ICPolarity, uint16_t ICFilter)
1037:../SPL/src/stm32f10x_tim.c **** {
 4486              		.loc 1 1037 0
 4487              		.cfi_startproc
 4488              		@ args = 0, pretend = 0, frame = 16
 4489              		@ frame_needed = 1, uses_anonymous_args = 0
 4490 1d48 80B5     		push	{r7, lr}
 4491              	.LCFI63:
 4492              		.cfi_def_cfa_offset 8
 4493              		.cfi_offset 7, -8
 4494              		.cfi_offset 14, -4
 4495 1d4a 84B0     		sub	sp, sp, #16
 4496              	.LCFI64:
 4497              		.cfi_def_cfa_offset 24
 4498 1d4c 00AF     		add	r7, sp, #0
 4499              	.LCFI65:
 4500              		.cfi_def_cfa_register 7
 4501 1d4e F860     		str	r0, [r7, #12]
 4502 1d50 7981     		strh	r1, [r7, #10]	@ movhi
 4503 1d52 3A81     		strh	r2, [r7, #8]	@ movhi
 4504 1d54 FB80     		strh	r3, [r7, #6]	@ movhi
1038:../SPL/src/stm32f10x_tim.c ****   /* Check the parameters */
1039:../SPL/src/stm32f10x_tim.c ****   assert_param(IS_TIM_LIST6_PERIPH(TIMx));
 4505              		.loc 1 1039 0
 4506 1d56 FA68     		ldr	r2, [r7, #12]
 4507 1d58 364B     		ldr	r3, .L187
 4508 1d5a 9A42     		cmp	r2, r3
 4509 1d5c 24D0     		beq	.L181
 4510              		.loc 1 1039 0 is_stmt 0 discriminator 1
 4511 1d5e FB68     		ldr	r3, [r7, #12]
 4512 1d60 B3F1804F 		cmp	r3, #1073741824
 4513 1d64 20D0     		beq	.L181
 4514              		.loc 1 1039 0 discriminator 2
 4515 1d66 FA68     		ldr	r2, [r7, #12]
 4516 1d68 334B     		ldr	r3, .L187+4
 4517 1d6a 9A42     		cmp	r2, r3
 4518 1d6c 1CD0     		beq	.L181
 4519              		.loc 1 1039 0 discriminator 3
 4520 1d6e FA68     		ldr	r2, [r7, #12]
 4521 1d70 324B     		ldr	r3, .L187+8
 4522 1d72 9A42     		cmp	r2, r3
 4523 1d74 18D0     		beq	.L181
 4524              		.loc 1 1039 0 discriminator 4
 4525 1d76 FA68     		ldr	r2, [r7, #12]
 4526 1d78 314B     		ldr	r3, .L187+12
 4527 1d7a 9A42     		cmp	r2, r3
 4528 1d7c 14D0     		beq	.L181
 4529              		.loc 1 1039 0 discriminator 5
 4530 1d7e FA68     		ldr	r2, [r7, #12]
 4531 1d80 304B     		ldr	r3, .L187+16
 4532 1d82 9A42     		cmp	r2, r3
 4533 1d84 10D0     		beq	.L181
 4534              		.loc 1 1039 0 discriminator 6
 4535 1d86 FA68     		ldr	r2, [r7, #12]
 4536 1d88 2F4B     		ldr	r3, .L187+20
 4537 1d8a 9A42     		cmp	r2, r3
 4538 1d8c 0CD0     		beq	.L181
 4539              		.loc 1 1039 0 discriminator 7
 4540 1d8e FA68     		ldr	r2, [r7, #12]
 4541 1d90 2E4B     		ldr	r3, .L187+24
 4542 1d92 9A42     		cmp	r2, r3
 4543 1d94 08D0     		beq	.L181
 4544              		.loc 1 1039 0 discriminator 8
 4545 1d96 FA68     		ldr	r2, [r7, #12]
 4546 1d98 2D4B     		ldr	r3, .L187+28
 4547 1d9a 9A42     		cmp	r2, r3
 4548 1d9c 04D0     		beq	.L181
 4549              		.loc 1 1039 0 discriminator 9
 4550 1d9e 2D48     		ldr	r0, .L187+32
 4551 1da0 40F20F41 		movw	r1, #1039
 4552 1da4 FFF7FEFF 		bl	assert_failed
 4553              	.L181:
1040:../SPL/src/stm32f10x_tim.c ****   assert_param(IS_TIM_TIXCLK_SOURCE(TIM_TIxExternalCLKSource));
 4554              		.loc 1 1040 0 is_stmt 1
 4555 1da8 7B89     		ldrh	r3, [r7, #10]
 4556 1daa 502B     		cmp	r3, #80
 4557 1dac 0AD0     		beq	.L182
 4558              		.loc 1 1040 0 is_stmt 0 discriminator 1
 4559 1dae 7B89     		ldrh	r3, [r7, #10]
 4560 1db0 602B     		cmp	r3, #96
 4561 1db2 07D0     		beq	.L182
 4562              		.loc 1 1040 0 discriminator 2
 4563 1db4 7B89     		ldrh	r3, [r7, #10]
 4564 1db6 402B     		cmp	r3, #64
 4565 1db8 04D0     		beq	.L182
 4566              		.loc 1 1040 0 discriminator 3
 4567 1dba 2648     		ldr	r0, .L187+32
 4568 1dbc 4FF48261 		mov	r1, #1040
 4569 1dc0 FFF7FEFF 		bl	assert_failed
 4570              	.L182:
