   1              		.syntax unified
   2              		.cpu cortex-m3
   3              		.fpu softvfp
   4              		.eabi_attribute 20, 1
   5              		.eabi_attribute 21, 1
   6              		.eabi_attribute 23, 3
   7              		.eabi_attribute 24, 1
   8              		.eabi_attribute 25, 1
   9              		.eabi_attribute 26, 1
  10              		.eabi_attribute 30, 6
  11              		.eabi_attribute 34, 1
  12              		.eabi_attribute 18, 4
  13              		.thumb
  14              		.file	"stm32f10x_flash.c"
  15              		.text
  16              	.Ltext0:
  17              		.cfi_sections	.debug_frame
  18              		.section	.rodata
  19              		.align	2
  20              	.LC0:
  21 0000 2E2E2F53 		.ascii	"../SPL/src/stm32f10x_flash.c\000"
  21      504C2F73 
  21      72632F73 
  21      746D3332 
  21      66313078 
  22 001d 000000   		.text
  23              		.align	2
  24              		.global	FLASH_SetLatency
  25              		.thumb
  26              		.thumb_func
  28              	FLASH_SetLatency:
  29              	.LFB29:
  30              		.file 1 "../SPL/src/stm32f10x_flash.c"
   1:../SPL/src/stm32f10x_flash.c **** /**
   2:../SPL/src/stm32f10x_flash.c ****   ******************************************************************************
   3:../SPL/src/stm32f10x_flash.c ****   * @file    stm32f10x_flash.c
   4:../SPL/src/stm32f10x_flash.c ****   * @author  MCD Application Team
   5:../SPL/src/stm32f10x_flash.c ****   * @version V3.5.0
   6:../SPL/src/stm32f10x_flash.c ****   * @date    11-March-2011
   7:../SPL/src/stm32f10x_flash.c ****   * @brief   This file provides all the FLASH firmware functions.
   8:../SPL/src/stm32f10x_flash.c ****   ******************************************************************************
   9:../SPL/src/stm32f10x_flash.c ****   * @attention
  10:../SPL/src/stm32f10x_flash.c ****   *
  11:../SPL/src/stm32f10x_flash.c ****   * THE PRESENT FIRMWARE WHICH IS FOR GUIDANCE ONLY AIMS AT PROVIDING CUSTOMERS
  12:../SPL/src/stm32f10x_flash.c ****   * WITH CODING INFORMATION REGARDING THEIR PRODUCTS IN ORDER FOR THEM TO SAVE
  13:../SPL/src/stm32f10x_flash.c ****   * TIME. AS A RESULT, STMICROELECTRONICS SHALL NOT BE HELD LIABLE FOR ANY
  14:../SPL/src/stm32f10x_flash.c ****   * DIRECT, INDIRECT OR CONSEQUENTIAL DAMAGES WITH RESPECT TO ANY CLAIMS ARISING
  15:../SPL/src/stm32f10x_flash.c ****   * FROM THE CONTENT OF SUCH FIRMWARE AND/OR THE USE MADE BY CUSTOMERS OF THE
  16:../SPL/src/stm32f10x_flash.c ****   * CODING INFORMATION CONTAINED HEREIN IN CONNECTION WITH THEIR PRODUCTS.
  17:../SPL/src/stm32f10x_flash.c ****   *
  18:../SPL/src/stm32f10x_flash.c ****   * <h2><center>&copy; COPYRIGHT 2011 STMicroelectronics</center></h2>
  19:../SPL/src/stm32f10x_flash.c ****   ******************************************************************************
  20:../SPL/src/stm32f10x_flash.c ****   */
  21:../SPL/src/stm32f10x_flash.c **** 
  22:../SPL/src/stm32f10x_flash.c **** /* Includes ------------------------------------------------------------------*/
  23:../SPL/src/stm32f10x_flash.c **** #include "stm32f10x_flash.h"
  24:../SPL/src/stm32f10x_flash.c **** 
  25:../SPL/src/stm32f10x_flash.c **** /** @addtogroup STM32F10x_StdPeriph_Driver
  26:../SPL/src/stm32f10x_flash.c ****   * @{
  27:../SPL/src/stm32f10x_flash.c ****   */
  28:../SPL/src/stm32f10x_flash.c **** 
  29:../SPL/src/stm32f10x_flash.c **** /** @defgroup FLASH 
  30:../SPL/src/stm32f10x_flash.c ****   * @brief FLASH driver modules
  31:../SPL/src/stm32f10x_flash.c ****   * @{
  32:../SPL/src/stm32f10x_flash.c ****   */ 
  33:../SPL/src/stm32f10x_flash.c **** 
  34:../SPL/src/stm32f10x_flash.c **** /** @defgroup FLASH_Private_TypesDefinitions
  35:../SPL/src/stm32f10x_flash.c ****   * @{
  36:../SPL/src/stm32f10x_flash.c ****   */
  37:../SPL/src/stm32f10x_flash.c **** 
  38:../SPL/src/stm32f10x_flash.c **** /**
  39:../SPL/src/stm32f10x_flash.c ****   * @}
  40:../SPL/src/stm32f10x_flash.c ****   */ 
  41:../SPL/src/stm32f10x_flash.c **** 
  42:../SPL/src/stm32f10x_flash.c **** /** @defgroup FLASH_Private_Defines
  43:../SPL/src/stm32f10x_flash.c ****   * @{
  44:../SPL/src/stm32f10x_flash.c ****   */ 
  45:../SPL/src/stm32f10x_flash.c **** 
  46:../SPL/src/stm32f10x_flash.c **** /* Flash Access Control Register bits */
  47:../SPL/src/stm32f10x_flash.c **** #define ACR_LATENCY_Mask         ((uint32_t)0x00000038)
  48:../SPL/src/stm32f10x_flash.c **** #define ACR_HLFCYA_Mask          ((uint32_t)0xFFFFFFF7)
  49:../SPL/src/stm32f10x_flash.c **** #define ACR_PRFTBE_Mask          ((uint32_t)0xFFFFFFEF)
  50:../SPL/src/stm32f10x_flash.c **** 
  51:../SPL/src/stm32f10x_flash.c **** /* Flash Access Control Register bits */
  52:../SPL/src/stm32f10x_flash.c **** #define ACR_PRFTBS_Mask          ((uint32_t)0x00000020) 
  53:../SPL/src/stm32f10x_flash.c **** 
  54:../SPL/src/stm32f10x_flash.c **** /* Flash Control Register bits */
  55:../SPL/src/stm32f10x_flash.c **** #define CR_PG_Set                ((uint32_t)0x00000001)
  56:../SPL/src/stm32f10x_flash.c **** #define CR_PG_Reset              ((uint32_t)0x00001FFE) 
  57:../SPL/src/stm32f10x_flash.c **** #define CR_PER_Set               ((uint32_t)0x00000002)
  58:../SPL/src/stm32f10x_flash.c **** #define CR_PER_Reset             ((uint32_t)0x00001FFD)
  59:../SPL/src/stm32f10x_flash.c **** #define CR_MER_Set               ((uint32_t)0x00000004)
  60:../SPL/src/stm32f10x_flash.c **** #define CR_MER_Reset             ((uint32_t)0x00001FFB)
  61:../SPL/src/stm32f10x_flash.c **** #define CR_OPTPG_Set             ((uint32_t)0x00000010)
  62:../SPL/src/stm32f10x_flash.c **** #define CR_OPTPG_Reset           ((uint32_t)0x00001FEF)
  63:../SPL/src/stm32f10x_flash.c **** #define CR_OPTER_Set             ((uint32_t)0x00000020)
  64:../SPL/src/stm32f10x_flash.c **** #define CR_OPTER_Reset           ((uint32_t)0x00001FDF)
  65:../SPL/src/stm32f10x_flash.c **** #define CR_STRT_Set              ((uint32_t)0x00000040)
  66:../SPL/src/stm32f10x_flash.c **** #define CR_LOCK_Set              ((uint32_t)0x00000080)
  67:../SPL/src/stm32f10x_flash.c **** 
  68:../SPL/src/stm32f10x_flash.c **** /* FLASH Mask */
  69:../SPL/src/stm32f10x_flash.c **** #define RDPRT_Mask               ((uint32_t)0x00000002)
  70:../SPL/src/stm32f10x_flash.c **** #define WRP0_Mask                ((uint32_t)0x000000FF)
  71:../SPL/src/stm32f10x_flash.c **** #define WRP1_Mask                ((uint32_t)0x0000FF00)
  72:../SPL/src/stm32f10x_flash.c **** #define WRP2_Mask                ((uint32_t)0x00FF0000)
  73:../SPL/src/stm32f10x_flash.c **** #define WRP3_Mask                ((uint32_t)0xFF000000)
  74:../SPL/src/stm32f10x_flash.c **** #define OB_USER_BFB2             ((uint16_t)0x0008)
  75:../SPL/src/stm32f10x_flash.c **** 
  76:../SPL/src/stm32f10x_flash.c **** /* FLASH Keys */
  77:../SPL/src/stm32f10x_flash.c **** #define RDP_Key                  ((uint16_t)0x00A5)
  78:../SPL/src/stm32f10x_flash.c **** #define FLASH_KEY1               ((uint32_t)0x45670123)
  79:../SPL/src/stm32f10x_flash.c **** #define FLASH_KEY2               ((uint32_t)0xCDEF89AB)
  80:../SPL/src/stm32f10x_flash.c **** 
  81:../SPL/src/stm32f10x_flash.c **** /* FLASH BANK address */
  82:../SPL/src/stm32f10x_flash.c **** #define FLASH_BANK1_END_ADDRESS   ((uint32_t)0x807FFFF)
  83:../SPL/src/stm32f10x_flash.c **** 
  84:../SPL/src/stm32f10x_flash.c **** /* Delay definition */   
  85:../SPL/src/stm32f10x_flash.c **** #define EraseTimeout          ((uint32_t)0x000B0000)
  86:../SPL/src/stm32f10x_flash.c **** #define ProgramTimeout        ((uint32_t)0x00002000)
  87:../SPL/src/stm32f10x_flash.c **** /**
  88:../SPL/src/stm32f10x_flash.c ****   * @}
  89:../SPL/src/stm32f10x_flash.c ****   */ 
  90:../SPL/src/stm32f10x_flash.c **** 
  91:../SPL/src/stm32f10x_flash.c **** /** @defgroup FLASH_Private_Macros
  92:../SPL/src/stm32f10x_flash.c ****   * @{
  93:../SPL/src/stm32f10x_flash.c ****   */
  94:../SPL/src/stm32f10x_flash.c **** 
  95:../SPL/src/stm32f10x_flash.c **** /**
  96:../SPL/src/stm32f10x_flash.c ****   * @}
  97:../SPL/src/stm32f10x_flash.c ****   */ 
  98:../SPL/src/stm32f10x_flash.c **** 
  99:../SPL/src/stm32f10x_flash.c **** /** @defgroup FLASH_Private_Variables
 100:../SPL/src/stm32f10x_flash.c ****   * @{
 101:../SPL/src/stm32f10x_flash.c ****   */
 102:../SPL/src/stm32f10x_flash.c **** 
 103:../SPL/src/stm32f10x_flash.c **** /**
 104:../SPL/src/stm32f10x_flash.c ****   * @}
 105:../SPL/src/stm32f10x_flash.c ****   */ 
 106:../SPL/src/stm32f10x_flash.c **** 
 107:../SPL/src/stm32f10x_flash.c **** /** @defgroup FLASH_Private_FunctionPrototypes
 108:../SPL/src/stm32f10x_flash.c ****   * @{
 109:../SPL/src/stm32f10x_flash.c ****   */
 110:../SPL/src/stm32f10x_flash.c ****   
 111:../SPL/src/stm32f10x_flash.c **** /**
 112:../SPL/src/stm32f10x_flash.c ****   * @}
 113:../SPL/src/stm32f10x_flash.c ****   */
 114:../SPL/src/stm32f10x_flash.c **** 
 115:../SPL/src/stm32f10x_flash.c **** /** @defgroup FLASH_Private_Functions
 116:../SPL/src/stm32f10x_flash.c ****   * @{
 117:../SPL/src/stm32f10x_flash.c ****   */
 118:../SPL/src/stm32f10x_flash.c **** 
 119:../SPL/src/stm32f10x_flash.c **** /**
 120:../SPL/src/stm32f10x_flash.c **** @code  
 121:../SPL/src/stm32f10x_flash.c ****  
 122:../SPL/src/stm32f10x_flash.c ****  This driver provides functions to configure and program the Flash memory of all STM32F10x devices,
 123:../SPL/src/stm32f10x_flash.c ****  including the latest STM32F10x_XL density devices. 
 124:../SPL/src/stm32f10x_flash.c **** 
 125:../SPL/src/stm32f10x_flash.c ****  STM32F10x_XL devices feature up to 1 Mbyte with dual bank architecture for read-while-write (RWW) 
 126:../SPL/src/stm32f10x_flash.c ****     - bank1: fixed size of 512 Kbytes (256 pages of 2Kbytes each)
 127:../SPL/src/stm32f10x_flash.c ****     - bank2: up to 512 Kbytes (up to 256 pages of 2Kbytes each)
 128:../SPL/src/stm32f10x_flash.c ****  While other STM32F10x devices features only one bank with memory up to 512 Kbytes.
 129:../SPL/src/stm32f10x_flash.c **** 
 130:../SPL/src/stm32f10x_flash.c ****  In version V3.3.0, some functions were updated and new ones were added to support
 131:../SPL/src/stm32f10x_flash.c ****  STM32F10x_XL devices. Thus some functions manages all devices, while other are 
 132:../SPL/src/stm32f10x_flash.c ****  dedicated for XL devices only.
 133:../SPL/src/stm32f10x_flash.c ****  
 134:../SPL/src/stm32f10x_flash.c ****  The table below presents the list of available functions depending on the used STM32F10x devices. 
 135:../SPL/src/stm32f10x_flash.c ****       
 136:../SPL/src/stm32f10x_flash.c ****    ***************************************************
 137:../SPL/src/stm32f10x_flash.c ****    * Legacy functions used for all STM32F10x devices *
 138:../SPL/src/stm32f10x_flash.c ****    ***************************************************
 139:../SPL/src/stm32f10x_flash.c ****    +-----------------------------------------------------------------------------------------------
 140:../SPL/src/stm32f10x_flash.c ****    |       Functions prototypes         |STM32F10x_XL|Other STM32F10x|    Comments                 
 141:../SPL/src/stm32f10x_flash.c ****    |                                    |   devices  |  devices      |                             
 142:../SPL/src/stm32f10x_flash.c ****    |-----------------------------------------------------------------------------------------------
 143:../SPL/src/stm32f10x_flash.c ****    |FLASH_SetLatency                    |    Yes     |      Yes      | No change                   
 144:../SPL/src/stm32f10x_flash.c ****    |-----------------------------------------------------------------------------------------------
 145:../SPL/src/stm32f10x_flash.c ****    |FLASH_HalfCycleAccessCmd            |    Yes     |      Yes      | No change                   
 146:../SPL/src/stm32f10x_flash.c ****    |-----------------------------------------------------------------------------------------------
 147:../SPL/src/stm32f10x_flash.c ****    |FLASH_PrefetchBufferCmd             |    Yes     |      Yes      | No change                   
 148:../SPL/src/stm32f10x_flash.c ****    |-----------------------------------------------------------------------------------------------
 149:../SPL/src/stm32f10x_flash.c ****    |FLASH_Unlock                        |    Yes     |      Yes      | - For STM32F10X_XL devices: 
 150:../SPL/src/stm32f10x_flash.c ****    |                                    |            |               | - For other devices: unlock 
 151:../SPL/src/stm32f10x_flash.c ****    |                                    |            |               |   to FLASH_UnlockBank1 funct
 152:../SPL/src/stm32f10x_flash.c ****    |-----------------------------------------------------------------------------------------------
 153:../SPL/src/stm32f10x_flash.c ****    |FLASH_Lock                          |    Yes     |      Yes      | - For STM32F10X_XL devices: 
 154:../SPL/src/stm32f10x_flash.c ****    |                                    |            |               | - For other devices: lock Ba
 155:../SPL/src/stm32f10x_flash.c ****    |                                    |            |               |   to FLASH_LockBank1 functio
 156:../SPL/src/stm32f10x_flash.c ****    |-----------------------------------------------------------------------------------------------
 157:../SPL/src/stm32f10x_flash.c ****    |FLASH_ErasePage                     |    Yes     |      Yes      | - For STM32F10x_XL devices: 
 158:../SPL/src/stm32f10x_flash.c ****    |                                    |            |               | - For other devices: erase a
 159:../SPL/src/stm32f10x_flash.c ****    |-----------------------------------------------------------------------------------------------
 160:../SPL/src/stm32f10x_flash.c ****    |FLASH_EraseAllPages                 |    Yes     |      Yes      | - For STM32F10x_XL devices: 
 161:../SPL/src/stm32f10x_flash.c ****    |                                    |            |               | - For other devices: erase a
 162:../SPL/src/stm32f10x_flash.c ****    |-----------------------------------------------------------------------------------------------
 163:../SPL/src/stm32f10x_flash.c ****    |FLASH_EraseOptionBytes              |    Yes     |      Yes      | No change                   
 164:../SPL/src/stm32f10x_flash.c ****    |-----------------------------------------------------------------------------------------------
 165:../SPL/src/stm32f10x_flash.c ****    |FLASH_ProgramWord                   |    Yes     |      Yes      | Updated to program up to 1MB
 166:../SPL/src/stm32f10x_flash.c ****    |-----------------------------------------------------------------------------------------------
 167:../SPL/src/stm32f10x_flash.c ****    |FLASH_ProgramHalfWord               |    Yes     |      Yes      | Updated to program up to 1MB
 168:../SPL/src/stm32f10x_flash.c ****    |-----------------------------------------------------------------------------------------------
 169:../SPL/src/stm32f10x_flash.c ****    |FLASH_ProgramOptionByteData         |    Yes     |      Yes      | No change                   
 170:../SPL/src/stm32f10x_flash.c ****    |-----------------------------------------------------------------------------------------------
 171:../SPL/src/stm32f10x_flash.c ****    |FLASH_EnableWriteProtection         |    Yes     |      Yes      | No change                   
 172:../SPL/src/stm32f10x_flash.c ****    |-----------------------------------------------------------------------------------------------
 173:../SPL/src/stm32f10x_flash.c ****    |FLASH_ReadOutProtection             |    Yes     |      Yes      | No change                   
 174:../SPL/src/stm32f10x_flash.c ****    |-----------------------------------------------------------------------------------------------
 175:../SPL/src/stm32f10x_flash.c ****    |FLASH_UserOptionByteConfig          |    Yes     |      Yes      | No change                   
 176:../SPL/src/stm32f10x_flash.c ****    |-----------------------------------------------------------------------------------------------
 177:../SPL/src/stm32f10x_flash.c ****    |FLASH_GetUserOptionByte             |    Yes     |      Yes      | No change                   
 178:../SPL/src/stm32f10x_flash.c ****    |-----------------------------------------------------------------------------------------------
 179:../SPL/src/stm32f10x_flash.c ****    |FLASH_GetWriteProtectionOptionByte  |    Yes     |      Yes      | No change                   
 180:../SPL/src/stm32f10x_flash.c ****    |-----------------------------------------------------------------------------------------------
 181:../SPL/src/stm32f10x_flash.c ****    |FLASH_GetReadOutProtectionStatus    |    Yes     |      Yes      | No change                   
 182:../SPL/src/stm32f10x_flash.c ****    |-----------------------------------------------------------------------------------------------
 183:../SPL/src/stm32f10x_flash.c ****    |FLASH_GetPrefetchBufferStatus       |    Yes     |      Yes      | No change                   
 184:../SPL/src/stm32f10x_flash.c ****    |-----------------------------------------------------------------------------------------------
 185:../SPL/src/stm32f10x_flash.c ****    |FLASH_ITConfig                      |    Yes     |      Yes      | - For STM32F10x_XL devices: 
 186:../SPL/src/stm32f10x_flash.c ****    |                                    |            |               | - For other devices: enable 
 187:../SPL/src/stm32f10x_flash.c ****    |-----------------------------------------------------------------------------------------------
 188:../SPL/src/stm32f10x_flash.c ****    |FLASH_GetFlagStatus                 |    Yes     |      Yes      | - For STM32F10x_XL devices: 
 189:../SPL/src/stm32f10x_flash.c ****    |                                    |            |               | - For other devices: return 
 190:../SPL/src/stm32f10x_flash.c ****    |-----------------------------------------------------------------------------------------------
 191:../SPL/src/stm32f10x_flash.c ****    |FLASH_ClearFlag                     |    Yes     |      Yes      | - For STM32F10x_XL devices: 
 192:../SPL/src/stm32f10x_flash.c ****    |                                    |            |               | - For other devices: clear B
 193:../SPL/src/stm32f10x_flash.c ****    |-----------------------------------------------------------------------------------------------
 194:../SPL/src/stm32f10x_flash.c ****    |FLASH_GetStatus                     |    Yes     |      Yes      | - Return the status of Bank1
 195:../SPL/src/stm32f10x_flash.c ****    |                                    |            |               |   equivalent to FLASH_GetBan
 196:../SPL/src/stm32f10x_flash.c ****    |-----------------------------------------------------------------------------------------------
 197:../SPL/src/stm32f10x_flash.c ****    |FLASH_WaitForLastOperation          |    Yes     |      Yes      | - Wait for Bank1 last operat
 198:../SPL/src/stm32f10x_flash.c ****    |                                    |            |               |   equivalent to: FLASH_WaitF
 199:../SPL/src/stm32f10x_flash.c ****    +-----------------------------------------------------------------------------------------------
 200:../SPL/src/stm32f10x_flash.c **** 
 201:../SPL/src/stm32f10x_flash.c ****    ************************************************************************************************
 202:../SPL/src/stm32f10x_flash.c ****    * New functions used for all STM32F10x devices to manage Bank1:                                 
 203:../SPL/src/stm32f10x_flash.c ****    *   - These functions are mainly useful for STM32F10x_XL density devices, to have separate contr
 204:../SPL/src/stm32f10x_flash.c ****    *   - For other devices, these functions are optional (covered by functions listed above)       
 205:../SPL/src/stm32f10x_flash.c ****    ************************************************************************************************
 206:../SPL/src/stm32f10x_flash.c ****    +-----------------------------------------------------------------------------------------------
 207:../SPL/src/stm32f10x_flash.c ****    |       Functions prototypes         |STM32F10x_XL|Other STM32F10x|    Comments                 
 208:../SPL/src/stm32f10x_flash.c ****    |                                    |   devices  |  devices      |                             
 209:../SPL/src/stm32f10x_flash.c ****    |-----------------------------------------------------------------------------------------------
 210:../SPL/src/stm32f10x_flash.c ****    | FLASH_UnlockBank1                  |    Yes     |      Yes      | - Unlock Bank1              
 211:../SPL/src/stm32f10x_flash.c ****    |-----------------------------------------------------------------------------------------------
 212:../SPL/src/stm32f10x_flash.c ****    |FLASH_LockBank1                     |    Yes     |      Yes      | - Lock Bank1                
 213:../SPL/src/stm32f10x_flash.c ****    |-----------------------------------------------------------------------------------------------
 214:../SPL/src/stm32f10x_flash.c ****    | FLASH_EraseAllBank1Pages           |    Yes     |      Yes      | - Erase all pages in Bank1  
 215:../SPL/src/stm32f10x_flash.c ****    |-----------------------------------------------------------------------------------------------
 216:../SPL/src/stm32f10x_flash.c ****    | FLASH_GetBank1Status               |    Yes     |      Yes      | - Return the status of Bank1
 217:../SPL/src/stm32f10x_flash.c ****    |-----------------------------------------------------------------------------------------------
 218:../SPL/src/stm32f10x_flash.c ****    | FLASH_WaitForLastBank1Operation    |    Yes     |      Yes      | - Wait for Bank1 last operat
 219:../SPL/src/stm32f10x_flash.c ****    +-----------------------------------------------------------------------------------------------
 220:../SPL/src/stm32f10x_flash.c **** 
 221:../SPL/src/stm32f10x_flash.c ****    *****************************************************************************
 222:../SPL/src/stm32f10x_flash.c ****    * New Functions used only with STM32F10x_XL density devices to manage Bank2 *
 223:../SPL/src/stm32f10x_flash.c ****    *****************************************************************************
 224:../SPL/src/stm32f10x_flash.c ****    +-----------------------------------------------------------------------------------------------
 225:../SPL/src/stm32f10x_flash.c ****    |       Functions prototypes         |STM32F10x_XL|Other STM32F10x|    Comments                 
 226:../SPL/src/stm32f10x_flash.c ****    |                                    |   devices  |  devices      |                             
 227:../SPL/src/stm32f10x_flash.c ****    |-----------------------------------------------------------------------------------------------
 228:../SPL/src/stm32f10x_flash.c ****    | FLASH_UnlockBank2                  |    Yes     |      No       | - Unlock Bank2              
 229:../SPL/src/stm32f10x_flash.c ****    |-----------------------------------------------------------------------------------------------
 230:../SPL/src/stm32f10x_flash.c ****    |FLASH_LockBank2                     |    Yes     |      No       | - Lock Bank2                
 231:../SPL/src/stm32f10x_flash.c ****    |-----------------------------------------------------------------------------------------------
 232:../SPL/src/stm32f10x_flash.c ****    | FLASH_EraseAllBank2Pages           |    Yes     |      No       | - Erase all pages in Bank2  
 233:../SPL/src/stm32f10x_flash.c ****    |-----------------------------------------------------------------------------------------------
 234:../SPL/src/stm32f10x_flash.c ****    | FLASH_GetBank2Status               |    Yes     |      No       | - Return the status of Bank2
 235:../SPL/src/stm32f10x_flash.c ****    |-----------------------------------------------------------------------------------------------
 236:../SPL/src/stm32f10x_flash.c ****    | FLASH_WaitForLastBank2Operation    |    Yes     |      No       | - Wait for Bank2 last operat
 237:../SPL/src/stm32f10x_flash.c ****    |-----------------------------------------------------------------------------------------------
 238:../SPL/src/stm32f10x_flash.c ****    | FLASH_BootConfig                   |    Yes     |      No       | - Configure to boot from Ban
 239:../SPL/src/stm32f10x_flash.c ****    +-----------------------------------------------------------------------------------------------
 240:../SPL/src/stm32f10x_flash.c **** @endcode
 241:../SPL/src/stm32f10x_flash.c **** */
 242:../SPL/src/stm32f10x_flash.c **** 
 243:../SPL/src/stm32f10x_flash.c **** 
 244:../SPL/src/stm32f10x_flash.c **** /**
 245:../SPL/src/stm32f10x_flash.c ****   * @brief  Sets the code latency value.
 246:../SPL/src/stm32f10x_flash.c ****   * @note   This function can be used for all STM32F10x devices.
 247:../SPL/src/stm32f10x_flash.c ****   * @param  FLASH_Latency: specifies the FLASH Latency value.
 248:../SPL/src/stm32f10x_flash.c ****   *   This parameter can be one of the following values:
 249:../SPL/src/stm32f10x_flash.c ****   *     @arg FLASH_Latency_0: FLASH Zero Latency cycle
 250:../SPL/src/stm32f10x_flash.c ****   *     @arg FLASH_Latency_1: FLASH One Latency cycle
 251:../SPL/src/stm32f10x_flash.c ****   *     @arg FLASH_Latency_2: FLASH Two Latency cycles
 252:../SPL/src/stm32f10x_flash.c ****   * @retval None
 253:../SPL/src/stm32f10x_flash.c ****   */
 254:../SPL/src/stm32f10x_flash.c **** void FLASH_SetLatency(uint32_t FLASH_Latency)
 255:../SPL/src/stm32f10x_flash.c **** {
  31              		.loc 1 255 0
  32              		.cfi_startproc
  33              		@ args = 0, pretend = 0, frame = 16
  34              		@ frame_needed = 1, uses_anonymous_args = 0
  35 0000 80B5     		push	{r7, lr}
  36              	.LCFI0:
  37              		.cfi_def_cfa_offset 8
  38              		.cfi_offset 7, -8
  39              		.cfi_offset 14, -4
  40 0002 84B0     		sub	sp, sp, #16
  41              	.LCFI1:
  42              		.cfi_def_cfa_offset 24
  43 0004 00AF     		add	r7, sp, #0
  44              	.LCFI2:
  45              		.cfi_def_cfa_register 7
  46 0006 7860     		str	r0, [r7, #4]
 256:../SPL/src/stm32f10x_flash.c ****   uint32_t tmpreg = 0;
  47              		.loc 1 256 0
  48 0008 4FF00003 		mov	r3, #0
  49 000c FB60     		str	r3, [r7, #12]
 257:../SPL/src/stm32f10x_flash.c ****   
 258:../SPL/src/stm32f10x_flash.c ****   /* Check the parameters */
 259:../SPL/src/stm32f10x_flash.c ****   assert_param(IS_FLASH_LATENCY(FLASH_Latency));
  50              		.loc 1 259 0
  51 000e 7B68     		ldr	r3, [r7, #4]
  52 0010 002B     		cmp	r3, #0
  53 0012 0AD0     		beq	.L2
  54              		.loc 1 259 0 is_stmt 0 discriminator 1
  55 0014 7B68     		ldr	r3, [r7, #4]
  56 0016 012B     		cmp	r3, #1
  57 0018 07D0     		beq	.L2
  58              		.loc 1 259 0 discriminator 2
  59 001a 7B68     		ldr	r3, [r7, #4]
  60 001c 022B     		cmp	r3, #2
  61 001e 04D0     		beq	.L2
  62              		.loc 1 259 0 discriminator 3
  63 0020 0B48     		ldr	r0, .L3
  64 0022 40F20311 		movw	r1, #259
  65 0026 FFF7FEFF 		bl	assert_failed
  66              	.L2:
 260:../SPL/src/stm32f10x_flash.c ****   
 261:../SPL/src/stm32f10x_flash.c ****   /* Read the ACR register */
 262:../SPL/src/stm32f10x_flash.c ****   tmpreg = FLASH->ACR;  
  67              		.loc 1 262 0 is_stmt 1
  68 002a 0A4B     		ldr	r3, .L3+4
  69 002c 1B68     		ldr	r3, [r3, #0]
  70 002e FB60     		str	r3, [r7, #12]
 263:../SPL/src/stm32f10x_flash.c ****   
 264:../SPL/src/stm32f10x_flash.c ****   /* Sets the Latency value */
 265:../SPL/src/stm32f10x_flash.c ****   tmpreg &= ACR_LATENCY_Mask;
  71              		.loc 1 265 0
  72 0030 FB68     		ldr	r3, [r7, #12]
  73 0032 03F03803 		and	r3, r3, #56
  74 0036 FB60     		str	r3, [r7, #12]
 266:../SPL/src/stm32f10x_flash.c ****   tmpreg |= FLASH_Latency;
  75              		.loc 1 266 0
  76 0038 FA68     		ldr	r2, [r7, #12]
  77 003a 7B68     		ldr	r3, [r7, #4]
  78 003c 1343     		orrs	r3, r3, r2
  79 003e FB60     		str	r3, [r7, #12]
 267:../SPL/src/stm32f10x_flash.c ****   
 268:../SPL/src/stm32f10x_flash.c ****   /* Write the ACR register */
 269:../SPL/src/stm32f10x_flash.c ****   FLASH->ACR = tmpreg;
  80              		.loc 1 269 0
  81 0040 044B     		ldr	r3, .L3+4
  82 0042 FA68     		ldr	r2, [r7, #12]
  83 0044 1A60     		str	r2, [r3, #0]
 270:../SPL/src/stm32f10x_flash.c **** }
  84              		.loc 1 270 0
  85 0046 07F11007 		add	r7, r7, #16
  86 004a BD46     		mov	sp, r7
  87 004c 80BD     		pop	{r7, pc}
  88              	.L4:
  89 004e 00BF     		.align	2
  90              	.L3:
  91 0050 00000000 		.word	.LC0
  92 0054 00200240 		.word	1073881088
  93              		.cfi_endproc
  94              	.LFE29:
  96              		.align	2
  97              		.global	FLASH_HalfCycleAccessCmd
  98              		.thumb
  99              		.thumb_func
 101              	FLASH_HalfCycleAccessCmd:
 102              	.LFB30:
 271:../SPL/src/stm32f10x_flash.c **** 
 272:../SPL/src/stm32f10x_flash.c **** /**
 273:../SPL/src/stm32f10x_flash.c ****   * @brief  Enables or disables the Half cycle flash access.
 274:../SPL/src/stm32f10x_flash.c ****   * @note   This function can be used for all STM32F10x devices.
 275:../SPL/src/stm32f10x_flash.c ****   * @param  FLASH_HalfCycleAccess: specifies the FLASH Half cycle Access mode.
 276:../SPL/src/stm32f10x_flash.c ****   *   This parameter can be one of the following values:
 277:../SPL/src/stm32f10x_flash.c ****   *     @arg FLASH_HalfCycleAccess_Enable: FLASH Half Cycle Enable
 278:../SPL/src/stm32f10x_flash.c ****   *     @arg FLASH_HalfCycleAccess_Disable: FLASH Half Cycle Disable
 279:../SPL/src/stm32f10x_flash.c ****   * @retval None
 280:../SPL/src/stm32f10x_flash.c ****   */
 281:../SPL/src/stm32f10x_flash.c **** void FLASH_HalfCycleAccessCmd(uint32_t FLASH_HalfCycleAccess)
 282:../SPL/src/stm32f10x_flash.c **** {
 103              		.loc 1 282 0
 104              		.cfi_startproc
 105              		@ args = 0, pretend = 0, frame = 8
 106              		@ frame_needed = 1, uses_anonymous_args = 0
 107 0058 80B5     		push	{r7, lr}
 108              	.LCFI3:
 109              		.cfi_def_cfa_offset 8
 110              		.cfi_offset 7, -8
 111              		.cfi_offset 14, -4
 112 005a 82B0     		sub	sp, sp, #8
 113              	.LCFI4:
 114              		.cfi_def_cfa_offset 16
 115 005c 00AF     		add	r7, sp, #0
 116              	.LCFI5:
 117              		.cfi_def_cfa_register 7
 118 005e 7860     		str	r0, [r7, #4]
 283:../SPL/src/stm32f10x_flash.c ****   /* Check the parameters */
 284:../SPL/src/stm32f10x_flash.c ****   assert_param(IS_FLASH_HALFCYCLEACCESS_STATE(FLASH_HalfCycleAccess));
 119              		.loc 1 284 0
 120 0060 7B68     		ldr	r3, [r7, #4]
 121 0062 082B     		cmp	r3, #8
 122 0064 07D0     		beq	.L6
 123              		.loc 1 284 0 is_stmt 0 discriminator 1
 124 0066 7B68     		ldr	r3, [r7, #4]
 125 0068 002B     		cmp	r3, #0
 126 006a 04D0     		beq	.L6
 127              		.loc 1 284 0 discriminator 2
 128 006c 0A48     		ldr	r0, .L7
 129 006e 4FF48E71 		mov	r1, #284
 130 0072 FFF7FEFF 		bl	assert_failed
 131              	.L6:
 285:../SPL/src/stm32f10x_flash.c ****   
 286:../SPL/src/stm32f10x_flash.c ****   /* Enable or disable the Half cycle access */
 287:../SPL/src/stm32f10x_flash.c ****   FLASH->ACR &= ACR_HLFCYA_Mask;
 132              		.loc 1 287 0 is_stmt 1
 133 0076 094B     		ldr	r3, .L7+4
 134 0078 084A     		ldr	r2, .L7+4
 135 007a 1268     		ldr	r2, [r2, #0]
 136 007c 22F00802 		bic	r2, r2, #8
 137 0080 1A60     		str	r2, [r3, #0]
 288:../SPL/src/stm32f10x_flash.c ****   FLASH->ACR |= FLASH_HalfCycleAccess;
 138              		.loc 1 288 0
 139 0082 064B     		ldr	r3, .L7+4
 140 0084 054A     		ldr	r2, .L7+4
 141 0086 1168     		ldr	r1, [r2, #0]
 142 0088 7A68     		ldr	r2, [r7, #4]
 143 008a 0A43     		orrs	r2, r2, r1
 144 008c 1A60     		str	r2, [r3, #0]
 289:../SPL/src/stm32f10x_flash.c **** }
 145              		.loc 1 289 0
 146 008e 07F10807 		add	r7, r7, #8
 147 0092 BD46     		mov	sp, r7
 148 0094 80BD     		pop	{r7, pc}
 149              	.L8:
 150 0096 00BF     		.align	2
 151              	.L7:
 152 0098 00000000 		.word	.LC0
 153 009c 00200240 		.word	1073881088
 154              		.cfi_endproc
 155              	.LFE30:
 157              		.align	2
 158              		.global	FLASH_PrefetchBufferCmd
 159              		.thumb
 160              		.thumb_func
 162              	FLASH_PrefetchBufferCmd:
 163              	.LFB31:
 290:../SPL/src/stm32f10x_flash.c **** 
 291:../SPL/src/stm32f10x_flash.c **** /**
 292:../SPL/src/stm32f10x_flash.c ****   * @brief  Enables or disables the Prefetch Buffer.
 293:../SPL/src/stm32f10x_flash.c ****   * @note   This function can be used for all STM32F10x devices.
 294:../SPL/src/stm32f10x_flash.c ****   * @param  FLASH_PrefetchBuffer: specifies the Prefetch buffer status.
 295:../SPL/src/stm32f10x_flash.c ****   *   This parameter can be one of the following values:
 296:../SPL/src/stm32f10x_flash.c ****   *     @arg FLASH_PrefetchBuffer_Enable: FLASH Prefetch Buffer Enable
 297:../SPL/src/stm32f10x_flash.c ****   *     @arg FLASH_PrefetchBuffer_Disable: FLASH Prefetch Buffer Disable
 298:../SPL/src/stm32f10x_flash.c ****   * @retval None
 299:../SPL/src/stm32f10x_flash.c ****   */
 300:../SPL/src/stm32f10x_flash.c **** void FLASH_PrefetchBufferCmd(uint32_t FLASH_PrefetchBuffer)
 301:../SPL/src/stm32f10x_flash.c **** {
 164              		.loc 1 301 0
 165              		.cfi_startproc
 166              		@ args = 0, pretend = 0, frame = 8
 167              		@ frame_needed = 1, uses_anonymous_args = 0
 168 00a0 80B5     		push	{r7, lr}
 169              	.LCFI6:
 170              		.cfi_def_cfa_offset 8
 171              		.cfi_offset 7, -8
 172              		.cfi_offset 14, -4
 173 00a2 82B0     		sub	sp, sp, #8
 174              	.LCFI7:
 175              		.cfi_def_cfa_offset 16
 176 00a4 00AF     		add	r7, sp, #0
 177              	.LCFI8:
 178              		.cfi_def_cfa_register 7
 179 00a6 7860     		str	r0, [r7, #4]
 302:../SPL/src/stm32f10x_flash.c ****   /* Check the parameters */
 303:../SPL/src/stm32f10x_flash.c ****   assert_param(IS_FLASH_PREFETCHBUFFER_STATE(FLASH_PrefetchBuffer));
 180              		.loc 1 303 0
 181 00a8 7B68     		ldr	r3, [r7, #4]
 182 00aa 102B     		cmp	r3, #16
 183 00ac 07D0     		beq	.L10
 184              		.loc 1 303 0 is_stmt 0 discriminator 1
 185 00ae 7B68     		ldr	r3, [r7, #4]
 186 00b0 002B     		cmp	r3, #0
 187 00b2 04D0     		beq	.L10
 188              		.loc 1 303 0 discriminator 2
 189 00b4 0A48     		ldr	r0, .L11
 190 00b6 40F22F11 		movw	r1, #303
 191 00ba FFF7FEFF 		bl	assert_failed
 192              	.L10:
 304:../SPL/src/stm32f10x_flash.c ****   
 305:../SPL/src/stm32f10x_flash.c ****   /* Enable or disable the Prefetch Buffer */
 306:../SPL/src/stm32f10x_flash.c ****   FLASH->ACR &= ACR_PRFTBE_Mask;
 193              		.loc 1 306 0 is_stmt 1
 194 00be 094B     		ldr	r3, .L11+4
 195 00c0 084A     		ldr	r2, .L11+4
 196 00c2 1268     		ldr	r2, [r2, #0]
 197 00c4 22F01002 		bic	r2, r2, #16
 198 00c8 1A60     		str	r2, [r3, #0]
 307:../SPL/src/stm32f10x_flash.c ****   FLASH->ACR |= FLASH_PrefetchBuffer;
 199              		.loc 1 307 0
 200 00ca 064B     		ldr	r3, .L11+4
 201 00cc 054A     		ldr	r2, .L11+4
 202 00ce 1168     		ldr	r1, [r2, #0]
 203 00d0 7A68     		ldr	r2, [r7, #4]
 204 00d2 0A43     		orrs	r2, r2, r1
 205 00d4 1A60     		str	r2, [r3, #0]
 308:../SPL/src/stm32f10x_flash.c **** }
 206              		.loc 1 308 0
 207 00d6 07F10807 		add	r7, r7, #8
 208 00da BD46     		mov	sp, r7
 209 00dc 80BD     		pop	{r7, pc}
 210              	.L12:
 211 00de 00BF     		.align	2
 212              	.L11:
 213 00e0 00000000 		.word	.LC0
 214 00e4 00200240 		.word	1073881088
 215              		.cfi_endproc
 216              	.LFE31:
 218              		.align	2
 219              		.global	FLASH_Unlock
 220              		.thumb
 221              		.thumb_func
 223              	FLASH_Unlock:
 224              	.LFB32:
 309:../SPL/src/stm32f10x_flash.c **** 
 310:../SPL/src/stm32f10x_flash.c **** /**
 311:../SPL/src/stm32f10x_flash.c ****   * @brief  Unlocks the FLASH Program Erase Controller.
 312:../SPL/src/stm32f10x_flash.c ****   * @note   This function can be used for all STM32F10x devices.
 313:../SPL/src/stm32f10x_flash.c ****   *         - For STM32F10X_XL devices this function unlocks Bank1 and Bank2.
 314:../SPL/src/stm32f10x_flash.c ****   *         - For all other devices it unlocks Bank1 and it is equivalent 
 315:../SPL/src/stm32f10x_flash.c ****   *           to FLASH_UnlockBank1 function.. 
 316:../SPL/src/stm32f10x_flash.c ****   * @param  None
 317:../SPL/src/stm32f10x_flash.c ****   * @retval None
 318:../SPL/src/stm32f10x_flash.c ****   */
 319:../SPL/src/stm32f10x_flash.c **** void FLASH_Unlock(void)
 320:../SPL/src/stm32f10x_flash.c **** {
 225              		.loc 1 320 0
 226              		.cfi_startproc
 227              		@ args = 0, pretend = 0, frame = 0
 228              		@ frame_needed = 1, uses_anonymous_args = 0
 229              		@ link register save eliminated.
 230 00e8 80B4     		push	{r7}
 231              	.LCFI9:
 232              		.cfi_def_cfa_offset 4
 233              		.cfi_offset 7, -4
 234 00ea 00AF     		add	r7, sp, #0
 235              	.LCFI10:
 236              		.cfi_def_cfa_register 7
 321:../SPL/src/stm32f10x_flash.c ****   /* Authorize the FPEC of Bank1 Access */
 322:../SPL/src/stm32f10x_flash.c ****   FLASH->KEYR = FLASH_KEY1;
 237              		.loc 1 322 0
 238 00ec 044B     		ldr	r3, .L14
 239 00ee 054A     		ldr	r2, .L14+4
 240 00f0 5A60     		str	r2, [r3, #4]
 323:../SPL/src/stm32f10x_flash.c ****   FLASH->KEYR = FLASH_KEY2;
 241              		.loc 1 323 0
 242 00f2 034B     		ldr	r3, .L14
 243 00f4 044A     		ldr	r2, .L14+8
 244 00f6 5A60     		str	r2, [r3, #4]
 324:../SPL/src/stm32f10x_flash.c **** 
 325:../SPL/src/stm32f10x_flash.c **** #ifdef STM32F10X_XL
 326:../SPL/src/stm32f10x_flash.c ****   /* Authorize the FPEC of Bank2 Access */
 327:../SPL/src/stm32f10x_flash.c ****   FLASH->KEYR2 = FLASH_KEY1;
 328:../SPL/src/stm32f10x_flash.c ****   FLASH->KEYR2 = FLASH_KEY2;
 329:../SPL/src/stm32f10x_flash.c **** #endif /* STM32F10X_XL */
 330:../SPL/src/stm32f10x_flash.c **** }
 245              		.loc 1 330 0
 246 00f8 BD46     		mov	sp, r7
 247 00fa 80BC     		pop	{r7}
 248 00fc 7047     		bx	lr
 249              	.L15:
 250 00fe 00BF     		.align	2
 251              	.L14:
 252 0100 00200240 		.word	1073881088
 253 0104 23016745 		.word	1164378403
 254 0108 AB89EFCD 		.word	-839939669
 255              		.cfi_endproc
 256              	.LFE32:
 258              		.align	2
 259              		.global	FLASH_UnlockBank1
 260              		.thumb
 261              		.thumb_func
 263              	FLASH_UnlockBank1:
 264              	.LFB33:
 331:../SPL/src/stm32f10x_flash.c **** /**
 332:../SPL/src/stm32f10x_flash.c ****   * @brief  Unlocks the FLASH Bank1 Program Erase Controller.
 333:../SPL/src/stm32f10x_flash.c ****   * @note   This function can be used for all STM32F10x devices.
 334:../SPL/src/stm32f10x_flash.c ****   *         - For STM32F10X_XL devices this function unlocks Bank1.
 335:../SPL/src/stm32f10x_flash.c ****   *         - For all other devices it unlocks Bank1 and it is 
 336:../SPL/src/stm32f10x_flash.c ****   *           equivalent to FLASH_Unlock function.
 337:../SPL/src/stm32f10x_flash.c ****   * @param  None
 338:../SPL/src/stm32f10x_flash.c ****   * @retval None
 339:../SPL/src/stm32f10x_flash.c ****   */
 340:../SPL/src/stm32f10x_flash.c **** void FLASH_UnlockBank1(void)
 341:../SPL/src/stm32f10x_flash.c **** {
 265              		.loc 1 341 0
 266              		.cfi_startproc
 267              		@ args = 0, pretend = 0, frame = 0
 268              		@ frame_needed = 1, uses_anonymous_args = 0
 269              		@ link register save eliminated.
 270 010c 80B4     		push	{r7}
 271              	.LCFI11:
 272              		.cfi_def_cfa_offset 4
 273              		.cfi_offset 7, -4
 274 010e 00AF     		add	r7, sp, #0
 275              	.LCFI12:
 276              		.cfi_def_cfa_register 7
 342:../SPL/src/stm32f10x_flash.c ****   /* Authorize the FPEC of Bank1 Access */
 343:../SPL/src/stm32f10x_flash.c ****   FLASH->KEYR = FLASH_KEY1;
 277              		.loc 1 343 0
 278 0110 044B     		ldr	r3, .L17
 279 0112 054A     		ldr	r2, .L17+4
 280 0114 5A60     		str	r2, [r3, #4]
 344:../SPL/src/stm32f10x_flash.c ****   FLASH->KEYR = FLASH_KEY2;
 281              		.loc 1 344 0
 282 0116 034B     		ldr	r3, .L17
 283 0118 044A     		ldr	r2, .L17+8
 284 011a 5A60     		str	r2, [r3, #4]
 345:../SPL/src/stm32f10x_flash.c **** }
 285              		.loc 1 345 0
 286 011c BD46     		mov	sp, r7
 287 011e 80BC     		pop	{r7}
 288 0120 7047     		bx	lr
 289              	.L18:
 290 0122 00BF     		.align	2
 291              	.L17:
 292 0124 00200240 		.word	1073881088
 293 0128 23016745 		.word	1164378403
 294 012c AB89EFCD 		.word	-839939669
 295              		.cfi_endproc
 296              	.LFE33:
 298              		.align	2
 299              		.global	FLASH_Lock
 300              		.thumb
 301              		.thumb_func
 303              	FLASH_Lock:
 304              	.LFB34:
 346:../SPL/src/stm32f10x_flash.c **** 
 347:../SPL/src/stm32f10x_flash.c **** #ifdef STM32F10X_XL
 348:../SPL/src/stm32f10x_flash.c **** /**
 349:../SPL/src/stm32f10x_flash.c ****   * @brief  Unlocks the FLASH Bank2 Program Erase Controller.
 350:../SPL/src/stm32f10x_flash.c ****   * @note   This function can be used only for STM32F10X_XL density devices.
 351:../SPL/src/stm32f10x_flash.c ****   * @param  None
 352:../SPL/src/stm32f10x_flash.c ****   * @retval None
 353:../SPL/src/stm32f10x_flash.c ****   */
 354:../SPL/src/stm32f10x_flash.c **** void FLASH_UnlockBank2(void)
 355:../SPL/src/stm32f10x_flash.c **** {
 356:../SPL/src/stm32f10x_flash.c ****   /* Authorize the FPEC of Bank2 Access */
 357:../SPL/src/stm32f10x_flash.c ****   FLASH->KEYR2 = FLASH_KEY1;
 358:../SPL/src/stm32f10x_flash.c ****   FLASH->KEYR2 = FLASH_KEY2;
 359:../SPL/src/stm32f10x_flash.c **** 
 360:../SPL/src/stm32f10x_flash.c **** }
 361:../SPL/src/stm32f10x_flash.c **** #endif /* STM32F10X_XL */
 362:../SPL/src/stm32f10x_flash.c **** 
 363:../SPL/src/stm32f10x_flash.c **** /**
 364:../SPL/src/stm32f10x_flash.c ****   * @brief  Locks the FLASH Program Erase Controller.
 365:../SPL/src/stm32f10x_flash.c ****   * @note   This function can be used for all STM32F10x devices.
 366:../SPL/src/stm32f10x_flash.c ****   *         - For STM32F10X_XL devices this function Locks Bank1 and Bank2.
 367:../SPL/src/stm32f10x_flash.c ****   *         - For all other devices it Locks Bank1 and it is equivalent 
 368:../SPL/src/stm32f10x_flash.c ****   *           to FLASH_LockBank1 function.
 369:../SPL/src/stm32f10x_flash.c ****   * @param  None
 370:../SPL/src/stm32f10x_flash.c ****   * @retval None
 371:../SPL/src/stm32f10x_flash.c ****   */
 372:../SPL/src/stm32f10x_flash.c **** void FLASH_Lock(void)
 373:../SPL/src/stm32f10x_flash.c **** {
 305              		.loc 1 373 0
 306              		.cfi_startproc
 307              		@ args = 0, pretend = 0, frame = 0
 308              		@ frame_needed = 1, uses_anonymous_args = 0
 309              		@ link register save eliminated.
 310 0130 80B4     		push	{r7}
 311              	.LCFI13:
 312              		.cfi_def_cfa_offset 4
 313              		.cfi_offset 7, -4
 314 0132 00AF     		add	r7, sp, #0
 315              	.LCFI14:
 316              		.cfi_def_cfa_register 7
 374:../SPL/src/stm32f10x_flash.c ****   /* Set the Lock Bit to lock the FPEC and the CR of  Bank1 */
 375:../SPL/src/stm32f10x_flash.c ****   FLASH->CR |= CR_LOCK_Set;
 317              		.loc 1 375 0
 318 0134 044B     		ldr	r3, .L20
 319 0136 044A     		ldr	r2, .L20
 320 0138 1269     		ldr	r2, [r2, #16]
 321 013a 42F08002 		orr	r2, r2, #128
 322 013e 1A61     		str	r2, [r3, #16]
 376:../SPL/src/stm32f10x_flash.c **** 
 377:../SPL/src/stm32f10x_flash.c **** #ifdef STM32F10X_XL
 378:../SPL/src/stm32f10x_flash.c ****   /* Set the Lock Bit to lock the FPEC and the CR of  Bank2 */
 379:../SPL/src/stm32f10x_flash.c ****   FLASH->CR2 |= CR_LOCK_Set;
 380:../SPL/src/stm32f10x_flash.c **** #endif /* STM32F10X_XL */
 381:../SPL/src/stm32f10x_flash.c **** }
 323              		.loc 1 381 0
 324 0140 BD46     		mov	sp, r7
 325 0142 80BC     		pop	{r7}
 326 0144 7047     		bx	lr
 327              	.L21:
 328 0146 00BF     		.align	2
 329              	.L20:
 330 0148 00200240 		.word	1073881088
 331              		.cfi_endproc
 332              	.LFE34:
 334              		.align	2
 335              		.global	FLASH_LockBank1
 336              		.thumb
 337              		.thumb_func
 339              	FLASH_LockBank1:
 340              	.LFB35:
 382:../SPL/src/stm32f10x_flash.c **** 
 383:../SPL/src/stm32f10x_flash.c **** /**
 384:../SPL/src/stm32f10x_flash.c ****   * @brief  Locks the FLASH Bank1 Program Erase Controller.
 385:../SPL/src/stm32f10x_flash.c ****   * @note   this function can be used for all STM32F10x devices.
 386:../SPL/src/stm32f10x_flash.c ****   *         - For STM32F10X_XL devices this function Locks Bank1.
 387:../SPL/src/stm32f10x_flash.c ****   *         - For all other devices it Locks Bank1 and it is equivalent 
 388:../SPL/src/stm32f10x_flash.c ****   *           to FLASH_Lock function.
 389:../SPL/src/stm32f10x_flash.c ****   * @param  None
 390:../SPL/src/stm32f10x_flash.c ****   * @retval None
 391:../SPL/src/stm32f10x_flash.c ****   */
 392:../SPL/src/stm32f10x_flash.c **** void FLASH_LockBank1(void)
 393:../SPL/src/stm32f10x_flash.c **** {
 341              		.loc 1 393 0
 342              		.cfi_startproc
 343              		@ args = 0, pretend = 0, frame = 0
 344              		@ frame_needed = 1, uses_anonymous_args = 0
 345              		@ link register save eliminated.
 346 014c 80B4     		push	{r7}
 347              	.LCFI15:
 348              		.cfi_def_cfa_offset 4
 349              		.cfi_offset 7, -4
 350 014e 00AF     		add	r7, sp, #0
 351              	.LCFI16:
 352              		.cfi_def_cfa_register 7
 394:../SPL/src/stm32f10x_flash.c ****   /* Set the Lock Bit to lock the FPEC and the CR of  Bank1 */
 395:../SPL/src/stm32f10x_flash.c ****   FLASH->CR |= CR_LOCK_Set;
 353              		.loc 1 395 0
 354 0150 044B     		ldr	r3, .L23
 355 0152 044A     		ldr	r2, .L23
 356 0154 1269     		ldr	r2, [r2, #16]
 357 0156 42F08002 		orr	r2, r2, #128
 358 015a 1A61     		str	r2, [r3, #16]
 396:../SPL/src/stm32f10x_flash.c **** }
 359              		.loc 1 396 0
 360 015c BD46     		mov	sp, r7
 361 015e 80BC     		pop	{r7}
 362 0160 7047     		bx	lr
 363              	.L24:
 364 0162 00BF     		.align	2
 365              	.L23:
 366 0164 00200240 		.word	1073881088
 367              		.cfi_endproc
 368              	.LFE35:
 370              		.align	2
 371              		.global	FLASH_ErasePage
 372              		.thumb
 373              		.thumb_func
 375              	FLASH_ErasePage:
 376              	.LFB36:
 397:../SPL/src/stm32f10x_flash.c **** 
 398:../SPL/src/stm32f10x_flash.c **** #ifdef STM32F10X_XL
 399:../SPL/src/stm32f10x_flash.c **** /**
 400:../SPL/src/stm32f10x_flash.c ****   * @brief  Locks the FLASH Bank2 Program Erase Controller.
 401:../SPL/src/stm32f10x_flash.c ****   * @note   This function can be used only for STM32F10X_XL density devices.
 402:../SPL/src/stm32f10x_flash.c ****   * @param  None
 403:../SPL/src/stm32f10x_flash.c ****   * @retval None
 404:../SPL/src/stm32f10x_flash.c ****   */
 405:../SPL/src/stm32f10x_flash.c **** void FLASH_LockBank2(void)
 406:../SPL/src/stm32f10x_flash.c **** {
 407:../SPL/src/stm32f10x_flash.c ****   /* Set the Lock Bit to lock the FPEC and the CR of  Bank2 */
 408:../SPL/src/stm32f10x_flash.c ****   FLASH->CR2 |= CR_LOCK_Set;
 409:../SPL/src/stm32f10x_flash.c **** }
 410:../SPL/src/stm32f10x_flash.c **** #endif /* STM32F10X_XL */
 411:../SPL/src/stm32f10x_flash.c **** 
 412:../SPL/src/stm32f10x_flash.c **** /**
 413:../SPL/src/stm32f10x_flash.c ****   * @brief  Erases a specified FLASH page.
 414:../SPL/src/stm32f10x_flash.c ****   * @note   This function can be used for all STM32F10x devices.
 415:../SPL/src/stm32f10x_flash.c ****   * @param  Page_Address: The page address to be erased.
 416:../SPL/src/stm32f10x_flash.c ****   * @retval FLASH Status: The returned value can be: FLASH_BUSY, FLASH_ERROR_PG,
 417:../SPL/src/stm32f10x_flash.c ****   *         FLASH_ERROR_WRP, FLASH_COMPLETE or FLASH_TIMEOUT.
 418:../SPL/src/stm32f10x_flash.c ****   */
 419:../SPL/src/stm32f10x_flash.c **** FLASH_Status FLASH_ErasePage(uint32_t Page_Address)
 420:../SPL/src/stm32f10x_flash.c **** {
 377              		.loc 1 420 0
 378              		.cfi_startproc
 379              		@ args = 0, pretend = 0, frame = 16
 380              		@ frame_needed = 1, uses_anonymous_args = 0
 381 0168 80B5     		push	{r7, lr}
 382              	.LCFI17:
 383              		.cfi_def_cfa_offset 8
 384              		.cfi_offset 7, -8
 385              		.cfi_offset 14, -4
 386 016a 84B0     		sub	sp, sp, #16
 387              	.LCFI18:
 388              		.cfi_def_cfa_offset 24
 389 016c 00AF     		add	r7, sp, #0
 390              	.LCFI19:
 391              		.cfi_def_cfa_register 7
 392 016e 7860     		str	r0, [r7, #4]
 421:../SPL/src/stm32f10x_flash.c ****   FLASH_Status status = FLASH_COMPLETE;
 393              		.loc 1 421 0
 394 0170 4FF00403 		mov	r3, #4
 395 0174 FB73     		strb	r3, [r7, #15]
 422:../SPL/src/stm32f10x_flash.c ****   /* Check the parameters */
 423:../SPL/src/stm32f10x_flash.c ****   assert_param(IS_FLASH_ADDRESS(Page_Address));
 396              		.loc 1 423 0
 397 0176 7A68     		ldr	r2, [r7, #4]
 398 0178 6FF07843 		mvn	r3, #-134217728
 399 017c 9A42     		cmp	r2, r3
 400 017e 03D9     		bls	.L26
 401              		.loc 1 423 0 is_stmt 0 discriminator 2
 402 0180 7A68     		ldr	r2, [r7, #4]
 403 0182 194B     		ldr	r3, .L30
 404 0184 9A42     		cmp	r2, r3
 405 0186 04D9     		bls	.L27
 406              	.L26:
 407              		.loc 1 423 0 discriminator 1
 408 0188 1848     		ldr	r0, .L30+4
 409 018a 40F2A711 		movw	r1, #423
 410 018e FFF7FEFF 		bl	assert_failed
 411              	.L27:
 424:../SPL/src/stm32f10x_flash.c **** 
 425:../SPL/src/stm32f10x_flash.c **** #ifdef STM32F10X_XL
 426:../SPL/src/stm32f10x_flash.c ****   if(Page_Address < FLASH_BANK1_END_ADDRESS)  
 427:../SPL/src/stm32f10x_flash.c ****   {
 428:../SPL/src/stm32f10x_flash.c ****     /* Wait for last operation to be completed */
 429:../SPL/src/stm32f10x_flash.c ****     status = FLASH_WaitForLastBank1Operation(EraseTimeout);
 430:../SPL/src/stm32f10x_flash.c ****     if(status == FLASH_COMPLETE)
 431:../SPL/src/stm32f10x_flash.c ****     { 
 432:../SPL/src/stm32f10x_flash.c ****       /* if the previous operation is completed, proceed to erase the page */
 433:../SPL/src/stm32f10x_flash.c ****       FLASH->CR|= CR_PER_Set;
 434:../SPL/src/stm32f10x_flash.c ****       FLASH->AR = Page_Address; 
 435:../SPL/src/stm32f10x_flash.c ****       FLASH->CR|= CR_STRT_Set;
 436:../SPL/src/stm32f10x_flash.c ****     
 437:../SPL/src/stm32f10x_flash.c ****       /* Wait for last operation to be completed */
 438:../SPL/src/stm32f10x_flash.c ****       status = FLASH_WaitForLastBank1Operation(EraseTimeout);
 439:../SPL/src/stm32f10x_flash.c **** 
 440:../SPL/src/stm32f10x_flash.c ****       /* Disable the PER Bit */
 441:../SPL/src/stm32f10x_flash.c ****       FLASH->CR &= CR_PER_Reset;
 442:../SPL/src/stm32f10x_flash.c ****     }
 443:../SPL/src/stm32f10x_flash.c ****   }
 444:../SPL/src/stm32f10x_flash.c ****   else
 445:../SPL/src/stm32f10x_flash.c ****   {
 446:../SPL/src/stm32f10x_flash.c ****     /* Wait for last operation to be completed */
 447:../SPL/src/stm32f10x_flash.c ****     status = FLASH_WaitForLastBank2Operation(EraseTimeout);
 448:../SPL/src/stm32f10x_flash.c ****     if(status == FLASH_COMPLETE)
 449:../SPL/src/stm32f10x_flash.c ****     { 
 450:../SPL/src/stm32f10x_flash.c ****       /* if the previous operation is completed, proceed to erase the page */
 451:../SPL/src/stm32f10x_flash.c ****       FLASH->CR2|= CR_PER_Set;
 452:../SPL/src/stm32f10x_flash.c ****       FLASH->AR2 = Page_Address; 
 453:../SPL/src/stm32f10x_flash.c ****       FLASH->CR2|= CR_STRT_Set;
 454:../SPL/src/stm32f10x_flash.c ****     
 455:../SPL/src/stm32f10x_flash.c ****       /* Wait for last operation to be completed */
 456:../SPL/src/stm32f10x_flash.c ****       status = FLASH_WaitForLastBank2Operation(EraseTimeout);
 457:../SPL/src/stm32f10x_flash.c ****       
 458:../SPL/src/stm32f10x_flash.c ****       /* Disable the PER Bit */
 459:../SPL/src/stm32f10x_flash.c ****       FLASH->CR2 &= CR_PER_Reset;
 460:../SPL/src/stm32f10x_flash.c ****     }
 461:../SPL/src/stm32f10x_flash.c ****   }
 462:../SPL/src/stm32f10x_flash.c **** #else
 463:../SPL/src/stm32f10x_flash.c ****   /* Wait for last operation to be completed */
 464:../SPL/src/stm32f10x_flash.c ****   status = FLASH_WaitForLastOperation(EraseTimeout);
 412              		.loc 1 464 0 is_stmt 1
 413 0192 4FF43020 		mov	r0, #720896
 414 0196 FFF7FEFF 		bl	FLASH_WaitForLastOperation
 415 019a 0346     		mov	r3, r0
 416 019c FB73     		strb	r3, [r7, #15]
 465:../SPL/src/stm32f10x_flash.c ****   
 466:../SPL/src/stm32f10x_flash.c ****   if(status == FLASH_COMPLETE)
 417              		.loc 1 466 0
 418 019e FB7B     		ldrb	r3, [r7, #15]	@ zero_extendqisi2
 419 01a0 042B     		cmp	r3, #4
 420 01a2 1BD1     		bne	.L28
 467:../SPL/src/stm32f10x_flash.c ****   { 
 468:../SPL/src/stm32f10x_flash.c ****     /* if the previous operation is completed, proceed to erase the page */
 469:../SPL/src/stm32f10x_flash.c ****     FLASH->CR|= CR_PER_Set;
 421              		.loc 1 469 0
 422 01a4 124B     		ldr	r3, .L30+8
 423 01a6 124A     		ldr	r2, .L30+8
 424 01a8 1269     		ldr	r2, [r2, #16]
 425 01aa 42F00202 		orr	r2, r2, #2
 426 01ae 1A61     		str	r2, [r3, #16]
 470:../SPL/src/stm32f10x_flash.c ****     FLASH->AR = Page_Address; 
 427              		.loc 1 470 0
 428 01b0 0F4B     		ldr	r3, .L30+8
 429 01b2 7A68     		ldr	r2, [r7, #4]
 430 01b4 5A61     		str	r2, [r3, #20]
 471:../SPL/src/stm32f10x_flash.c ****     FLASH->CR|= CR_STRT_Set;
 431              		.loc 1 471 0
 432 01b6 0E4B     		ldr	r3, .L30+8
 433 01b8 0D4A     		ldr	r2, .L30+8
 434 01ba 1269     		ldr	r2, [r2, #16]
 435 01bc 42F04002 		orr	r2, r2, #64
 436 01c0 1A61     		str	r2, [r3, #16]
 472:../SPL/src/stm32f10x_flash.c ****     
 473:../SPL/src/stm32f10x_flash.c ****     /* Wait for last operation to be completed */
 474:../SPL/src/stm32f10x_flash.c ****     status = FLASH_WaitForLastOperation(EraseTimeout);
 437              		.loc 1 474 0
 438 01c2 4FF43020 		mov	r0, #720896
 439 01c6 FFF7FEFF 		bl	FLASH_WaitForLastOperation
 440 01ca 0346     		mov	r3, r0
 441 01cc FB73     		strb	r3, [r7, #15]
 475:../SPL/src/stm32f10x_flash.c ****     
 476:../SPL/src/stm32f10x_flash.c ****     /* Disable the PER Bit */
 477:../SPL/src/stm32f10x_flash.c ****     FLASH->CR &= CR_PER_Reset;
 442              		.loc 1 477 0
 443 01ce 084A     		ldr	r2, .L30+8
 444 01d0 074B     		ldr	r3, .L30+8
 445 01d2 1969     		ldr	r1, [r3, #16]
 446 01d4 41F6FD73 		movw	r3, #8189
 447 01d8 0B40     		ands	r3, r3, r1
 448 01da 1361     		str	r3, [r2, #16]
 449              	.L28:
 478:../SPL/src/stm32f10x_flash.c ****   }
 479:../SPL/src/stm32f10x_flash.c **** #endif /* STM32F10X_XL */
 480:../SPL/src/stm32f10x_flash.c **** 
 481:../SPL/src/stm32f10x_flash.c ****   /* Return the Erase Status */
 482:../SPL/src/stm32f10x_flash.c ****   return status;
 450              		.loc 1 482 0
 451 01dc FB7B     		ldrb	r3, [r7, #15]	@ zero_extendqisi2
 483:../SPL/src/stm32f10x_flash.c **** }
 452              		.loc 1 483 0
 453 01de 1846     		mov	r0, r3
 454 01e0 07F11007 		add	r7, r7, #16
 455 01e4 BD46     		mov	sp, r7
 456 01e6 80BD     		pop	{r7, pc}
 457              	.L31:
 458              		.align	2
 459              	.L30:
 460 01e8 FEFF0F08 		.word	135266302
 461 01ec 00000000 		.word	.LC0
 462 01f0 00200240 		.word	1073881088
 463              		.cfi_endproc
 464              	.LFE36:
 466              		.align	2
 467              		.global	FLASH_EraseAllPages
 468              		.thumb
 469              		.thumb_func
 471              	FLASH_EraseAllPages:
 472              	.LFB37:
 484:../SPL/src/stm32f10x_flash.c **** 
 485:../SPL/src/stm32f10x_flash.c **** /**
 486:../SPL/src/stm32f10x_flash.c ****   * @brief  Erases all FLASH pages.
 487:../SPL/src/stm32f10x_flash.c ****   * @note   This function can be used for all STM32F10x devices.
 488:../SPL/src/stm32f10x_flash.c ****   * @param  None
 489:../SPL/src/stm32f10x_flash.c ****   * @retval FLASH Status: The returned value can be: FLASH_ERROR_PG,
 490:../SPL/src/stm32f10x_flash.c ****   *         FLASH_ERROR_WRP, FLASH_COMPLETE or FLASH_TIMEOUT.
 491:../SPL/src/stm32f10x_flash.c ****   */
 492:../SPL/src/stm32f10x_flash.c **** FLASH_Status FLASH_EraseAllPages(void)
 493:../SPL/src/stm32f10x_flash.c **** {
 473              		.loc 1 493 0
 474              		.cfi_startproc
 475              		@ args = 0, pretend = 0, frame = 8
 476              		@ frame_needed = 1, uses_anonymous_args = 0
 477 01f4 80B5     		push	{r7, lr}
 478              	.LCFI20:
 479              		.cfi_def_cfa_offset 8
 480              		.cfi_offset 7, -8
 481              		.cfi_offset 14, -4
 482 01f6 82B0     		sub	sp, sp, #8
 483              	.LCFI21:
 484              		.cfi_def_cfa_offset 16
 485 01f8 00AF     		add	r7, sp, #0
 486              	.LCFI22:
 487              		.cfi_def_cfa_register 7
 494:../SPL/src/stm32f10x_flash.c ****   FLASH_Status status = FLASH_COMPLETE;
 488              		.loc 1 494 0
 489 01fa 4FF00403 		mov	r3, #4
 490 01fe FB71     		strb	r3, [r7, #7]
 495:../SPL/src/stm32f10x_flash.c **** 
 496:../SPL/src/stm32f10x_flash.c **** #ifdef STM32F10X_XL
 497:../SPL/src/stm32f10x_flash.c ****   /* Wait for last operation to be completed */
 498:../SPL/src/stm32f10x_flash.c ****   status = FLASH_WaitForLastBank1Operation(EraseTimeout);
 499:../SPL/src/stm32f10x_flash.c ****   
 500:../SPL/src/stm32f10x_flash.c ****   if(status == FLASH_COMPLETE)
 501:../SPL/src/stm32f10x_flash.c ****   {
 502:../SPL/src/stm32f10x_flash.c ****     /* if the previous operation is completed, proceed to erase all pages */
 503:../SPL/src/stm32f10x_flash.c ****      FLASH->CR |= CR_MER_Set;
 504:../SPL/src/stm32f10x_flash.c ****      FLASH->CR |= CR_STRT_Set;
 505:../SPL/src/stm32f10x_flash.c ****     
 506:../SPL/src/stm32f10x_flash.c ****     /* Wait for last operation to be completed */
 507:../SPL/src/stm32f10x_flash.c ****     status = FLASH_WaitForLastBank1Operation(EraseTimeout);
 508:../SPL/src/stm32f10x_flash.c ****     
 509:../SPL/src/stm32f10x_flash.c ****     /* Disable the MER Bit */
 510:../SPL/src/stm32f10x_flash.c ****     FLASH->CR &= CR_MER_Reset;
 511:../SPL/src/stm32f10x_flash.c ****   }    
 512:../SPL/src/stm32f10x_flash.c ****   if(status == FLASH_COMPLETE)
 513:../SPL/src/stm32f10x_flash.c ****   {
 514:../SPL/src/stm32f10x_flash.c ****     /* if the previous operation is completed, proceed to erase all pages */
 515:../SPL/src/stm32f10x_flash.c ****      FLASH->CR2 |= CR_MER_Set;
 516:../SPL/src/stm32f10x_flash.c ****      FLASH->CR2 |= CR_STRT_Set;
 517:../SPL/src/stm32f10x_flash.c ****     
 518:../SPL/src/stm32f10x_flash.c ****     /* Wait for last operation to be completed */
 519:../SPL/src/stm32f10x_flash.c ****     status = FLASH_WaitForLastBank2Operation(EraseTimeout);
 520:../SPL/src/stm32f10x_flash.c ****     
 521:../SPL/src/stm32f10x_flash.c ****     /* Disable the MER Bit */
 522:../SPL/src/stm32f10x_flash.c ****     FLASH->CR2 &= CR_MER_Reset;
 523:../SPL/src/stm32f10x_flash.c ****   }
 524:../SPL/src/stm32f10x_flash.c **** #else
 525:../SPL/src/stm32f10x_flash.c ****   /* Wait for last operation to be completed */
 526:../SPL/src/stm32f10x_flash.c ****   status = FLASH_WaitForLastOperation(EraseTimeout);
 491              		.loc 1 526 0
 492 0200 4FF43020 		mov	r0, #720896
 493 0204 FFF7FEFF 		bl	FLASH_WaitForLastOperation
 494 0208 0346     		mov	r3, r0
 495 020a FB71     		strb	r3, [r7, #7]
 527:../SPL/src/stm32f10x_flash.c ****   if(status == FLASH_COMPLETE)
 496              		.loc 1 527 0
 497 020c FB79     		ldrb	r3, [r7, #7]	@ zero_extendqisi2
 498 020e 042B     		cmp	r3, #4
 499 0210 18D1     		bne	.L33
 528:../SPL/src/stm32f10x_flash.c ****   {
 529:../SPL/src/stm32f10x_flash.c ****     /* if the previous operation is completed, proceed to erase all pages */
 530:../SPL/src/stm32f10x_flash.c ****      FLASH->CR |= CR_MER_Set;
 500              		.loc 1 530 0
 501 0212 0F4B     		ldr	r3, .L35
 502 0214 0E4A     		ldr	r2, .L35
 503 0216 1269     		ldr	r2, [r2, #16]
 504 0218 42F00402 		orr	r2, r2, #4
 505 021c 1A61     		str	r2, [r3, #16]
 531:../SPL/src/stm32f10x_flash.c ****      FLASH->CR |= CR_STRT_Set;
 506              		.loc 1 531 0
 507 021e 0C4B     		ldr	r3, .L35
 508 0220 0B4A     		ldr	r2, .L35
 509 0222 1269     		ldr	r2, [r2, #16]
 510 0224 42F04002 		orr	r2, r2, #64
 511 0228 1A61     		str	r2, [r3, #16]
 532:../SPL/src/stm32f10x_flash.c ****     
 533:../SPL/src/stm32f10x_flash.c ****     /* Wait for last operation to be completed */
 534:../SPL/src/stm32f10x_flash.c ****     status = FLASH_WaitForLastOperation(EraseTimeout);
 512              		.loc 1 534 0
 513 022a 4FF43020 		mov	r0, #720896
 514 022e FFF7FEFF 		bl	FLASH_WaitForLastOperation
 515 0232 0346     		mov	r3, r0
 516 0234 FB71     		strb	r3, [r7, #7]
 535:../SPL/src/stm32f10x_flash.c **** 
 536:../SPL/src/stm32f10x_flash.c ****     /* Disable the MER Bit */
 537:../SPL/src/stm32f10x_flash.c ****     FLASH->CR &= CR_MER_Reset;
 517              		.loc 1 537 0
 518 0236 064A     		ldr	r2, .L35
 519 0238 054B     		ldr	r3, .L35
 520 023a 1969     		ldr	r1, [r3, #16]
 521 023c 41F6FB73 		movw	r3, #8187
 522 0240 0B40     		ands	r3, r3, r1
 523 0242 1361     		str	r3, [r2, #16]
 524              	.L33:
 538:../SPL/src/stm32f10x_flash.c ****   }
 539:../SPL/src/stm32f10x_flash.c **** #endif /* STM32F10X_XL */
 540:../SPL/src/stm32f10x_flash.c **** 
 541:../SPL/src/stm32f10x_flash.c ****   /* Return the Erase Status */
 542:../SPL/src/stm32f10x_flash.c ****   return status;
 525              		.loc 1 542 0
 526 0244 FB79     		ldrb	r3, [r7, #7]	@ zero_extendqisi2
 543:../SPL/src/stm32f10x_flash.c **** }
 527              		.loc 1 543 0
 528 0246 1846     		mov	r0, r3
 529 0248 07F10807 		add	r7, r7, #8
 530 024c BD46     		mov	sp, r7
 531 024e 80BD     		pop	{r7, pc}
 532              	.L36:
 533              		.align	2
 534              	.L35:
 535 0250 00200240 		.word	1073881088
 536              		.cfi_endproc
 537              	.LFE37:
 539              		.align	2
 540              		.global	FLASH_EraseAllBank1Pages
 541              		.thumb
 542              		.thumb_func
 544              	FLASH_EraseAllBank1Pages:
 545              	.LFB38:
 544:../SPL/src/stm32f10x_flash.c **** 
 545:../SPL/src/stm32f10x_flash.c **** /**
 546:../SPL/src/stm32f10x_flash.c ****   * @brief  Erases all Bank1 FLASH pages.
 547:../SPL/src/stm32f10x_flash.c ****   * @note   This function can be used for all STM32F10x devices.
 548:../SPL/src/stm32f10x_flash.c ****   *         - For STM32F10X_XL devices this function erases all Bank1 pages.
 549:../SPL/src/stm32f10x_flash.c ****   *         - For all other devices it erases all Bank1 pages and it is equivalent 
 550:../SPL/src/stm32f10x_flash.c ****   *           to FLASH_EraseAllPages function.
 551:../SPL/src/stm32f10x_flash.c ****   * @param  None
 552:../SPL/src/stm32f10x_flash.c ****   * @retval FLASH Status: The returned value can be: FLASH_ERROR_PG,
 553:../SPL/src/stm32f10x_flash.c ****   *         FLASH_ERROR_WRP, FLASH_COMPLETE or FLASH_TIMEOUT.
 554:../SPL/src/stm32f10x_flash.c ****   */
 555:../SPL/src/stm32f10x_flash.c **** FLASH_Status FLASH_EraseAllBank1Pages(void)
 556:../SPL/src/stm32f10x_flash.c **** {
 546              		.loc 1 556 0
 547              		.cfi_startproc
 548              		@ args = 0, pretend = 0, frame = 8
 549              		@ frame_needed = 1, uses_anonymous_args = 0
 550 0254 80B5     		push	{r7, lr}
 551              	.LCFI23:
 552              		.cfi_def_cfa_offset 8
 553              		.cfi_offset 7, -8
 554              		.cfi_offset 14, -4
 555 0256 82B0     		sub	sp, sp, #8
 556              	.LCFI24:
 557              		.cfi_def_cfa_offset 16
 558 0258 00AF     		add	r7, sp, #0
 559              	.LCFI25:
 560              		.cfi_def_cfa_register 7
 557:../SPL/src/stm32f10x_flash.c ****   FLASH_Status status = FLASH_COMPLETE;
 561              		.loc 1 557 0
 562 025a 4FF00403 		mov	r3, #4
 563 025e FB71     		strb	r3, [r7, #7]
 558:../SPL/src/stm32f10x_flash.c ****   /* Wait for last operation to be completed */
 559:../SPL/src/stm32f10x_flash.c ****   status = FLASH_WaitForLastBank1Operation(EraseTimeout);
 564              		.loc 1 559 0
 565 0260 4FF43020 		mov	r0, #720896
 566 0264 FFF7FEFF 		bl	FLASH_WaitForLastBank1Operation
 567 0268 0346     		mov	r3, r0
 568 026a FB71     		strb	r3, [r7, #7]
 560:../SPL/src/stm32f10x_flash.c ****   
 561:../SPL/src/stm32f10x_flash.c ****   if(status == FLASH_COMPLETE)
 569              		.loc 1 561 0
 570 026c FB79     		ldrb	r3, [r7, #7]	@ zero_extendqisi2
 571 026e 042B     		cmp	r3, #4
 572 0270 18D1     		bne	.L38
 562:../SPL/src/stm32f10x_flash.c ****   {
 563:../SPL/src/stm32f10x_flash.c ****     /* if the previous operation is completed, proceed to erase all pages */
 564:../SPL/src/stm32f10x_flash.c ****      FLASH->CR |= CR_MER_Set;
 573              		.loc 1 564 0
 574 0272 0F4B     		ldr	r3, .L40
 575 0274 0E4A     		ldr	r2, .L40
 576 0276 1269     		ldr	r2, [r2, #16]
 577 0278 42F00402 		orr	r2, r2, #4
 578 027c 1A61     		str	r2, [r3, #16]
 565:../SPL/src/stm32f10x_flash.c ****      FLASH->CR |= CR_STRT_Set;
 579              		.loc 1 565 0
 580 027e 0C4B     		ldr	r3, .L40
 581 0280 0B4A     		ldr	r2, .L40
 582 0282 1269     		ldr	r2, [r2, #16]
 583 0284 42F04002 		orr	r2, r2, #64
 584 0288 1A61     		str	r2, [r3, #16]
 566:../SPL/src/stm32f10x_flash.c ****     
 567:../SPL/src/stm32f10x_flash.c ****     /* Wait for last operation to be completed */
 568:../SPL/src/stm32f10x_flash.c ****     status = FLASH_WaitForLastBank1Operation(EraseTimeout);
 585              		.loc 1 568 0
 586 028a 4FF43020 		mov	r0, #720896
 587 028e FFF7FEFF 		bl	FLASH_WaitForLastBank1Operation
 588 0292 0346     		mov	r3, r0
 589 0294 FB71     		strb	r3, [r7, #7]
 569:../SPL/src/stm32f10x_flash.c ****     
 570:../SPL/src/stm32f10x_flash.c ****     /* Disable the MER Bit */
 571:../SPL/src/stm32f10x_flash.c ****     FLASH->CR &= CR_MER_Reset;
 590              		.loc 1 571 0
 591 0296 064A     		ldr	r2, .L40
 592 0298 054B     		ldr	r3, .L40
 593 029a 1969     		ldr	r1, [r3, #16]
 594 029c 41F6FB73 		movw	r3, #8187
 595 02a0 0B40     		ands	r3, r3, r1
 596 02a2 1361     		str	r3, [r2, #16]
 597              	.L38:
 572:../SPL/src/stm32f10x_flash.c ****   }    
 573:../SPL/src/stm32f10x_flash.c ****   /* Return the Erase Status */
 574:../SPL/src/stm32f10x_flash.c ****   return status;
 598              		.loc 1 574 0
 599 02a4 FB79     		ldrb	r3, [r7, #7]	@ zero_extendqisi2
 575:../SPL/src/stm32f10x_flash.c **** }
 600              		.loc 1 575 0
 601 02a6 1846     		mov	r0, r3
 602 02a8 07F10807 		add	r7, r7, #8
 603 02ac BD46     		mov	sp, r7
 604 02ae 80BD     		pop	{r7, pc}
 605              	.L41:
 606              		.align	2
 607              	.L40:
 608 02b0 00200240 		.word	1073881088
 609              		.cfi_endproc
 610              	.LFE38:
 612              		.align	2
 613              		.global	FLASH_EraseOptionBytes
 614              		.thumb
 615              		.thumb_func
 617              	FLASH_EraseOptionBytes:
 618              	.LFB39:
 576:../SPL/src/stm32f10x_flash.c **** 
 577:../SPL/src/stm32f10x_flash.c **** #ifdef STM32F10X_XL
 578:../SPL/src/stm32f10x_flash.c **** /**
 579:../SPL/src/stm32f10x_flash.c ****   * @brief  Erases all Bank2 FLASH pages.
 580:../SPL/src/stm32f10x_flash.c ****   * @note   This function can be used only for STM32F10x_XL density devices.
 581:../SPL/src/stm32f10x_flash.c ****   * @param  None
 582:../SPL/src/stm32f10x_flash.c ****   * @retval FLASH Status: The returned value can be: FLASH_ERROR_PG,
 583:../SPL/src/stm32f10x_flash.c ****   *         FLASH_ERROR_WRP, FLASH_COMPLETE or FLASH_TIMEOUT.
 584:../SPL/src/stm32f10x_flash.c ****   */
 585:../SPL/src/stm32f10x_flash.c **** FLASH_Status FLASH_EraseAllBank2Pages(void)
 586:../SPL/src/stm32f10x_flash.c **** {
 587:../SPL/src/stm32f10x_flash.c ****   FLASH_Status status = FLASH_COMPLETE;
 588:../SPL/src/stm32f10x_flash.c ****   /* Wait for last operation to be completed */
 589:../SPL/src/stm32f10x_flash.c ****   status = FLASH_WaitForLastBank2Operation(EraseTimeout);
 590:../SPL/src/stm32f10x_flash.c ****   
 591:../SPL/src/stm32f10x_flash.c ****   if(status == FLASH_COMPLETE)
 592:../SPL/src/stm32f10x_flash.c ****   {
 593:../SPL/src/stm32f10x_flash.c ****     /* if the previous operation is completed, proceed to erase all pages */
 594:../SPL/src/stm32f10x_flash.c ****      FLASH->CR2 |= CR_MER_Set;
 595:../SPL/src/stm32f10x_flash.c ****      FLASH->CR2 |= CR_STRT_Set;
 596:../SPL/src/stm32f10x_flash.c ****     
 597:../SPL/src/stm32f10x_flash.c ****     /* Wait for last operation to be completed */
 598:../SPL/src/stm32f10x_flash.c ****     status = FLASH_WaitForLastBank2Operation(EraseTimeout);
 599:../SPL/src/stm32f10x_flash.c **** 
 600:../SPL/src/stm32f10x_flash.c ****     /* Disable the MER Bit */
 601:../SPL/src/stm32f10x_flash.c ****     FLASH->CR2 &= CR_MER_Reset;
 602:../SPL/src/stm32f10x_flash.c ****   }    
 603:../SPL/src/stm32f10x_flash.c ****   /* Return the Erase Status */
 604:../SPL/src/stm32f10x_flash.c ****   return status;
 605:../SPL/src/stm32f10x_flash.c **** }
 606:../SPL/src/stm32f10x_flash.c **** #endif /* STM32F10X_XL */
 607:../SPL/src/stm32f10x_flash.c **** 
 608:../SPL/src/stm32f10x_flash.c **** /**
 609:../SPL/src/stm32f10x_flash.c ****   * @brief  Erases the FLASH option bytes.
 610:../SPL/src/stm32f10x_flash.c ****   * @note   This functions erases all option bytes except the Read protection (RDP). 
 611:../SPL/src/stm32f10x_flash.c ****   * @note   This function can be used for all STM32F10x devices.
 612:../SPL/src/stm32f10x_flash.c ****   * @param  None
 613:../SPL/src/stm32f10x_flash.c ****   * @retval FLASH Status: The returned value can be: FLASH_ERROR_PG,
 614:../SPL/src/stm32f10x_flash.c ****   *         FLASH_ERROR_WRP, FLASH_COMPLETE or FLASH_TIMEOUT.
 615:../SPL/src/stm32f10x_flash.c ****   */
 616:../SPL/src/stm32f10x_flash.c **** FLASH_Status FLASH_EraseOptionBytes(void)
 617:../SPL/src/stm32f10x_flash.c **** {
 619              		.loc 1 617 0
 620              		.cfi_startproc
 621              		@ args = 0, pretend = 0, frame = 8
 622              		@ frame_needed = 1, uses_anonymous_args = 0
 623 02b4 80B5     		push	{r7, lr}
 624              	.LCFI26:
 625              		.cfi_def_cfa_offset 8
 626              		.cfi_offset 7, -8
 627              		.cfi_offset 14, -4
 628 02b6 82B0     		sub	sp, sp, #8
 629              	.LCFI27:
 630              		.cfi_def_cfa_offset 16
 631 02b8 00AF     		add	r7, sp, #0
 632              	.LCFI28:
 633              		.cfi_def_cfa_register 7
 618:../SPL/src/stm32f10x_flash.c ****   uint16_t rdptmp = RDP_Key;
 634              		.loc 1 618 0
 635 02ba 4FF0A503 		mov	r3, #165
 636 02be FB80     		strh	r3, [r7, #6]	@ movhi
 619:../SPL/src/stm32f10x_flash.c **** 
 620:../SPL/src/stm32f10x_flash.c ****   FLASH_Status status = FLASH_COMPLETE;
 637              		.loc 1 620 0
 638 02c0 4FF00403 		mov	r3, #4
 639 02c4 7B71     		strb	r3, [r7, #5]
 621:../SPL/src/stm32f10x_flash.c **** 
 622:../SPL/src/stm32f10x_flash.c ****   /* Get the actual read protection Option Byte value */ 
 623:../SPL/src/stm32f10x_flash.c ****   if(FLASH_GetReadOutProtectionStatus() != RESET)
 640              		.loc 1 623 0
 641 02c6 FFF7FEFF 		bl	FLASH_GetReadOutProtectionStatus
 642 02ca 0346     		mov	r3, r0
 643 02cc 002B     		cmp	r3, #0
 644 02ce 02D0     		beq	.L43
 624:../SPL/src/stm32f10x_flash.c ****   {
 625:../SPL/src/stm32f10x_flash.c ****     rdptmp = 0x00;  
 645              		.loc 1 625 0
 646 02d0 4FF00003 		mov	r3, #0
 647 02d4 FB80     		strh	r3, [r7, #6]	@ movhi
 648              	.L43:
 626:../SPL/src/stm32f10x_flash.c ****   }
 627:../SPL/src/stm32f10x_flash.c **** 
 628:../SPL/src/stm32f10x_flash.c ****   /* Wait for last operation to be completed */
 629:../SPL/src/stm32f10x_flash.c ****   status = FLASH_WaitForLastOperation(EraseTimeout);
 649              		.loc 1 629 0
 650 02d6 4FF43020 		mov	r0, #720896
 651 02da FFF7FEFF 		bl	FLASH_WaitForLastOperation
 652 02de 0346     		mov	r3, r0
 653 02e0 7B71     		strb	r3, [r7, #5]
 630:../SPL/src/stm32f10x_flash.c ****   if(status == FLASH_COMPLETE)
 654              		.loc 1 630 0
 655 02e2 7B79     		ldrb	r3, [r7, #5]	@ zero_extendqisi2
 656 02e4 042B     		cmp	r3, #4
 657 02e6 45D1     		bne	.L44
 631:../SPL/src/stm32f10x_flash.c ****   {
 632:../SPL/src/stm32f10x_flash.c ****     /* Authorize the small information block programming */
 633:../SPL/src/stm32f10x_flash.c ****     FLASH->OPTKEYR = FLASH_KEY1;
 658              		.loc 1 633 0
 659 02e8 254B     		ldr	r3, .L47
 660 02ea 264A     		ldr	r2, .L47+4
 661 02ec 9A60     		str	r2, [r3, #8]
 634:../SPL/src/stm32f10x_flash.c ****     FLASH->OPTKEYR = FLASH_KEY2;
 662              		.loc 1 634 0
 663 02ee 244B     		ldr	r3, .L47
 664 02f0 254A     		ldr	r2, .L47+8
 665 02f2 9A60     		str	r2, [r3, #8]
 635:../SPL/src/stm32f10x_flash.c ****     
 636:../SPL/src/stm32f10x_flash.c ****     /* if the previous operation is completed, proceed to erase the option bytes */
 637:../SPL/src/stm32f10x_flash.c ****     FLASH->CR |= CR_OPTER_Set;
 666              		.loc 1 637 0
 667 02f4 224B     		ldr	r3, .L47
 668 02f6 224A     		ldr	r2, .L47
 669 02f8 1269     		ldr	r2, [r2, #16]
 670 02fa 42F02002 		orr	r2, r2, #32
 671 02fe 1A61     		str	r2, [r3, #16]
 638:../SPL/src/stm32f10x_flash.c ****     FLASH->CR |= CR_STRT_Set;
 672              		.loc 1 638 0
 673 0300 1F4B     		ldr	r3, .L47
 674 0302 1F4A     		ldr	r2, .L47
 675 0304 1269     		ldr	r2, [r2, #16]
 676 0306 42F04002 		orr	r2, r2, #64
 677 030a 1A61     		str	r2, [r3, #16]
 639:../SPL/src/stm32f10x_flash.c ****     /* Wait for last operation to be completed */
 640:../SPL/src/stm32f10x_flash.c ****     status = FLASH_WaitForLastOperation(EraseTimeout);
 678              		.loc 1 640 0
 679 030c 4FF43020 		mov	r0, #720896
 680 0310 FFF7FEFF 		bl	FLASH_WaitForLastOperation
 681 0314 0346     		mov	r3, r0
 682 0316 7B71     		strb	r3, [r7, #5]
 641:../SPL/src/stm32f10x_flash.c ****     
 642:../SPL/src/stm32f10x_flash.c ****     if(status == FLASH_COMPLETE)
 683              		.loc 1 642 0
 684 0318 7B79     		ldrb	r3, [r7, #5]	@ zero_extendqisi2
 685 031a 042B     		cmp	r3, #4
 686 031c 20D1     		bne	.L45
 643:../SPL/src/stm32f10x_flash.c ****     {
 644:../SPL/src/stm32f10x_flash.c ****       /* if the erase operation is completed, disable the OPTER Bit */
 645:../SPL/src/stm32f10x_flash.c ****       FLASH->CR &= CR_OPTER_Reset;
 687              		.loc 1 645 0
 688 031e 184A     		ldr	r2, .L47
 689 0320 174B     		ldr	r3, .L47
 690 0322 1969     		ldr	r1, [r3, #16]
 691 0324 41F6DF73 		movw	r3, #8159
 692 0328 0B40     		ands	r3, r3, r1
 693 032a 1361     		str	r3, [r2, #16]
 646:../SPL/src/stm32f10x_flash.c ****        
 647:../SPL/src/stm32f10x_flash.c ****       /* Enable the Option Bytes Programming operation */
 648:../SPL/src/stm32f10x_flash.c ****       FLASH->CR |= CR_OPTPG_Set;
 694              		.loc 1 648 0
 695 032c 144B     		ldr	r3, .L47
 696 032e 144A     		ldr	r2, .L47
 697 0330 1269     		ldr	r2, [r2, #16]
 698 0332 42F01002 		orr	r2, r2, #16
 699 0336 1A61     		str	r2, [r3, #16]
 649:../SPL/src/stm32f10x_flash.c ****       /* Restore the last read protection Option Byte value */
 650:../SPL/src/stm32f10x_flash.c ****       OB->RDP = (uint16_t)rdptmp; 
 700              		.loc 1 650 0
 701 0338 144B     		ldr	r3, .L47+12
 702 033a FA88     		ldrh	r2, [r7, #6]	@ movhi
 703 033c 1A80     		strh	r2, [r3, #0]	@ movhi
 651:../SPL/src/stm32f10x_flash.c ****       /* Wait for last operation to be completed */
 652:../SPL/src/stm32f10x_flash.c ****       status = FLASH_WaitForLastOperation(ProgramTimeout);
 704              		.loc 1 652 0
 705 033e 4FF40050 		mov	r0, #8192
 706 0342 FFF7FEFF 		bl	FLASH_WaitForLastOperation
 707 0346 0346     		mov	r3, r0
 708 0348 7B71     		strb	r3, [r7, #5]
 653:../SPL/src/stm32f10x_flash.c ****  
 654:../SPL/src/stm32f10x_flash.c ****       if(status != FLASH_TIMEOUT)
 709              		.loc 1 654 0
 710 034a 7B79     		ldrb	r3, [r7, #5]	@ zero_extendqisi2
 711 034c 052B     		cmp	r3, #5
 712 034e 11D0     		beq	.L44
 655:../SPL/src/stm32f10x_flash.c ****       {
 656:../SPL/src/stm32f10x_flash.c ****         /* if the program operation is completed, disable the OPTPG Bit */
 657:../SPL/src/stm32f10x_flash.c ****         FLASH->CR &= CR_OPTPG_Reset;
 713              		.loc 1 657 0
 714 0350 0B4A     		ldr	r2, .L47
 715 0352 0B4B     		ldr	r3, .L47
 716 0354 1969     		ldr	r1, [r3, #16]
 717 0356 41F6EF73 		movw	r3, #8175
 718 035a 0B40     		ands	r3, r3, r1
 719 035c 1361     		str	r3, [r2, #16]
 720 035e 09E0     		b	.L44
 721              	.L45:
 658:../SPL/src/stm32f10x_flash.c ****       }
 659:../SPL/src/stm32f10x_flash.c ****     }
 660:../SPL/src/stm32f10x_flash.c ****     else
 661:../SPL/src/stm32f10x_flash.c ****     {
 662:../SPL/src/stm32f10x_flash.c ****       if (status != FLASH_TIMEOUT)
 722              		.loc 1 662 0
 723 0360 7B79     		ldrb	r3, [r7, #5]	@ zero_extendqisi2
 724 0362 052B     		cmp	r3, #5
 725 0364 06D0     		beq	.L44
 663:../SPL/src/stm32f10x_flash.c ****       {
 664:../SPL/src/stm32f10x_flash.c ****         /* Disable the OPTPG Bit */
 665:../SPL/src/stm32f10x_flash.c ****         FLASH->CR &= CR_OPTPG_Reset;
 726              		.loc 1 665 0
 727 0366 064A     		ldr	r2, .L47
 728 0368 054B     		ldr	r3, .L47
 729 036a 1969     		ldr	r1, [r3, #16]
 730 036c 41F6EF73 		movw	r3, #8175
 731 0370 0B40     		ands	r3, r3, r1
 732 0372 1361     		str	r3, [r2, #16]
 733              	.L44:
 666:../SPL/src/stm32f10x_flash.c ****       }
 667:../SPL/src/stm32f10x_flash.c ****     }  
 668:../SPL/src/stm32f10x_flash.c ****   }
 669:../SPL/src/stm32f10x_flash.c ****   /* Return the erase status */
 670:../SPL/src/stm32f10x_flash.c ****   return status;
 734              		.loc 1 670 0
 735 0374 7B79     		ldrb	r3, [r7, #5]	@ zero_extendqisi2
 671:../SPL/src/stm32f10x_flash.c **** }
 736              		.loc 1 671 0
 737 0376 1846     		mov	r0, r3
 738 0378 07F10807 		add	r7, r7, #8
 739 037c BD46     		mov	sp, r7
 740 037e 80BD     		pop	{r7, pc}
 741              	.L48:
 742              		.align	2
 743              	.L47:
 744 0380 00200240 		.word	1073881088
 745 0384 23016745 		.word	1164378403
 746 0388 AB89EFCD 		.word	-839939669
 747 038c 00F8FF1F 		.word	536868864
 748              		.cfi_endproc
 749              	.LFE39:
 751              		.align	2
 752              		.global	FLASH_ProgramWord
 753              		.thumb
 754              		.thumb_func
 756              	FLASH_ProgramWord:
 757              	.LFB40:
 672:../SPL/src/stm32f10x_flash.c **** 
 673:../SPL/src/stm32f10x_flash.c **** /**
 674:../SPL/src/stm32f10x_flash.c ****   * @brief  Programs a word at a specified address.
 675:../SPL/src/stm32f10x_flash.c ****   * @note   This function can be used for all STM32F10x devices.
 676:../SPL/src/stm32f10x_flash.c ****   * @param  Address: specifies the address to be programmed.
 677:../SPL/src/stm32f10x_flash.c ****   * @param  Data: specifies the data to be programmed.
 678:../SPL/src/stm32f10x_flash.c ****   * @retval FLASH Status: The returned value can be: FLASH_ERROR_PG,
 679:../SPL/src/stm32f10x_flash.c ****   *         FLASH_ERROR_WRP, FLASH_COMPLETE or FLASH_TIMEOUT. 
 680:../SPL/src/stm32f10x_flash.c ****   */
 681:../SPL/src/stm32f10x_flash.c **** FLASH_Status FLASH_ProgramWord(uint32_t Address, uint32_t Data)
 682:../SPL/src/stm32f10x_flash.c **** {
 758              		.loc 1 682 0
 759              		.cfi_startproc
 760              		@ args = 0, pretend = 0, frame = 16
 761              		@ frame_needed = 1, uses_anonymous_args = 0
 762 0390 80B5     		push	{r7, lr}
 763              	.LCFI29:
 764              		.cfi_def_cfa_offset 8
 765              		.cfi_offset 7, -8
 766              		.cfi_offset 14, -4
 767 0392 84B0     		sub	sp, sp, #16
 768              	.LCFI30:
 769              		.cfi_def_cfa_offset 24
 770 0394 00AF     		add	r7, sp, #0
 771              	.LCFI31:
 772              		.cfi_def_cfa_register 7
 773 0396 7860     		str	r0, [r7, #4]
 774 0398 3960     		str	r1, [r7, #0]
 683:../SPL/src/stm32f10x_flash.c ****   FLASH_Status status = FLASH_COMPLETE;
 775              		.loc 1 683 0
 776 039a 4FF00403 		mov	r3, #4
 777 039e FB73     		strb	r3, [r7, #15]
 684:../SPL/src/stm32f10x_flash.c ****   __IO uint32_t tmp = 0;
 778              		.loc 1 684 0
 779 03a0 4FF00003 		mov	r3, #0
 780 03a4 BB60     		str	r3, [r7, #8]
 685:../SPL/src/stm32f10x_flash.c **** 
 686:../SPL/src/stm32f10x_flash.c ****   /* Check the parameters */
 687:../SPL/src/stm32f10x_flash.c ****   assert_param(IS_FLASH_ADDRESS(Address));
 781              		.loc 1 687 0
 782 03a6 7A68     		ldr	r2, [r7, #4]
 783 03a8 6FF07843 		mvn	r3, #-134217728
 784 03ac 9A42     		cmp	r2, r3
 785 03ae 03D9     		bls	.L50
 786              		.loc 1 687 0 is_stmt 0 discriminator 2
 787 03b0 7A68     		ldr	r2, [r7, #4]
 788 03b2 244B     		ldr	r3, .L55
 789 03b4 9A42     		cmp	r2, r3
 790 03b6 04D9     		bls	.L51
 791              	.L50:
 792              		.loc 1 687 0 discriminator 1
 793 03b8 2348     		ldr	r0, .L55+4
 794 03ba 40F2AF21 		movw	r1, #687
 795 03be FFF7FEFF 		bl	assert_failed
 796              	.L51:
 688:../SPL/src/stm32f10x_flash.c **** 
 689:../SPL/src/stm32f10x_flash.c **** #ifdef STM32F10X_XL
 690:../SPL/src/stm32f10x_flash.c ****   if(Address < FLASH_BANK1_END_ADDRESS - 2)
 691:../SPL/src/stm32f10x_flash.c ****   { 
 692:../SPL/src/stm32f10x_flash.c ****     /* Wait for last operation to be completed */
 693:../SPL/src/stm32f10x_flash.c ****     status = FLASH_WaitForLastBank1Operation(ProgramTimeout); 
 694:../SPL/src/stm32f10x_flash.c ****     if(status == FLASH_COMPLETE)
 695:../SPL/src/stm32f10x_flash.c ****     {
 696:../SPL/src/stm32f10x_flash.c ****       /* if the previous operation is completed, proceed to program the new first 
 697:../SPL/src/stm32f10x_flash.c ****         half word */
 698:../SPL/src/stm32f10x_flash.c ****       FLASH->CR |= CR_PG_Set;
 699:../SPL/src/stm32f10x_flash.c ****   
 700:../SPL/src/stm32f10x_flash.c ****       *(__IO uint16_t*)Address = (uint16_t)Data;
 701:../SPL/src/stm32f10x_flash.c ****       /* Wait for last operation to be completed */
 702:../SPL/src/stm32f10x_flash.c ****       status = FLASH_WaitForLastOperation(ProgramTimeout);
 703:../SPL/src/stm32f10x_flash.c ****  
 704:../SPL/src/stm32f10x_flash.c ****       if(status == FLASH_COMPLETE)
 705:../SPL/src/stm32f10x_flash.c ****       {
 706:../SPL/src/stm32f10x_flash.c ****         /* if the previous operation is completed, proceed to program the new second 
 707:../SPL/src/stm32f10x_flash.c ****         half word */
 708:../SPL/src/stm32f10x_flash.c ****         tmp = Address + 2;
 709:../SPL/src/stm32f10x_flash.c **** 
 710:../SPL/src/stm32f10x_flash.c ****         *(__IO uint16_t*) tmp = Data >> 16;
 711:../SPL/src/stm32f10x_flash.c ****     
 712:../SPL/src/stm32f10x_flash.c ****         /* Wait for last operation to be completed */
 713:../SPL/src/stm32f10x_flash.c ****         status = FLASH_WaitForLastOperation(ProgramTimeout);
 714:../SPL/src/stm32f10x_flash.c ****         
 715:../SPL/src/stm32f10x_flash.c ****         /* Disable the PG Bit */
 716:../SPL/src/stm32f10x_flash.c ****         FLASH->CR &= CR_PG_Reset;
 717:../SPL/src/stm32f10x_flash.c ****       }
 718:../SPL/src/stm32f10x_flash.c ****       else
 719:../SPL/src/stm32f10x_flash.c ****       {
 720:../SPL/src/stm32f10x_flash.c ****         /* Disable the PG Bit */
 721:../SPL/src/stm32f10x_flash.c ****         FLASH->CR &= CR_PG_Reset;
 722:../SPL/src/stm32f10x_flash.c ****        }
 723:../SPL/src/stm32f10x_flash.c ****     }
 724:../SPL/src/stm32f10x_flash.c ****   }
 725:../SPL/src/stm32f10x_flash.c ****   else if(Address == (FLASH_BANK1_END_ADDRESS - 1))
 726:../SPL/src/stm32f10x_flash.c ****   {
 727:../SPL/src/stm32f10x_flash.c ****     /* Wait for last operation to be completed */
 728:../SPL/src/stm32f10x_flash.c ****     status = FLASH_WaitForLastBank1Operation(ProgramTimeout);
 729:../SPL/src/stm32f10x_flash.c **** 
 730:../SPL/src/stm32f10x_flash.c ****     if(status == FLASH_COMPLETE)
 731:../SPL/src/stm32f10x_flash.c ****     {
 732:../SPL/src/stm32f10x_flash.c ****       /* if the previous operation is completed, proceed to program the new first 
 733:../SPL/src/stm32f10x_flash.c ****         half word */
 734:../SPL/src/stm32f10x_flash.c ****       FLASH->CR |= CR_PG_Set;
 735:../SPL/src/stm32f10x_flash.c ****   
 736:../SPL/src/stm32f10x_flash.c ****       *(__IO uint16_t*)Address = (uint16_t)Data;
 737:../SPL/src/stm32f10x_flash.c **** 
 738:../SPL/src/stm32f10x_flash.c ****       /* Wait for last operation to be completed */
 739:../SPL/src/stm32f10x_flash.c ****       status = FLASH_WaitForLastBank1Operation(ProgramTimeout);
 740:../SPL/src/stm32f10x_flash.c ****       
 741:../SPL/src/stm32f10x_flash.c **** 	  /* Disable the PG Bit */
 742:../SPL/src/stm32f10x_flash.c ****       FLASH->CR &= CR_PG_Reset;
 743:../SPL/src/stm32f10x_flash.c ****     }
 744:../SPL/src/stm32f10x_flash.c ****     else
 745:../SPL/src/stm32f10x_flash.c ****     {
 746:../SPL/src/stm32f10x_flash.c ****       /* Disable the PG Bit */
 747:../SPL/src/stm32f10x_flash.c ****       FLASH->CR &= CR_PG_Reset;
 748:../SPL/src/stm32f10x_flash.c ****     }
 749:../SPL/src/stm32f10x_flash.c **** 
 750:../SPL/src/stm32f10x_flash.c ****     /* Wait for last operation to be completed */
 751:../SPL/src/stm32f10x_flash.c ****     status = FLASH_WaitForLastBank2Operation(ProgramTimeout);
 752:../SPL/src/stm32f10x_flash.c **** 
 753:../SPL/src/stm32f10x_flash.c ****     if(status == FLASH_COMPLETE)
 754:../SPL/src/stm32f10x_flash.c ****     {
 755:../SPL/src/stm32f10x_flash.c ****       /* if the previous operation is completed, proceed to program the new second 
 756:../SPL/src/stm32f10x_flash.c ****       half word */
 757:../SPL/src/stm32f10x_flash.c ****       FLASH->CR2 |= CR_PG_Set;
 758:../SPL/src/stm32f10x_flash.c ****       tmp = Address + 2;
 759:../SPL/src/stm32f10x_flash.c **** 
 760:../SPL/src/stm32f10x_flash.c ****       *(__IO uint16_t*) tmp = Data >> 16;
 761:../SPL/src/stm32f10x_flash.c ****     
 762:../SPL/src/stm32f10x_flash.c ****       /* Wait for last operation to be completed */
 763:../SPL/src/stm32f10x_flash.c ****       status = FLASH_WaitForLastBank2Operation(ProgramTimeout);
 764:../SPL/src/stm32f10x_flash.c ****         
 765:../SPL/src/stm32f10x_flash.c ****       /* Disable the PG Bit */
 766:../SPL/src/stm32f10x_flash.c ****       FLASH->CR2 &= CR_PG_Reset;
 767:../SPL/src/stm32f10x_flash.c ****     }
 768:../SPL/src/stm32f10x_flash.c ****     else
 769:../SPL/src/stm32f10x_flash.c ****     {
 770:../SPL/src/stm32f10x_flash.c ****       /* Disable the PG Bit */
 771:../SPL/src/stm32f10x_flash.c ****       FLASH->CR2 &= CR_PG_Reset;
 772:../SPL/src/stm32f10x_flash.c ****     }
 773:../SPL/src/stm32f10x_flash.c ****   }
 774:../SPL/src/stm32f10x_flash.c ****   else
 775:../SPL/src/stm32f10x_flash.c ****   {
 776:../SPL/src/stm32f10x_flash.c ****     /* Wait for last operation to be completed */
 777:../SPL/src/stm32f10x_flash.c ****     status = FLASH_WaitForLastBank2Operation(ProgramTimeout);
 778:../SPL/src/stm32f10x_flash.c **** 
 779:../SPL/src/stm32f10x_flash.c ****     if(status == FLASH_COMPLETE)
 780:../SPL/src/stm32f10x_flash.c ****     {
 781:../SPL/src/stm32f10x_flash.c ****       /* if the previous operation is completed, proceed to program the new first 
 782:../SPL/src/stm32f10x_flash.c ****         half word */
 783:../SPL/src/stm32f10x_flash.c ****       FLASH->CR2 |= CR_PG_Set;
 784:../SPL/src/stm32f10x_flash.c ****   
 785:../SPL/src/stm32f10x_flash.c ****       *(__IO uint16_t*)Address = (uint16_t)Data;
 786:../SPL/src/stm32f10x_flash.c ****       /* Wait for last operation to be completed */
 787:../SPL/src/stm32f10x_flash.c ****       status = FLASH_WaitForLastBank2Operation(ProgramTimeout);
 788:../SPL/src/stm32f10x_flash.c ****  
 789:../SPL/src/stm32f10x_flash.c ****       if(status == FLASH_COMPLETE)
 790:../SPL/src/stm32f10x_flash.c ****       {
 791:../SPL/src/stm32f10x_flash.c ****         /* if the previous operation is completed, proceed to program the new second 
 792:../SPL/src/stm32f10x_flash.c ****         half word */
 793:../SPL/src/stm32f10x_flash.c ****         tmp = Address + 2;
 794:../SPL/src/stm32f10x_flash.c **** 
 795:../SPL/src/stm32f10x_flash.c ****         *(__IO uint16_t*) tmp = Data >> 16;
 796:../SPL/src/stm32f10x_flash.c ****     
 797:../SPL/src/stm32f10x_flash.c ****         /* Wait for last operation to be completed */
 798:../SPL/src/stm32f10x_flash.c ****         status = FLASH_WaitForLastBank2Operation(ProgramTimeout);
 799:../SPL/src/stm32f10x_flash.c ****         
 800:../SPL/src/stm32f10x_flash.c ****         /* Disable the PG Bit */
 801:../SPL/src/stm32f10x_flash.c ****         FLASH->CR2 &= CR_PG_Reset;
 802:../SPL/src/stm32f10x_flash.c ****       }
 803:../SPL/src/stm32f10x_flash.c ****       else
 804:../SPL/src/stm32f10x_flash.c ****       {
 805:../SPL/src/stm32f10x_flash.c ****         /* Disable the PG Bit */
 806:../SPL/src/stm32f10x_flash.c ****         FLASH->CR2 &= CR_PG_Reset;
 807:../SPL/src/stm32f10x_flash.c ****       }
 808:../SPL/src/stm32f10x_flash.c ****     }
 809:../SPL/src/stm32f10x_flash.c ****   }
 810:../SPL/src/stm32f10x_flash.c **** #else
 811:../SPL/src/stm32f10x_flash.c ****   /* Wait for last operation to be completed */
 812:../SPL/src/stm32f10x_flash.c ****   status = FLASH_WaitForLastOperation(ProgramTimeout);
 797              		.loc 1 812 0 is_stmt 1
 798 03c2 4FF40050 		mov	r0, #8192
 799 03c6 FFF7FEFF 		bl	FLASH_WaitForLastOperation
 800 03ca 0346     		mov	r3, r0
 801 03cc FB73     		strb	r3, [r7, #15]
 813:../SPL/src/stm32f10x_flash.c ****   
 814:../SPL/src/stm32f10x_flash.c ****   if(status == FLASH_COMPLETE)
 802              		.loc 1 814 0
 803 03ce FB7B     		ldrb	r3, [r7, #15]	@ zero_extendqisi2
 804 03d0 042B     		cmp	r3, #4
 805 03d2 31D1     		bne	.L52
 815:../SPL/src/stm32f10x_flash.c ****   {
 816:../SPL/src/stm32f10x_flash.c ****     /* if the previous operation is completed, proceed to program the new first 
 817:../SPL/src/stm32f10x_flash.c ****     half word */
 818:../SPL/src/stm32f10x_flash.c ****     FLASH->CR |= CR_PG_Set;
 806              		.loc 1 818 0
 807 03d4 1D4B     		ldr	r3, .L55+8
 808 03d6 1D4A     		ldr	r2, .L55+8
 809 03d8 1269     		ldr	r2, [r2, #16]
 810 03da 42F00102 		orr	r2, r2, #1
 811 03de 1A61     		str	r2, [r3, #16]
 819:../SPL/src/stm32f10x_flash.c ****   
 820:../SPL/src/stm32f10x_flash.c ****     *(__IO uint16_t*)Address = (uint16_t)Data;
 812              		.loc 1 820 0
 813 03e0 7B68     		ldr	r3, [r7, #4]
 814 03e2 3A68     		ldr	r2, [r7, #0]
 815 03e4 92B2     		uxth	r2, r2
 816 03e6 1A80     		strh	r2, [r3, #0]	@ movhi
 821:../SPL/src/stm32f10x_flash.c ****     /* Wait for last operation to be completed */
 822:../SPL/src/stm32f10x_flash.c ****     status = FLASH_WaitForLastOperation(ProgramTimeout);
 817              		.loc 1 822 0
 818 03e8 4FF40050 		mov	r0, #8192
 819 03ec FFF7FEFF 		bl	FLASH_WaitForLastOperation
 820 03f0 0346     		mov	r3, r0
 821 03f2 FB73     		strb	r3, [r7, #15]
 823:../SPL/src/stm32f10x_flash.c ****  
 824:../SPL/src/stm32f10x_flash.c ****     if(status == FLASH_COMPLETE)
 822              		.loc 1 824 0
 823 03f4 FB7B     		ldrb	r3, [r7, #15]	@ zero_extendqisi2
 824 03f6 042B     		cmp	r3, #4
 825 03f8 17D1     		bne	.L53
 825:../SPL/src/stm32f10x_flash.c ****     {
 826:../SPL/src/stm32f10x_flash.c ****       /* if the previous operation is completed, proceed to program the new second 
 827:../SPL/src/stm32f10x_flash.c ****       half word */
 828:../SPL/src/stm32f10x_flash.c ****       tmp = Address + 2;
 826              		.loc 1 828 0
 827 03fa 7B68     		ldr	r3, [r7, #4]
 828 03fc 03F10203 		add	r3, r3, #2
 829 0400 BB60     		str	r3, [r7, #8]
 829:../SPL/src/stm32f10x_flash.c **** 
 830:../SPL/src/stm32f10x_flash.c ****       *(__IO uint16_t*) tmp = Data >> 16;
 830              		.loc 1 830 0
 831 0402 BB68     		ldr	r3, [r7, #8]
 832 0404 3A68     		ldr	r2, [r7, #0]
 833 0406 4FEA1242 		lsr	r2, r2, #16
 834 040a 92B2     		uxth	r2, r2
 835 040c 1A80     		strh	r2, [r3, #0]	@ movhi
 831:../SPL/src/stm32f10x_flash.c ****     
 832:../SPL/src/stm32f10x_flash.c ****       /* Wait for last operation to be completed */
 833:../SPL/src/stm32f10x_flash.c ****       status = FLASH_WaitForLastOperation(ProgramTimeout);
 836              		.loc 1 833 0
 837 040e 4FF40050 		mov	r0, #8192
 838 0412 FFF7FEFF 		bl	FLASH_WaitForLastOperation
 839 0416 0346     		mov	r3, r0
 840 0418 FB73     		strb	r3, [r7, #15]
 834:../SPL/src/stm32f10x_flash.c ****         
 835:../SPL/src/stm32f10x_flash.c ****       /* Disable the PG Bit */
 836:../SPL/src/stm32f10x_flash.c ****       FLASH->CR &= CR_PG_Reset;
 841              		.loc 1 836 0
 842 041a 0C4A     		ldr	r2, .L55+8
 843 041c 0B4B     		ldr	r3, .L55+8
 844 041e 1969     		ldr	r1, [r3, #16]
 845 0420 41F6FE73 		movw	r3, #8190
 846 0424 0B40     		ands	r3, r3, r1
 847 0426 1361     		str	r3, [r2, #16]
 848 0428 06E0     		b	.L52
 849              	.L53:
 837:../SPL/src/stm32f10x_flash.c ****     }
 838:../SPL/src/stm32f10x_flash.c ****     else
 839:../SPL/src/stm32f10x_flash.c ****     {
 840:../SPL/src/stm32f10x_flash.c ****       /* Disable the PG Bit */
 841:../SPL/src/stm32f10x_flash.c ****       FLASH->CR &= CR_PG_Reset;
 850              		.loc 1 841 0
 851 042a 084A     		ldr	r2, .L55+8
 852 042c 074B     		ldr	r3, .L55+8
 853 042e 1969     		ldr	r1, [r3, #16]
 854 0430 41F6FE73 		movw	r3, #8190
 855 0434 0B40     		ands	r3, r3, r1
 856 0436 1361     		str	r3, [r2, #16]
 857              	.L52:
 842:../SPL/src/stm32f10x_flash.c ****     }
 843:../SPL/src/stm32f10x_flash.c ****   }         
 844:../SPL/src/stm32f10x_flash.c **** #endif /* STM32F10X_XL */
 845:../SPL/src/stm32f10x_flash.c ****    
 846:../SPL/src/stm32f10x_flash.c ****   /* Return the Program Status */
 847:../SPL/src/stm32f10x_flash.c ****   return status;
 858              		.loc 1 847 0
 859 0438 FB7B     		ldrb	r3, [r7, #15]	@ zero_extendqisi2
 848:../SPL/src/stm32f10x_flash.c **** }
 860              		.loc 1 848 0
 861 043a 1846     		mov	r0, r3
 862 043c 07F11007 		add	r7, r7, #16
 863 0440 BD46     		mov	sp, r7
 864 0442 80BD     		pop	{r7, pc}
 865              	.L56:
 866              		.align	2
 867              	.L55:
 868 0444 FEFF0F08 		.word	135266302
 869 0448 00000000 		.word	.LC0
 870 044c 00200240 		.word	1073881088
 871              		.cfi_endproc
 872              	.LFE40:
 874              		.align	2
 875              		.global	FLASH_ProgramHalfWord
 876              		.thumb
 877              		.thumb_func
 879              	FLASH_ProgramHalfWord:
 880              	.LFB41:
 849:../SPL/src/stm32f10x_flash.c **** 
 850:../SPL/src/stm32f10x_flash.c **** /**
 851:../SPL/src/stm32f10x_flash.c ****   * @brief  Programs a half word at a specified address.
 852:../SPL/src/stm32f10x_flash.c ****   * @note   This function can be used for all STM32F10x devices.
 853:../SPL/src/stm32f10x_flash.c ****   * @param  Address: specifies the address to be programmed.
 854:../SPL/src/stm32f10x_flash.c ****   * @param  Data: specifies the data to be programmed.
 855:../SPL/src/stm32f10x_flash.c ****   * @retval FLASH Status: The returned value can be: FLASH_ERROR_PG,
 856:../SPL/src/stm32f10x_flash.c ****   *         FLASH_ERROR_WRP, FLASH_COMPLETE or FLASH_TIMEOUT. 
 857:../SPL/src/stm32f10x_flash.c ****   */
 858:../SPL/src/stm32f10x_flash.c **** FLASH_Status FLASH_ProgramHalfWord(uint32_t Address, uint16_t Data)
 859:../SPL/src/stm32f10x_flash.c **** {
 881              		.loc 1 859 0
 882              		.cfi_startproc
 883              		@ args = 0, pretend = 0, frame = 16
 884              		@ frame_needed = 1, uses_anonymous_args = 0
 885 0450 80B5     		push	{r7, lr}
 886              	.LCFI32:
 887              		.cfi_def_cfa_offset 8
 888              		.cfi_offset 7, -8
 889              		.cfi_offset 14, -4
 890 0452 84B0     		sub	sp, sp, #16
 891              	.LCFI33:
 892              		.cfi_def_cfa_offset 24
 893 0454 00AF     		add	r7, sp, #0
 894              	.LCFI34:
 895              		.cfi_def_cfa_register 7
 896 0456 7860     		str	r0, [r7, #4]
 897 0458 0B46     		mov	r3, r1
 898 045a 7B80     		strh	r3, [r7, #2]	@ movhi
 860:../SPL/src/stm32f10x_flash.c ****   FLASH_Status status = FLASH_COMPLETE;
 899              		.loc 1 860 0
 900 045c 4FF00403 		mov	r3, #4
 901 0460 FB73     		strb	r3, [r7, #15]
 861:../SPL/src/stm32f10x_flash.c ****   /* Check the parameters */
 862:../SPL/src/stm32f10x_flash.c ****   assert_param(IS_FLASH_ADDRESS(Address));
 902              		.loc 1 862 0
 903 0462 7A68     		ldr	r2, [r7, #4]
 904 0464 6FF07843 		mvn	r3, #-134217728
 905 0468 9A42     		cmp	r2, r3
 906 046a 03D9     		bls	.L58
 907              		.loc 1 862 0 is_stmt 0 discriminator 2
 908 046c 7A68     		ldr	r2, [r7, #4]
 909 046e 164B     		ldr	r3, .L62
 910 0470 9A42     		cmp	r2, r3
 911 0472 04D9     		bls	.L59
 912              	.L58:
 913              		.loc 1 862 0 discriminator 1
 914 0474 1548     		ldr	r0, .L62+4
 915 0476 40F25E31 		movw	r1, #862
 916 047a FFF7FEFF 		bl	assert_failed
 917              	.L59:
 863:../SPL/src/stm32f10x_flash.c **** 
 864:../SPL/src/stm32f10x_flash.c **** #ifdef STM32F10X_XL
 865:../SPL/src/stm32f10x_flash.c ****   /* Wait for last operation to be completed */
 866:../SPL/src/stm32f10x_flash.c ****   status = FLASH_WaitForLastOperation(ProgramTimeout);
 867:../SPL/src/stm32f10x_flash.c ****   
 868:../SPL/src/stm32f10x_flash.c ****   if(Address < FLASH_BANK1_END_ADDRESS)
 869:../SPL/src/stm32f10x_flash.c ****   {
 870:../SPL/src/stm32f10x_flash.c ****     if(status == FLASH_COMPLETE)
 871:../SPL/src/stm32f10x_flash.c ****     {
 872:../SPL/src/stm32f10x_flash.c ****       /* if the previous operation is completed, proceed to program the new data */
 873:../SPL/src/stm32f10x_flash.c ****       FLASH->CR |= CR_PG_Set;
 874:../SPL/src/stm32f10x_flash.c ****   
 875:../SPL/src/stm32f10x_flash.c ****       *(__IO uint16_t*)Address = Data;
 876:../SPL/src/stm32f10x_flash.c ****       /* Wait for last operation to be completed */
 877:../SPL/src/stm32f10x_flash.c ****       status = FLASH_WaitForLastBank1Operation(ProgramTimeout);
 878:../SPL/src/stm32f10x_flash.c **** 
 879:../SPL/src/stm32f10x_flash.c ****       /* Disable the PG Bit */
 880:../SPL/src/stm32f10x_flash.c ****       FLASH->CR &= CR_PG_Reset;
 881:../SPL/src/stm32f10x_flash.c ****     }
 882:../SPL/src/stm32f10x_flash.c ****   }
 883:../SPL/src/stm32f10x_flash.c ****   else
 884:../SPL/src/stm32f10x_flash.c ****   {
 885:../SPL/src/stm32f10x_flash.c ****     if(status == FLASH_COMPLETE)
 886:../SPL/src/stm32f10x_flash.c ****     {
 887:../SPL/src/stm32f10x_flash.c ****       /* if the previous operation is completed, proceed to program the new data */
 888:../SPL/src/stm32f10x_flash.c ****       FLASH->CR2 |= CR_PG_Set;
 889:../SPL/src/stm32f10x_flash.c ****   
 890:../SPL/src/stm32f10x_flash.c ****       *(__IO uint16_t*)Address = Data;
 891:../SPL/src/stm32f10x_flash.c ****       /* Wait for last operation to be completed */
 892:../SPL/src/stm32f10x_flash.c ****       status = FLASH_WaitForLastBank2Operation(ProgramTimeout);
 893:../SPL/src/stm32f10x_flash.c **** 
 894:../SPL/src/stm32f10x_flash.c ****       /* Disable the PG Bit */
 895:../SPL/src/stm32f10x_flash.c ****       FLASH->CR2 &= CR_PG_Reset;
 896:../SPL/src/stm32f10x_flash.c ****     }
 897:../SPL/src/stm32f10x_flash.c ****   }
 898:../SPL/src/stm32f10x_flash.c **** #else
 899:../SPL/src/stm32f10x_flash.c ****   /* Wait for last operation to be completed */
 900:../SPL/src/stm32f10x_flash.c ****   status = FLASH_WaitForLastOperation(ProgramTimeout);
 918              		.loc 1 900 0 is_stmt 1
 919 047e 4FF40050 		mov	r0, #8192
 920 0482 FFF7FEFF 		bl	FLASH_WaitForLastOperation
 921 0486 0346     		mov	r3, r0
 922 0488 FB73     		strb	r3, [r7, #15]
 901:../SPL/src/stm32f10x_flash.c ****   
 902:../SPL/src/stm32f10x_flash.c ****   if(status == FLASH_COMPLETE)
 923              		.loc 1 902 0
 924 048a FB7B     		ldrb	r3, [r7, #15]	@ zero_extendqisi2
 925 048c 042B     		cmp	r3, #4
 926 048e 15D1     		bne	.L60
 903:../SPL/src/stm32f10x_flash.c ****   {
 904:../SPL/src/stm32f10x_flash.c ****     /* if the previous operation is completed, proceed to program the new data */
 905:../SPL/src/stm32f10x_flash.c ****     FLASH->CR |= CR_PG_Set;
 927              		.loc 1 905 0
 928 0490 0F4B     		ldr	r3, .L62+8
 929 0492 0F4A     		ldr	r2, .L62+8
 930 0494 1269     		ldr	r2, [r2, #16]
 931 0496 42F00102 		orr	r2, r2, #1
 932 049a 1A61     		str	r2, [r3, #16]
 906:../SPL/src/stm32f10x_flash.c ****   
 907:../SPL/src/stm32f10x_flash.c ****     *(__IO uint16_t*)Address = Data;
 933              		.loc 1 907 0
 934 049c 7B68     		ldr	r3, [r7, #4]
 935 049e 7A88     		ldrh	r2, [r7, #2]	@ movhi
 936 04a0 1A80     		strh	r2, [r3, #0]	@ movhi
 908:../SPL/src/stm32f10x_flash.c ****     /* Wait for last operation to be completed */
 909:../SPL/src/stm32f10x_flash.c ****     status = FLASH_WaitForLastOperation(ProgramTimeout);
 937              		.loc 1 909 0
 938 04a2 4FF40050 		mov	r0, #8192
 939 04a6 FFF7FEFF 		bl	FLASH_WaitForLastOperation
 940 04aa 0346     		mov	r3, r0
 941 04ac FB73     		strb	r3, [r7, #15]
 910:../SPL/src/stm32f10x_flash.c ****     
 911:../SPL/src/stm32f10x_flash.c ****     /* Disable the PG Bit */
 912:../SPL/src/stm32f10x_flash.c ****     FLASH->CR &= CR_PG_Reset;
 942              		.loc 1 912 0
 943 04ae 084A     		ldr	r2, .L62+8
 944 04b0 074B     		ldr	r3, .L62+8
 945 04b2 1969     		ldr	r1, [r3, #16]
 946 04b4 41F6FE73 		movw	r3, #8190
 947 04b8 0B40     		ands	r3, r3, r1
 948 04ba 1361     		str	r3, [r2, #16]
 949              	.L60:
 913:../SPL/src/stm32f10x_flash.c ****   } 
 914:../SPL/src/stm32f10x_flash.c **** #endif  /* STM32F10X_XL */
 915:../SPL/src/stm32f10x_flash.c ****   
 916:../SPL/src/stm32f10x_flash.c ****   /* Return the Program Status */
 917:../SPL/src/stm32f10x_flash.c ****   return status;
 950              		.loc 1 917 0
 951 04bc FB7B     		ldrb	r3, [r7, #15]	@ zero_extendqisi2
 918:../SPL/src/stm32f10x_flash.c **** }
 952              		.loc 1 918 0
 953 04be 1846     		mov	r0, r3
 954 04c0 07F11007 		add	r7, r7, #16
 955 04c4 BD46     		mov	sp, r7
 956 04c6 80BD     		pop	{r7, pc}
 957              	.L63:
 958              		.align	2
 959              	.L62:
 960 04c8 FEFF0F08 		.word	135266302
 961 04cc 00000000 		.word	.LC0
 962 04d0 00200240 		.word	1073881088
 963              		.cfi_endproc
 964              	.LFE41:
 966              		.align	2
 967              		.global	FLASH_ProgramOptionByteData
 968              		.thumb
 969              		.thumb_func
 971              	FLASH_ProgramOptionByteData:
 972              	.LFB42:
 919:../SPL/src/stm32f10x_flash.c **** 
 920:../SPL/src/stm32f10x_flash.c **** /**
 921:../SPL/src/stm32f10x_flash.c ****   * @brief  Programs a half word at a specified Option Byte Data address.
 922:../SPL/src/stm32f10x_flash.c ****   * @note   This function can be used for all STM32F10x devices.
 923:../SPL/src/stm32f10x_flash.c ****   * @param  Address: specifies the address to be programmed.
 924:../SPL/src/stm32f10x_flash.c ****   *   This parameter can be 0x1FFFF804 or 0x1FFFF806. 
 925:../SPL/src/stm32f10x_flash.c ****   * @param  Data: specifies the data to be programmed.
 926:../SPL/src/stm32f10x_flash.c ****   * @retval FLASH Status: The returned value can be: FLASH_ERROR_PG,
 927:../SPL/src/stm32f10x_flash.c ****   *         FLASH_ERROR_WRP, FLASH_COMPLETE or FLASH_TIMEOUT. 
 928:../SPL/src/stm32f10x_flash.c ****   */
 929:../SPL/src/stm32f10x_flash.c **** FLASH_Status FLASH_ProgramOptionByteData(uint32_t Address, uint8_t Data)
 930:../SPL/src/stm32f10x_flash.c **** {
 973              		.loc 1 930 0
 974              		.cfi_startproc
 975              		@ args = 0, pretend = 0, frame = 16
 976              		@ frame_needed = 1, uses_anonymous_args = 0
 977 04d4 80B5     		push	{r7, lr}
 978              	.LCFI35:
 979              		.cfi_def_cfa_offset 8
 980              		.cfi_offset 7, -8
 981              		.cfi_offset 14, -4
 982 04d6 84B0     		sub	sp, sp, #16
 983              	.LCFI36:
 984              		.cfi_def_cfa_offset 24
 985 04d8 00AF     		add	r7, sp, #0
 986              	.LCFI37:
 987              		.cfi_def_cfa_register 7
 988 04da 7860     		str	r0, [r7, #4]
 989 04dc 0B46     		mov	r3, r1
 990 04de FB70     		strb	r3, [r7, #3]
 931:../SPL/src/stm32f10x_flash.c ****   FLASH_Status status = FLASH_COMPLETE;
 991              		.loc 1 931 0
 992 04e0 4FF00403 		mov	r3, #4
 993 04e4 FB73     		strb	r3, [r7, #15]
 932:../SPL/src/stm32f10x_flash.c ****   /* Check the parameters */
 933:../SPL/src/stm32f10x_flash.c ****   assert_param(IS_OB_DATA_ADDRESS(Address));
 994              		.loc 1 933 0
 995 04e6 7A68     		ldr	r2, [r7, #4]
 996 04e8 1D4B     		ldr	r3, .L68
 997 04ea 9A42     		cmp	r2, r3
 998 04ec 08D0     		beq	.L65
 999              		.loc 1 933 0 is_stmt 0 discriminator 1
 1000 04ee 7A68     		ldr	r2, [r7, #4]
 1001 04f0 1C4B     		ldr	r3, .L68+4
 1002 04f2 9A42     		cmp	r2, r3
 1003 04f4 04D0     		beq	.L65
 1004              		.loc 1 933 0 discriminator 2
 1005 04f6 1C48     		ldr	r0, .L68+8
 1006 04f8 40F2A531 		movw	r1, #933
 1007 04fc FFF7FEFF 		bl	assert_failed
 1008              	.L65:
 934:../SPL/src/stm32f10x_flash.c ****   status = FLASH_WaitForLastOperation(ProgramTimeout);
 1009              		.loc 1 934 0 is_stmt 1
 1010 0500 4FF40050 		mov	r0, #8192
 1011 0504 FFF7FEFF 		bl	FLASH_WaitForLastOperation
 1012 0508 0346     		mov	r3, r0
 1013 050a FB73     		strb	r3, [r7, #15]
 935:../SPL/src/stm32f10x_flash.c **** 
 936:../SPL/src/stm32f10x_flash.c ****   if(status == FLASH_COMPLETE)
 1014              		.loc 1 936 0
 1015 050c FB7B     		ldrb	r3, [r7, #15]	@ zero_extendqisi2
 1016 050e 042B     		cmp	r3, #4
 1017 0510 1FD1     		bne	.L66
 937:../SPL/src/stm32f10x_flash.c ****   {
 938:../SPL/src/stm32f10x_flash.c ****     /* Authorize the small information block programming */
 939:../SPL/src/stm32f10x_flash.c ****     FLASH->OPTKEYR = FLASH_KEY1;
 1018              		.loc 1 939 0
 1019 0512 164B     		ldr	r3, .L68+12
 1020 0514 164A     		ldr	r2, .L68+16
 1021 0516 9A60     		str	r2, [r3, #8]
 940:../SPL/src/stm32f10x_flash.c ****     FLASH->OPTKEYR = FLASH_KEY2;
 1022              		.loc 1 940 0
 1023 0518 144B     		ldr	r3, .L68+12
 1024 051a 164A     		ldr	r2, .L68+20
 1025 051c 9A60     		str	r2, [r3, #8]
 941:../SPL/src/stm32f10x_flash.c ****     /* Enables the Option Bytes Programming operation */
 942:../SPL/src/stm32f10x_flash.c ****     FLASH->CR |= CR_OPTPG_Set; 
 1026              		.loc 1 942 0
 1027 051e 134B     		ldr	r3, .L68+12
 1028 0520 124A     		ldr	r2, .L68+12
 1029 0522 1269     		ldr	r2, [r2, #16]
 1030 0524 42F01002 		orr	r2, r2, #16
 1031 0528 1A61     		str	r2, [r3, #16]
 943:../SPL/src/stm32f10x_flash.c ****     *(__IO uint16_t*)Address = Data;
 1032              		.loc 1 943 0
 1033 052a 7B68     		ldr	r3, [r7, #4]
 1034 052c FA78     		ldrb	r2, [r7, #3]	@ zero_extendqisi2
 1035 052e 92B2     		uxth	r2, r2
 1036 0530 1A80     		strh	r2, [r3, #0]	@ movhi
 944:../SPL/src/stm32f10x_flash.c ****     
 945:../SPL/src/stm32f10x_flash.c ****     /* Wait for last operation to be completed */
 946:../SPL/src/stm32f10x_flash.c ****     status = FLASH_WaitForLastOperation(ProgramTimeout);
 1037              		.loc 1 946 0
 1038 0532 4FF40050 		mov	r0, #8192
 1039 0536 FFF7FEFF 		bl	FLASH_WaitForLastOperation
 1040 053a 0346     		mov	r3, r0
 1041 053c FB73     		strb	r3, [r7, #15]
 947:../SPL/src/stm32f10x_flash.c ****     if(status != FLASH_TIMEOUT)
 1042              		.loc 1 947 0
 1043 053e FB7B     		ldrb	r3, [r7, #15]	@ zero_extendqisi2
 1044 0540 052B     		cmp	r3, #5
 1045 0542 06D0     		beq	.L66
 948:../SPL/src/stm32f10x_flash.c ****     {
 949:../SPL/src/stm32f10x_flash.c ****       /* if the program operation is completed, disable the OPTPG Bit */
 950:../SPL/src/stm32f10x_flash.c ****       FLASH->CR &= CR_OPTPG_Reset;
 1046              		.loc 1 950 0
 1047 0544 094A     		ldr	r2, .L68+12
 1048 0546 094B     		ldr	r3, .L68+12
 1049 0548 1969     		ldr	r1, [r3, #16]
 1050 054a 41F6EF73 		movw	r3, #8175
 1051 054e 0B40     		ands	r3, r3, r1
 1052 0550 1361     		str	r3, [r2, #16]
 1053              	.L66:
 951:../SPL/src/stm32f10x_flash.c ****     }
 952:../SPL/src/stm32f10x_flash.c ****   }
 953:../SPL/src/stm32f10x_flash.c ****   /* Return the Option Byte Data Program Status */
 954:../SPL/src/stm32f10x_flash.c ****   return status;
 1054              		.loc 1 954 0
 1055 0552 FB7B     		ldrb	r3, [r7, #15]	@ zero_extendqisi2
 955:../SPL/src/stm32f10x_flash.c **** }
 1056              		.loc 1 955 0
 1057 0554 1846     		mov	r0, r3
 1058 0556 07F11007 		add	r7, r7, #16
 1059 055a BD46     		mov	sp, r7
 1060 055c 80BD     		pop	{r7, pc}
 1061              	.L69:
 1062 055e 00BF     		.align	2
 1063              	.L68:
 1064 0560 04F8FF1F 		.word	536868868
 1065 0564 06F8FF1F 		.word	536868870
 1066 0568 00000000 		.word	.LC0
 1067 056c 00200240 		.word	1073881088
 1068 0570 23016745 		.word	1164378403
 1069 0574 AB89EFCD 		.word	-839939669
 1070              		.cfi_endproc
 1071              	.LFE42:
 1073              		.align	2
 1074              		.global	FLASH_EnableWriteProtection
 1075              		.thumb
 1076              		.thumb_func
 1078              	FLASH_EnableWriteProtection:
 1079              	.LFB43:
 956:../SPL/src/stm32f10x_flash.c **** 
 957:../SPL/src/stm32f10x_flash.c **** /**
 958:../SPL/src/stm32f10x_flash.c ****   * @brief  Write protects the desired pages
 959:../SPL/src/stm32f10x_flash.c ****   * @note   This function can be used for all STM32F10x devices.
 960:../SPL/src/stm32f10x_flash.c ****   * @param  FLASH_Pages: specifies the address of the pages to be write protected.
 961:../SPL/src/stm32f10x_flash.c ****   *   This parameter can be:
 962:../SPL/src/stm32f10x_flash.c ****   *     @arg For @b STM32_Low-density_devices: value between FLASH_WRProt_Pages0to3 and FLASH_WRPro
 963:../SPL/src/stm32f10x_flash.c ****   *     @arg For @b STM32_Medium-density_devices: value between FLASH_WRProt_Pages0to3
 964:../SPL/src/stm32f10x_flash.c ****   *       and FLASH_WRProt_Pages124to127
 965:../SPL/src/stm32f10x_flash.c ****   *     @arg For @b STM32_High-density_devices: value between FLASH_WRProt_Pages0to1 and
 966:../SPL/src/stm32f10x_flash.c ****   *       FLASH_WRProt_Pages60to61 or FLASH_WRProt_Pages62to255
 967:../SPL/src/stm32f10x_flash.c ****   *     @arg For @b STM32_Connectivity_line_devices: value between FLASH_WRProt_Pages0to1 and
 968:../SPL/src/stm32f10x_flash.c ****   *       FLASH_WRProt_Pages60to61 or FLASH_WRProt_Pages62to127    
 969:../SPL/src/stm32f10x_flash.c ****   *     @arg For @b STM32_XL-density_devices: value between FLASH_WRProt_Pages0to1 and
 970:../SPL/src/stm32f10x_flash.c ****   *       FLASH_WRProt_Pages60to61 or FLASH_WRProt_Pages62to511
 971:../SPL/src/stm32f10x_flash.c ****   *     @arg FLASH_WRProt_AllPages
 972:../SPL/src/stm32f10x_flash.c ****   * @retval FLASH Status: The returned value can be: FLASH_ERROR_PG,
 973:../SPL/src/stm32f10x_flash.c ****   *         FLASH_ERROR_WRP, FLASH_COMPLETE or FLASH_TIMEOUT.
 974:../SPL/src/stm32f10x_flash.c ****   */
 975:../SPL/src/stm32f10x_flash.c **** FLASH_Status FLASH_EnableWriteProtection(uint32_t FLASH_Pages)
 976:../SPL/src/stm32f10x_flash.c **** {
 1080              		.loc 1 976 0
 1081              		.cfi_startproc
 1082              		@ args = 0, pretend = 0, frame = 24
 1083              		@ frame_needed = 1, uses_anonymous_args = 0
 1084 0578 80B5     		push	{r7, lr}
 1085              	.LCFI38:
 1086              		.cfi_def_cfa_offset 8
 1087              		.cfi_offset 7, -8
 1088              		.cfi_offset 14, -4
 1089 057a 86B0     		sub	sp, sp, #24
 1090              	.LCFI39:
 1091              		.cfi_def_cfa_offset 32
 1092 057c 00AF     		add	r7, sp, #0
 1093              	.LCFI40:
 1094              		.cfi_def_cfa_register 7
 1095 057e 7860     		str	r0, [r7, #4]
 977:../SPL/src/stm32f10x_flash.c ****   uint16_t WRP0_Data = 0xFFFF, WRP1_Data = 0xFFFF, WRP2_Data = 0xFFFF, WRP3_Data = 0xFFFF;
 1096              		.loc 1 977 0
 1097 0580 4FF6FF73 		movw	r3, #65535
 1098 0584 BB82     		strh	r3, [r7, #20]	@ movhi
 1099 0586 4FF6FF73 		movw	r3, #65535
 1100 058a 7B82     		strh	r3, [r7, #18]	@ movhi
 1101 058c 4FF6FF73 		movw	r3, #65535
 1102 0590 3B82     		strh	r3, [r7, #16]	@ movhi
 1103 0592 4FF6FF73 		movw	r3, #65535
 1104 0596 FB81     		strh	r3, [r7, #14]	@ movhi
 978:../SPL/src/stm32f10x_flash.c ****   
 979:../SPL/src/stm32f10x_flash.c ****   FLASH_Status status = FLASH_COMPLETE;
 1105              		.loc 1 979 0
 1106 0598 4FF00403 		mov	r3, #4
 1107 059c FB75     		strb	r3, [r7, #23]
 980:../SPL/src/stm32f10x_flash.c ****   
 981:../SPL/src/stm32f10x_flash.c ****   /* Check the parameters */
 982:../SPL/src/stm32f10x_flash.c ****   assert_param(IS_FLASH_WRPROT_PAGE(FLASH_Pages));
 1108              		.loc 1 982 0
 1109 059e 7B68     		ldr	r3, [r7, #4]
 1110 05a0 002B     		cmp	r3, #0
 1111 05a2 04D1     		bne	.L71
 1112              		.loc 1 982 0 is_stmt 0 discriminator 1
 1113 05a4 3D48     		ldr	r0, .L78
 1114 05a6 40F2D631 		movw	r1, #982
 1115 05aa FFF7FEFF 		bl	assert_failed
 1116              	.L71:
 983:../SPL/src/stm32f10x_flash.c ****   
 984:../SPL/src/stm32f10x_flash.c ****   FLASH_Pages = (uint32_t)(~FLASH_Pages);
 1117              		.loc 1 984 0 is_stmt 1
 1118 05ae 7B68     		ldr	r3, [r7, #4]
 1119 05b0 6FEA0303 		mvn	r3, r3
 1120 05b4 7B60     		str	r3, [r7, #4]
 985:../SPL/src/stm32f10x_flash.c ****   WRP0_Data = (uint16_t)(FLASH_Pages & WRP0_Mask);
 1121              		.loc 1 985 0
 1122 05b6 7B68     		ldr	r3, [r7, #4]
 1123 05b8 9BB2     		uxth	r3, r3
 1124 05ba DBB2     		uxtb	r3, r3
 1125 05bc BB82     		strh	r3, [r7, #20]	@ movhi
 986:../SPL/src/stm32f10x_flash.c ****   WRP1_Data = (uint16_t)((FLASH_Pages & WRP1_Mask) >> 8);
 1126              		.loc 1 986 0
 1127 05be 7B68     		ldr	r3, [r7, #4]
 1128 05c0 03F47F43 		and	r3, r3, #65280
 1129 05c4 4FEA1323 		lsr	r3, r3, #8
 1130 05c8 7B82     		strh	r3, [r7, #18]	@ movhi
 987:../SPL/src/stm32f10x_flash.c ****   WRP2_Data = (uint16_t)((FLASH_Pages & WRP2_Mask) >> 16);
 1131              		.loc 1 987 0
 1132 05ca 7B68     		ldr	r3, [r7, #4]
 1133 05cc 03F47F03 		and	r3, r3, #16711680
 1134 05d0 4FEA1343 		lsr	r3, r3, #16
 1135 05d4 3B82     		strh	r3, [r7, #16]	@ movhi
 988:../SPL/src/stm32f10x_flash.c ****   WRP3_Data = (uint16_t)((FLASH_Pages & WRP3_Mask) >> 24);
 1136              		.loc 1 988 0
 1137 05d6 7B68     		ldr	r3, [r7, #4]
 1138 05d8 4FEA1363 		lsr	r3, r3, #24
 1139 05dc FB81     		strh	r3, [r7, #14]	@ movhi
 989:../SPL/src/stm32f10x_flash.c ****   
 990:../SPL/src/stm32f10x_flash.c ****   /* Wait for last operation to be completed */
 991:../SPL/src/stm32f10x_flash.c ****   status = FLASH_WaitForLastOperation(ProgramTimeout);
 1140              		.loc 1 991 0
 1141 05de 4FF40050 		mov	r0, #8192
 1142 05e2 FFF7FEFF 		bl	FLASH_WaitForLastOperation
 1143 05e6 0346     		mov	r3, r0
 1144 05e8 FB75     		strb	r3, [r7, #23]
 992:../SPL/src/stm32f10x_flash.c ****   
 993:../SPL/src/stm32f10x_flash.c ****   if(status == FLASH_COMPLETE)
 1145              		.loc 1 993 0
 1146 05ea FB7D     		ldrb	r3, [r7, #23]	@ zero_extendqisi2
 1147 05ec 042B     		cmp	r3, #4
 1148 05ee 4ED1     		bne	.L72
 994:../SPL/src/stm32f10x_flash.c ****   {
 995:../SPL/src/stm32f10x_flash.c ****     /* Authorizes the small information block programming */
 996:../SPL/src/stm32f10x_flash.c ****     FLASH->OPTKEYR = FLASH_KEY1;
 1149              		.loc 1 996 0
 1150 05f0 2B4B     		ldr	r3, .L78+4
 1151 05f2 2C4A     		ldr	r2, .L78+8
 1152 05f4 9A60     		str	r2, [r3, #8]
 997:../SPL/src/stm32f10x_flash.c ****     FLASH->OPTKEYR = FLASH_KEY2;
 1153              		.loc 1 997 0
 1154 05f6 2A4B     		ldr	r3, .L78+4
 1155 05f8 2B4A     		ldr	r2, .L78+12
 1156 05fa 9A60     		str	r2, [r3, #8]
 998:../SPL/src/stm32f10x_flash.c ****     FLASH->CR |= CR_OPTPG_Set;
 1157              		.loc 1 998 0
 1158 05fc 284B     		ldr	r3, .L78+4
 1159 05fe 284A     		ldr	r2, .L78+4
 1160 0600 1269     		ldr	r2, [r2, #16]
 1161 0602 42F01002 		orr	r2, r2, #16
 1162 0606 1A61     		str	r2, [r3, #16]
 999:../SPL/src/stm32f10x_flash.c ****     if(WRP0_Data != 0xFF)
 1163              		.loc 1 999 0
 1164 0608 BB8A     		ldrh	r3, [r7, #20]
 1165 060a FF2B     		cmp	r3, #255
 1166 060c 08D0     		beq	.L73
1000:../SPL/src/stm32f10x_flash.c ****     {
1001:../SPL/src/stm32f10x_flash.c ****       OB->WRP0 = WRP0_Data;
 1167              		.loc 1 1001 0
 1168 060e 274B     		ldr	r3, .L78+16
 1169 0610 BA8A     		ldrh	r2, [r7, #20]	@ movhi
 1170 0612 1A81     		strh	r2, [r3, #8]	@ movhi
1002:../SPL/src/stm32f10x_flash.c ****       
1003:../SPL/src/stm32f10x_flash.c ****       /* Wait for last operation to be completed */
1004:../SPL/src/stm32f10x_flash.c ****       status = FLASH_WaitForLastOperation(ProgramTimeout);
 1171              		.loc 1 1004 0
 1172 0614 4FF40050 		mov	r0, #8192
 1173 0618 FFF7FEFF 		bl	FLASH_WaitForLastOperation
 1174 061c 0346     		mov	r3, r0
 1175 061e FB75     		strb	r3, [r7, #23]
 1176              	.L73:
1005:../SPL/src/stm32f10x_flash.c ****     }
1006:../SPL/src/stm32f10x_flash.c ****     if((status == FLASH_COMPLETE) && (WRP1_Data != 0xFF))
 1177              		.loc 1 1006 0
 1178 0620 FB7D     		ldrb	r3, [r7, #23]	@ zero_extendqisi2
 1179 0622 042B     		cmp	r3, #4
 1180 0624 0BD1     		bne	.L74
 1181              		.loc 1 1006 0 is_stmt 0 discriminator 1
 1182 0626 7B8A     		ldrh	r3, [r7, #18]
 1183 0628 FF2B     		cmp	r3, #255
 1184 062a 08D0     		beq	.L74
1007:../SPL/src/stm32f10x_flash.c ****     {
1008:../SPL/src/stm32f10x_flash.c ****       OB->WRP1 = WRP1_Data;
 1185              		.loc 1 1008 0 is_stmt 1
 1186 062c 1F4B     		ldr	r3, .L78+16
 1187 062e 7A8A     		ldrh	r2, [r7, #18]	@ movhi
 1188 0630 5A81     		strh	r2, [r3, #10]	@ movhi
1009:../SPL/src/stm32f10x_flash.c ****       
1010:../SPL/src/stm32f10x_flash.c ****       /* Wait for last operation to be completed */
1011:../SPL/src/stm32f10x_flash.c ****       status = FLASH_WaitForLastOperation(ProgramTimeout);
 1189              		.loc 1 1011 0
 1190 0632 4FF40050 		mov	r0, #8192
 1191 0636 FFF7FEFF 		bl	FLASH_WaitForLastOperation
 1192 063a 0346     		mov	r3, r0
 1193 063c FB75     		strb	r3, [r7, #23]
 1194              	.L74:
1012:../SPL/src/stm32f10x_flash.c ****     }
1013:../SPL/src/stm32f10x_flash.c ****     if((status == FLASH_COMPLETE) && (WRP2_Data != 0xFF))
 1195              		.loc 1 1013 0
 1196 063e FB7D     		ldrb	r3, [r7, #23]	@ zero_extendqisi2
 1197 0640 042B     		cmp	r3, #4
 1198 0642 0BD1     		bne	.L75
 1199              		.loc 1 1013 0 is_stmt 0 discriminator 1
 1200 0644 3B8A     		ldrh	r3, [r7, #16]
 1201 0646 FF2B     		cmp	r3, #255
 1202 0648 08D0     		beq	.L75
1014:../SPL/src/stm32f10x_flash.c ****     {
1015:../SPL/src/stm32f10x_flash.c ****       OB->WRP2 = WRP2_Data;
 1203              		.loc 1 1015 0 is_stmt 1
 1204 064a 184B     		ldr	r3, .L78+16
 1205 064c 3A8A     		ldrh	r2, [r7, #16]	@ movhi
 1206 064e 9A81     		strh	r2, [r3, #12]	@ movhi
1016:../SPL/src/stm32f10x_flash.c ****       
1017:../SPL/src/stm32f10x_flash.c ****       /* Wait for last operation to be completed */
1018:../SPL/src/stm32f10x_flash.c ****       status = FLASH_WaitForLastOperation(ProgramTimeout);
 1207              		.loc 1 1018 0
 1208 0650 4FF40050 		mov	r0, #8192
 1209 0654 FFF7FEFF 		bl	FLASH_WaitForLastOperation
 1210 0658 0346     		mov	r3, r0
 1211 065a FB75     		strb	r3, [r7, #23]
 1212              	.L75:
1019:../SPL/src/stm32f10x_flash.c ****     }
1020:../SPL/src/stm32f10x_flash.c ****     
1021:../SPL/src/stm32f10x_flash.c ****     if((status == FLASH_COMPLETE)&& (WRP3_Data != 0xFF))
 1213              		.loc 1 1021 0
 1214 065c FB7D     		ldrb	r3, [r7, #23]	@ zero_extendqisi2
 1215 065e 042B     		cmp	r3, #4
 1216 0660 0BD1     		bne	.L76
 1217              		.loc 1 1021 0 is_stmt 0 discriminator 1
 1218 0662 FB89     		ldrh	r3, [r7, #14]
 1219 0664 FF2B     		cmp	r3, #255
 1220 0666 08D0     		beq	.L76
1022:../SPL/src/stm32f10x_flash.c ****     {
1023:../SPL/src/stm32f10x_flash.c ****       OB->WRP3 = WRP3_Data;
 1221              		.loc 1 1023 0 is_stmt 1
 1222 0668 104B     		ldr	r3, .L78+16
 1223 066a FA89     		ldrh	r2, [r7, #14]	@ movhi
 1224 066c DA81     		strh	r2, [r3, #14]	@ movhi
1024:../SPL/src/stm32f10x_flash.c ****      
1025:../SPL/src/stm32f10x_flash.c ****       /* Wait for last operation to be completed */
1026:../SPL/src/stm32f10x_flash.c ****       status = FLASH_WaitForLastOperation(ProgramTimeout);
 1225              		.loc 1 1026 0
 1226 066e 4FF40050 		mov	r0, #8192
 1227 0672 FFF7FEFF 		bl	FLASH_WaitForLastOperation
 1228 0676 0346     		mov	r3, r0
 1229 0678 FB75     		strb	r3, [r7, #23]
 1230              	.L76:
1027:../SPL/src/stm32f10x_flash.c ****     }
1028:../SPL/src/stm32f10x_flash.c ****           
1029:../SPL/src/stm32f10x_flash.c ****     if(status != FLASH_TIMEOUT)
 1231              		.loc 1 1029 0
 1232 067a FB7D     		ldrb	r3, [r7, #23]	@ zero_extendqisi2
 1233 067c 052B     		cmp	r3, #5
 1234 067e 06D0     		beq	.L72
1030:../SPL/src/stm32f10x_flash.c ****     {
1031:../SPL/src/stm32f10x_flash.c ****       /* if the program operation is completed, disable the OPTPG Bit */
1032:../SPL/src/stm32f10x_flash.c ****       FLASH->CR &= CR_OPTPG_Reset;
 1235              		.loc 1 1032 0
 1236 0680 074A     		ldr	r2, .L78+4
 1237 0682 074B     		ldr	r3, .L78+4
 1238 0684 1969     		ldr	r1, [r3, #16]
 1239 0686 41F6EF73 		movw	r3, #8175
 1240 068a 0B40     		ands	r3, r3, r1
 1241 068c 1361     		str	r3, [r2, #16]
 1242              	.L72:
1033:../SPL/src/stm32f10x_flash.c ****     }
1034:../SPL/src/stm32f10x_flash.c ****   } 
1035:../SPL/src/stm32f10x_flash.c ****   /* Return the write protection operation Status */
1036:../SPL/src/stm32f10x_flash.c ****   return status;       
 1243              		.loc 1 1036 0
 1244 068e FB7D     		ldrb	r3, [r7, #23]	@ zero_extendqisi2
1037:../SPL/src/stm32f10x_flash.c **** }
 1245              		.loc 1 1037 0
 1246 0690 1846     		mov	r0, r3
 1247 0692 07F11807 		add	r7, r7, #24
 1248 0696 BD46     		mov	sp, r7
 1249 0698 80BD     		pop	{r7, pc}
 1250              	.L79:
 1251 069a 00BF     		.align	2
 1252              	.L78:
 1253 069c 00000000 		.word	.LC0
 1254 06a0 00200240 		.word	1073881088
 1255 06a4 23016745 		.word	1164378403
 1256 06a8 AB89EFCD 		.word	-839939669
 1257 06ac 00F8FF1F 		.word	536868864
 1258              		.cfi_endproc
 1259              	.LFE43:
 1261              		.align	2
 1262              		.global	FLASH_ReadOutProtection
 1263              		.thumb
 1264              		.thumb_func
 1266              	FLASH_ReadOutProtection:
 1267              	.LFB44:
1038:../SPL/src/stm32f10x_flash.c **** 
1039:../SPL/src/stm32f10x_flash.c **** /**
1040:../SPL/src/stm32f10x_flash.c ****   * @brief  Enables or disables the read out protection.
1041:../SPL/src/stm32f10x_flash.c ****   * @note   If the user has already programmed the other option bytes before calling 
1042:../SPL/src/stm32f10x_flash.c ****   *   this function, he must re-program them since this function erases all option bytes.
1043:../SPL/src/stm32f10x_flash.c ****   * @note   This function can be used for all STM32F10x devices.
1044:../SPL/src/stm32f10x_flash.c ****   * @param  Newstate: new state of the ReadOut Protection.
1045:../SPL/src/stm32f10x_flash.c ****   *   This parameter can be: ENABLE or DISABLE.
1046:../SPL/src/stm32f10x_flash.c ****   * @retval FLASH Status: The returned value can be: FLASH_ERROR_PG,
1047:../SPL/src/stm32f10x_flash.c ****   *         FLASH_ERROR_WRP, FLASH_COMPLETE or FLASH_TIMEOUT.
1048:../SPL/src/stm32f10x_flash.c ****   */
1049:../SPL/src/stm32f10x_flash.c **** FLASH_Status FLASH_ReadOutProtection(FunctionalState NewState)
1050:../SPL/src/stm32f10x_flash.c **** {
 1268              		.loc 1 1050 0
 1269              		.cfi_startproc
 1270              		@ args = 0, pretend = 0, frame = 16
 1271              		@ frame_needed = 1, uses_anonymous_args = 0
 1272 06b0 80B5     		push	{r7, lr}
 1273              	.LCFI41:
 1274              		.cfi_def_cfa_offset 8
 1275              		.cfi_offset 7, -8
 1276              		.cfi_offset 14, -4
 1277 06b2 84B0     		sub	sp, sp, #16
 1278              	.LCFI42:
 1279              		.cfi_def_cfa_offset 24
 1280 06b4 00AF     		add	r7, sp, #0
 1281              	.LCFI43:
 1282              		.cfi_def_cfa_register 7
 1283 06b6 0346     		mov	r3, r0
 1284 06b8 FB71     		strb	r3, [r7, #7]
1051:../SPL/src/stm32f10x_flash.c ****   FLASH_Status status = FLASH_COMPLETE;
 1285              		.loc 1 1051 0
 1286 06ba 4FF00403 		mov	r3, #4
 1287 06be FB73     		strb	r3, [r7, #15]
1052:../SPL/src/stm32f10x_flash.c ****   /* Check the parameters */
1053:../SPL/src/stm32f10x_flash.c ****   assert_param(IS_FUNCTIONAL_STATE(NewState));
 1288              		.loc 1 1053 0
 1289 06c0 FB79     		ldrb	r3, [r7, #7]	@ zero_extendqisi2
 1290 06c2 002B     		cmp	r3, #0
 1291 06c4 07D0     		beq	.L81
 1292              		.loc 1 1053 0 is_stmt 0 discriminator 1
 1293 06c6 FB79     		ldrb	r3, [r7, #7]	@ zero_extendqisi2
 1294 06c8 012B     		cmp	r3, #1
 1295 06ca 04D0     		beq	.L81
 1296              		.loc 1 1053 0 discriminator 2
 1297 06cc 3148     		ldr	r0, .L87
 1298 06ce 40F21D41 		movw	r1, #1053
 1299 06d2 FFF7FEFF 		bl	assert_failed
 1300              	.L81:
1054:../SPL/src/stm32f10x_flash.c ****   status = FLASH_WaitForLastOperation(EraseTimeout);
 1301              		.loc 1 1054 0 is_stmt 1
 1302 06d6 4FF43020 		mov	r0, #720896
 1303 06da FFF7FEFF 		bl	FLASH_WaitForLastOperation
 1304 06de 0346     		mov	r3, r0
 1305 06e0 FB73     		strb	r3, [r7, #15]
1055:../SPL/src/stm32f10x_flash.c ****   if(status == FLASH_COMPLETE)
 1306              		.loc 1 1055 0
 1307 06e2 FB7B     		ldrb	r3, [r7, #15]	@ zero_extendqisi2
 1308 06e4 042B     		cmp	r3, #4
 1309 06e6 4ED1     		bne	.L82
1056:../SPL/src/stm32f10x_flash.c ****   {
1057:../SPL/src/stm32f10x_flash.c ****     /* Authorizes the small information block programming */
1058:../SPL/src/stm32f10x_flash.c ****     FLASH->OPTKEYR = FLASH_KEY1;
 1310              		.loc 1 1058 0
 1311 06e8 2B4B     		ldr	r3, .L87+4
 1312 06ea 2C4A     		ldr	r2, .L87+8
 1313 06ec 9A60     		str	r2, [r3, #8]
1059:../SPL/src/stm32f10x_flash.c ****     FLASH->OPTKEYR = FLASH_KEY2;
 1314              		.loc 1 1059 0
 1315 06ee 2A4B     		ldr	r3, .L87+4
 1316 06f0 2B4A     		ldr	r2, .L87+12
 1317 06f2 9A60     		str	r2, [r3, #8]
1060:../SPL/src/stm32f10x_flash.c ****     FLASH->CR |= CR_OPTER_Set;
 1318              		.loc 1 1060 0
 1319 06f4 284B     		ldr	r3, .L87+4
 1320 06f6 284A     		ldr	r2, .L87+4
 1321 06f8 1269     		ldr	r2, [r2, #16]
 1322 06fa 42F02002 		orr	r2, r2, #32
 1323 06fe 1A61     		str	r2, [r3, #16]
1061:../SPL/src/stm32f10x_flash.c ****     FLASH->CR |= CR_STRT_Set;
 1324              		.loc 1 1061 0
 1325 0700 254B     		ldr	r3, .L87+4
 1326 0702 254A     		ldr	r2, .L87+4
 1327 0704 1269     		ldr	r2, [r2, #16]
 1328 0706 42F04002 		orr	r2, r2, #64
 1329 070a 1A61     		str	r2, [r3, #16]
1062:../SPL/src/stm32f10x_flash.c ****     /* Wait for last operation to be completed */
1063:../SPL/src/stm32f10x_flash.c ****     status = FLASH_WaitForLastOperation(EraseTimeout);
 1330              		.loc 1 1063 0
 1331 070c 4FF43020 		mov	r0, #720896
 1332 0710 FFF7FEFF 		bl	FLASH_WaitForLastOperation
 1333 0714 0346     		mov	r3, r0
 1334 0716 FB73     		strb	r3, [r7, #15]
1064:../SPL/src/stm32f10x_flash.c ****     if(status == FLASH_COMPLETE)
 1335              		.loc 1 1064 0
 1336 0718 FB7B     		ldrb	r3, [r7, #15]	@ zero_extendqisi2
 1337 071a 042B     		cmp	r3, #4
 1338 071c 29D1     		bne	.L83
1065:../SPL/src/stm32f10x_flash.c ****     {
1066:../SPL/src/stm32f10x_flash.c ****       /* if the erase operation is completed, disable the OPTER Bit */
1067:../SPL/src/stm32f10x_flash.c ****       FLASH->CR &= CR_OPTER_Reset;
 1339              		.loc 1 1067 0
 1340 071e 1E4A     		ldr	r2, .L87+4
 1341 0720 1D4B     		ldr	r3, .L87+4
 1342 0722 1969     		ldr	r1, [r3, #16]
 1343 0724 41F6DF73 		movw	r3, #8159
 1344 0728 0B40     		ands	r3, r3, r1
 1345 072a 1361     		str	r3, [r2, #16]
1068:../SPL/src/stm32f10x_flash.c ****       /* Enable the Option Bytes Programming operation */
1069:../SPL/src/stm32f10x_flash.c ****       FLASH->CR |= CR_OPTPG_Set; 
 1346              		.loc 1 1069 0
 1347 072c 1A4B     		ldr	r3, .L87+4
 1348 072e 1A4A     		ldr	r2, .L87+4
 1349 0730 1269     		ldr	r2, [r2, #16]
 1350 0732 42F01002 		orr	r2, r2, #16
 1351 0736 1A61     		str	r2, [r3, #16]
1070:../SPL/src/stm32f10x_flash.c ****       if(NewState != DISABLE)
 1352              		.loc 1 1070 0
 1353 0738 FB79     		ldrb	r3, [r7, #7]	@ zero_extendqisi2
 1354 073a 002B     		cmp	r3, #0
 1355 073c 04D0     		beq	.L84
1071:../SPL/src/stm32f10x_flash.c ****       {
1072:../SPL/src/stm32f10x_flash.c ****         OB->RDP = 0x00;
 1356              		.loc 1 1072 0
 1357 073e 194B     		ldr	r3, .L87+16
 1358 0740 4FF00002 		mov	r2, #0
 1359 0744 1A80     		strh	r2, [r3, #0]	@ movhi
 1360 0746 03E0     		b	.L85
 1361              	.L84:
1073:../SPL/src/stm32f10x_flash.c ****       }
1074:../SPL/src/stm32f10x_flash.c ****       else
1075:../SPL/src/stm32f10x_flash.c ****       {
1076:../SPL/src/stm32f10x_flash.c ****         OB->RDP = RDP_Key;  
 1362              		.loc 1 1076 0
 1363 0748 164B     		ldr	r3, .L87+16
 1364 074a 4FF0A502 		mov	r2, #165
 1365 074e 1A80     		strh	r2, [r3, #0]	@ movhi
 1366              	.L85:
1077:../SPL/src/stm32f10x_flash.c ****       }
1078:../SPL/src/stm32f10x_flash.c ****       /* Wait for last operation to be completed */
1079:../SPL/src/stm32f10x_flash.c ****       status = FLASH_WaitForLastOperation(EraseTimeout); 
 1367              		.loc 1 1079 0
 1368 0750 4FF43020 		mov	r0, #720896
 1369 0754 FFF7FEFF 		bl	FLASH_WaitForLastOperation
 1370 0758 0346     		mov	r3, r0
 1371 075a FB73     		strb	r3, [r7, #15]
1080:../SPL/src/stm32f10x_flash.c ****     
1081:../SPL/src/stm32f10x_flash.c ****       if(status != FLASH_TIMEOUT)
 1372              		.loc 1 1081 0
 1373 075c FB7B     		ldrb	r3, [r7, #15]	@ zero_extendqisi2
 1374 075e 052B     		cmp	r3, #5
 1375 0760 11D0     		beq	.L82
1082:../SPL/src/stm32f10x_flash.c ****       {
1083:../SPL/src/stm32f10x_flash.c ****         /* if the program operation is completed, disable the OPTPG Bit */
1084:../SPL/src/stm32f10x_flash.c ****         FLASH->CR &= CR_OPTPG_Reset;
 1376              		.loc 1 1084 0
 1377 0762 0D4A     		ldr	r2, .L87+4
 1378 0764 0C4B     		ldr	r3, .L87+4
 1379 0766 1969     		ldr	r1, [r3, #16]
 1380 0768 41F6EF73 		movw	r3, #8175
 1381 076c 0B40     		ands	r3, r3, r1
 1382 076e 1361     		str	r3, [r2, #16]
 1383 0770 09E0     		b	.L82
 1384              	.L83:
1085:../SPL/src/stm32f10x_flash.c ****       }
1086:../SPL/src/stm32f10x_flash.c ****     }
1087:../SPL/src/stm32f10x_flash.c ****     else 
1088:../SPL/src/stm32f10x_flash.c ****     {
1089:../SPL/src/stm32f10x_flash.c ****       if(status != FLASH_TIMEOUT)
 1385              		.loc 1 1089 0
 1386 0772 FB7B     		ldrb	r3, [r7, #15]	@ zero_extendqisi2
 1387 0774 052B     		cmp	r3, #5
 1388 0776 06D0     		beq	.L82
1090:../SPL/src/stm32f10x_flash.c ****       {
1091:../SPL/src/stm32f10x_flash.c ****         /* Disable the OPTER Bit */
1092:../SPL/src/stm32f10x_flash.c ****         FLASH->CR &= CR_OPTER_Reset;
 1389              		.loc 1 1092 0
 1390 0778 074A     		ldr	r2, .L87+4
 1391 077a 074B     		ldr	r3, .L87+4
 1392 077c 1969     		ldr	r1, [r3, #16]
 1393 077e 41F6DF73 		movw	r3, #8159
 1394 0782 0B40     		ands	r3, r3, r1
 1395 0784 1361     		str	r3, [r2, #16]
 1396              	.L82:
1093:../SPL/src/stm32f10x_flash.c ****       }
1094:../SPL/src/stm32f10x_flash.c ****     }
1095:../SPL/src/stm32f10x_flash.c ****   }
1096:../SPL/src/stm32f10x_flash.c ****   /* Return the protection operation Status */
1097:../SPL/src/stm32f10x_flash.c ****   return status;       
 1397              		.loc 1 1097 0
 1398 0786 FB7B     		ldrb	r3, [r7, #15]	@ zero_extendqisi2
1098:../SPL/src/stm32f10x_flash.c **** }
 1399              		.loc 1 1098 0
 1400 0788 1846     		mov	r0, r3
 1401 078a 07F11007 		add	r7, r7, #16
 1402 078e BD46     		mov	sp, r7
 1403 0790 80BD     		pop	{r7, pc}
 1404              	.L88:
 1405 0792 00BF     		.align	2
 1406              	.L87:
 1407 0794 00000000 		.word	.LC0
 1408 0798 00200240 		.word	1073881088
 1409 079c 23016745 		.word	1164378403
 1410 07a0 AB89EFCD 		.word	-839939669
 1411 07a4 00F8FF1F 		.word	536868864
 1412              		.cfi_endproc
 1413              	.LFE44:
 1415              		.align	2
 1416              		.global	FLASH_UserOptionByteConfig
 1417              		.thumb
 1418              		.thumb_func
 1420              	FLASH_UserOptionByteConfig:
 1421              	.LFB45:
1099:../SPL/src/stm32f10x_flash.c **** 
1100:../SPL/src/stm32f10x_flash.c **** /**
1101:../SPL/src/stm32f10x_flash.c ****   * @brief  Programs the FLASH User Option Byte: IWDG_SW / RST_STOP / RST_STDBY.
1102:../SPL/src/stm32f10x_flash.c ****   * @note   This function can be used for all STM32F10x devices.
1103:../SPL/src/stm32f10x_flash.c ****   * @param  OB_IWDG: Selects the IWDG mode
1104:../SPL/src/stm32f10x_flash.c ****   *   This parameter can be one of the following values:
1105:../SPL/src/stm32f10x_flash.c ****   *     @arg OB_IWDG_SW: Software IWDG selected
1106:../SPL/src/stm32f10x_flash.c ****   *     @arg OB_IWDG_HW: Hardware IWDG selected
1107:../SPL/src/stm32f10x_flash.c ****   * @param  OB_STOP: Reset event when entering STOP mode.
1108:../SPL/src/stm32f10x_flash.c ****   *   This parameter can be one of the following values:
1109:../SPL/src/stm32f10x_flash.c ****   *     @arg OB_STOP_NoRST: No reset generated when entering in STOP
1110:../SPL/src/stm32f10x_flash.c ****   *     @arg OB_STOP_RST: Reset generated when entering in STOP
1111:../SPL/src/stm32f10x_flash.c ****   * @param  OB_STDBY: Reset event when entering Standby mode.
1112:../SPL/src/stm32f10x_flash.c ****   *   This parameter can be one of the following values:
1113:../SPL/src/stm32f10x_flash.c ****   *     @arg OB_STDBY_NoRST: No reset generated when entering in STANDBY
1114:../SPL/src/stm32f10x_flash.c ****   *     @arg OB_STDBY_RST: Reset generated when entering in STANDBY
1115:../SPL/src/stm32f10x_flash.c ****   * @retval FLASH Status: The returned value can be: FLASH_ERROR_PG, 
1116:../SPL/src/stm32f10x_flash.c ****   *         FLASH_ERROR_WRP, FLASH_COMPLETE or FLASH_TIMEOUT.
1117:../SPL/src/stm32f10x_flash.c ****   */
1118:../SPL/src/stm32f10x_flash.c **** FLASH_Status FLASH_UserOptionByteConfig(uint16_t OB_IWDG, uint16_t OB_STOP, uint16_t OB_STDBY)
1119:../SPL/src/stm32f10x_flash.c **** {
 1422              		.loc 1 1119 0
 1423              		.cfi_startproc
 1424              		@ args = 0, pretend = 0, frame = 16
 1425              		@ frame_needed = 1, uses_anonymous_args = 0
 1426 07a8 80B5     		push	{r7, lr}
 1427              	.LCFI44:
 1428              		.cfi_def_cfa_offset 8
 1429              		.cfi_offset 7, -8
 1430              		.cfi_offset 14, -4
 1431 07aa 84B0     		sub	sp, sp, #16
 1432              	.LCFI45:
 1433              		.cfi_def_cfa_offset 24
 1434 07ac 00AF     		add	r7, sp, #0
 1435              	.LCFI46:
 1436              		.cfi_def_cfa_register 7
 1437 07ae 1346     		mov	r3, r2
 1438 07b0 0246     		mov	r2, r0	@ movhi
 1439 07b2 FA80     		strh	r2, [r7, #6]	@ movhi
 1440 07b4 0A46     		mov	r2, r1	@ movhi
 1441 07b6 BA80     		strh	r2, [r7, #4]	@ movhi
 1442 07b8 7B80     		strh	r3, [r7, #2]	@ movhi
1120:../SPL/src/stm32f10x_flash.c ****   FLASH_Status status = FLASH_COMPLETE; 
 1443              		.loc 1 1120 0
 1444 07ba 4FF00403 		mov	r3, #4
 1445 07be FB73     		strb	r3, [r7, #15]
1121:../SPL/src/stm32f10x_flash.c **** 
1122:../SPL/src/stm32f10x_flash.c ****   /* Check the parameters */
1123:../SPL/src/stm32f10x_flash.c ****   assert_param(IS_OB_IWDG_SOURCE(OB_IWDG));
 1446              		.loc 1 1123 0
 1447 07c0 FB88     		ldrh	r3, [r7, #6]
 1448 07c2 012B     		cmp	r3, #1
 1449 07c4 07D0     		beq	.L90
 1450              		.loc 1 1123 0 is_stmt 0 discriminator 1
 1451 07c6 FB88     		ldrh	r3, [r7, #6]
 1452 07c8 002B     		cmp	r3, #0
 1453 07ca 04D0     		beq	.L90
 1454              		.loc 1 1123 0 discriminator 2
 1455 07cc 2848     		ldr	r0, .L95
 1456 07ce 40F26341 		movw	r1, #1123
 1457 07d2 FFF7FEFF 		bl	assert_failed
 1458              	.L90:
1124:../SPL/src/stm32f10x_flash.c ****   assert_param(IS_OB_STOP_SOURCE(OB_STOP));
 1459              		.loc 1 1124 0 is_stmt 1
 1460 07d6 BB88     		ldrh	r3, [r7, #4]
 1461 07d8 022B     		cmp	r3, #2
 1462 07da 07D0     		beq	.L91
 1463              		.loc 1 1124 0 is_stmt 0 discriminator 1
 1464 07dc BB88     		ldrh	r3, [r7, #4]
 1465 07de 002B     		cmp	r3, #0
 1466 07e0 04D0     		beq	.L91
 1467              		.loc 1 1124 0 discriminator 2
 1468 07e2 2348     		ldr	r0, .L95
 1469 07e4 40F26441 		movw	r1, #1124
 1470 07e8 FFF7FEFF 		bl	assert_failed
 1471              	.L91:
1125:../SPL/src/stm32f10x_flash.c ****   assert_param(IS_OB_STDBY_SOURCE(OB_STDBY));
 1472              		.loc 1 1125 0 is_stmt 1
 1473 07ec 7B88     		ldrh	r3, [r7, #2]
 1474 07ee 042B     		cmp	r3, #4
 1475 07f0 07D0     		beq	.L92
 1476              		.loc 1 1125 0 is_stmt 0 discriminator 1
 1477 07f2 7B88     		ldrh	r3, [r7, #2]
 1478 07f4 002B     		cmp	r3, #0
 1479 07f6 04D0     		beq	.L92
 1480              		.loc 1 1125 0 discriminator 2
 1481 07f8 1D48     		ldr	r0, .L95
 1482 07fa 40F26541 		movw	r1, #1125
 1483 07fe FFF7FEFF 		bl	assert_failed
 1484              	.L92:
1126:../SPL/src/stm32f10x_flash.c **** 
1127:../SPL/src/stm32f10x_flash.c ****   /* Authorize the small information block programming */
1128:../SPL/src/stm32f10x_flash.c ****   FLASH->OPTKEYR = FLASH_KEY1;
 1485              		.loc 1 1128 0 is_stmt 1
 1486 0802 1C4B     		ldr	r3, .L95+4
 1487 0804 1C4A     		ldr	r2, .L95+8
 1488 0806 9A60     		str	r2, [r3, #8]
1129:../SPL/src/stm32f10x_flash.c ****   FLASH->OPTKEYR = FLASH_KEY2;
 1489              		.loc 1 1129 0
 1490 0808 1A4B     		ldr	r3, .L95+4
 1491 080a 1C4A     		ldr	r2, .L95+12
 1492 080c 9A60     		str	r2, [r3, #8]
1130:../SPL/src/stm32f10x_flash.c ****   
1131:../SPL/src/stm32f10x_flash.c ****   /* Wait for last operation to be completed */
1132:../SPL/src/stm32f10x_flash.c ****   status = FLASH_WaitForLastOperation(ProgramTimeout);
 1493              		.loc 1 1132 0
 1494 080e 4FF40050 		mov	r0, #8192
 1495 0812 FFF7FEFF 		bl	FLASH_WaitForLastOperation
 1496 0816 0346     		mov	r3, r0
 1497 0818 FB73     		strb	r3, [r7, #15]
1133:../SPL/src/stm32f10x_flash.c ****   
1134:../SPL/src/stm32f10x_flash.c ****   if(status == FLASH_COMPLETE)
 1498              		.loc 1 1134 0
 1499 081a FB7B     		ldrb	r3, [r7, #15]	@ zero_extendqisi2
 1500 081c 042B     		cmp	r3, #4
 1501 081e 21D1     		bne	.L93
1135:../SPL/src/stm32f10x_flash.c ****   {  
1136:../SPL/src/stm32f10x_flash.c ****     /* Enable the Option Bytes Programming operation */
1137:../SPL/src/stm32f10x_flash.c ****     FLASH->CR |= CR_OPTPG_Set; 
 1502              		.loc 1 1137 0
 1503 0820 144B     		ldr	r3, .L95+4
 1504 0822 144A     		ldr	r2, .L95+4
 1505 0824 1269     		ldr	r2, [r2, #16]
 1506 0826 42F01002 		orr	r2, r2, #16
 1507 082a 1A61     		str	r2, [r3, #16]
1138:../SPL/src/stm32f10x_flash.c ****            
1139:../SPL/src/stm32f10x_flash.c ****     OB->USER = OB_IWDG | (uint16_t)(OB_STOP | (uint16_t)(OB_STDBY | ((uint16_t)0xF8))); 
 1508              		.loc 1 1139 0
 1509 082c 144B     		ldr	r3, .L95+16
 1510 082e 7988     		ldrh	r1, [r7, #2]	@ movhi
 1511 0830 BA88     		ldrh	r2, [r7, #4]	@ movhi
 1512 0832 0A43     		orrs	r2, r2, r1
 1513 0834 91B2     		uxth	r1, r2
 1514 0836 FA88     		ldrh	r2, [r7, #6]	@ movhi
 1515 0838 0A43     		orrs	r2, r2, r1
 1516 083a 92B2     		uxth	r2, r2
 1517 083c 42F0F802 		orr	r2, r2, #248
 1518 0840 92B2     		uxth	r2, r2
 1519 0842 5A80     		strh	r2, [r3, #2]	@ movhi
1140:../SPL/src/stm32f10x_flash.c ****   
1141:../SPL/src/stm32f10x_flash.c ****     /* Wait for last operation to be completed */
1142:../SPL/src/stm32f10x_flash.c ****     status = FLASH_WaitForLastOperation(ProgramTimeout);
 1520              		.loc 1 1142 0
 1521 0844 4FF40050 		mov	r0, #8192
 1522 0848 FFF7FEFF 		bl	FLASH_WaitForLastOperation
 1523 084c 0346     		mov	r3, r0
 1524 084e FB73     		strb	r3, [r7, #15]
1143:../SPL/src/stm32f10x_flash.c ****     if(status != FLASH_TIMEOUT)
 1525              		.loc 1 1143 0
 1526 0850 FB7B     		ldrb	r3, [r7, #15]	@ zero_extendqisi2
 1527 0852 052B     		cmp	r3, #5
 1528 0854 06D0     		beq	.L93
1144:../SPL/src/stm32f10x_flash.c ****     {
1145:../SPL/src/stm32f10x_flash.c ****       /* if the program operation is completed, disable the OPTPG Bit */
1146:../SPL/src/stm32f10x_flash.c ****       FLASH->CR &= CR_OPTPG_Reset;
 1529              		.loc 1 1146 0
 1530 0856 074A     		ldr	r2, .L95+4
 1531 0858 064B     		ldr	r3, .L95+4
 1532 085a 1969     		ldr	r1, [r3, #16]
 1533 085c 41F6EF73 		movw	r3, #8175
 1534 0860 0B40     		ands	r3, r3, r1
 1535 0862 1361     		str	r3, [r2, #16]
 1536              	.L93:
1147:../SPL/src/stm32f10x_flash.c ****     }
1148:../SPL/src/stm32f10x_flash.c ****   }    
1149:../SPL/src/stm32f10x_flash.c ****   /* Return the Option Byte program Status */
1150:../SPL/src/stm32f10x_flash.c ****   return status;
 1537              		.loc 1 1150 0
 1538 0864 FB7B     		ldrb	r3, [r7, #15]	@ zero_extendqisi2
1151:../SPL/src/stm32f10x_flash.c **** }
 1539              		.loc 1 1151 0
 1540 0866 1846     		mov	r0, r3
 1541 0868 07F11007 		add	r7, r7, #16
 1542 086c BD46     		mov	sp, r7
 1543 086e 80BD     		pop	{r7, pc}
 1544              	.L96:
 1545              		.align	2
 1546              	.L95:
 1547 0870 00000000 		.word	.LC0
 1548 0874 00200240 		.word	1073881088
 1549 0878 23016745 		.word	1164378403
 1550 087c AB89EFCD 		.word	-839939669
 1551 0880 00F8FF1F 		.word	536868864
 1552              		.cfi_endproc
 1553              	.LFE45:
 1555              		.align	2
 1556              		.global	FLASH_GetUserOptionByte
 1557              		.thumb
 1558              		.thumb_func
 1560              	FLASH_GetUserOptionByte:
 1561              	.LFB46:
1152:../SPL/src/stm32f10x_flash.c **** 
1153:../SPL/src/stm32f10x_flash.c **** #ifdef STM32F10X_XL
1154:../SPL/src/stm32f10x_flash.c **** /**
1155:../SPL/src/stm32f10x_flash.c ****   * @brief  Configures to boot from Bank1 or Bank2.  
1156:../SPL/src/stm32f10x_flash.c ****   * @note   This function can be used only for STM32F10x_XL density devices.
1157:../SPL/src/stm32f10x_flash.c ****   * @param  FLASH_BOOT: select the FLASH Bank to boot from.
1158:../SPL/src/stm32f10x_flash.c ****   *   This parameter can be one of the following values:
1159:../SPL/src/stm32f10x_flash.c ****   *     @arg FLASH_BOOT_Bank1: At startup, if boot pins are set in boot from user Flash
1160:../SPL/src/stm32f10x_flash.c ****   *        position and this parameter is selected the device will boot from Bank1(Default).
1161:../SPL/src/stm32f10x_flash.c ****   *     @arg FLASH_BOOT_Bank2: At startup, if boot pins are set in boot from user Flash
1162:../SPL/src/stm32f10x_flash.c ****   *        position and this parameter is selected the device will boot from Bank2 or Bank1,
1163:../SPL/src/stm32f10x_flash.c ****   *        depending on the activation of the bank. The active banks are checked in
1164:../SPL/src/stm32f10x_flash.c ****   *        the following order: Bank2, followed by Bank1.
1165:../SPL/src/stm32f10x_flash.c ****   *        The active bank is recognized by the value programmed at the base address
1166:../SPL/src/stm32f10x_flash.c ****   *        of the respective bank (corresponding to the initial stack pointer value
1167:../SPL/src/stm32f10x_flash.c ****   *        in the interrupt vector table).
1168:../SPL/src/stm32f10x_flash.c ****   *        For more information, please refer to AN2606 from www.st.com.    
1169:../SPL/src/stm32f10x_flash.c ****   * @retval FLASH Status: The returned value can be: FLASH_ERROR_PG, 
1170:../SPL/src/stm32f10x_flash.c ****   *         FLASH_ERROR_WRP, FLASH_COMPLETE or FLASH_TIMEOUT.
1171:../SPL/src/stm32f10x_flash.c ****   */
1172:../SPL/src/stm32f10x_flash.c **** FLASH_Status FLASH_BootConfig(uint16_t FLASH_BOOT)
1173:../SPL/src/stm32f10x_flash.c **** { 
1174:../SPL/src/stm32f10x_flash.c ****   FLASH_Status status = FLASH_COMPLETE; 
1175:../SPL/src/stm32f10x_flash.c ****   assert_param(IS_FLASH_BOOT(FLASH_BOOT));
1176:../SPL/src/stm32f10x_flash.c ****   /* Authorize the small information block programming */
1177:../SPL/src/stm32f10x_flash.c ****   FLASH->OPTKEYR = FLASH_KEY1;
1178:../SPL/src/stm32f10x_flash.c ****   FLASH->OPTKEYR = FLASH_KEY2;
1179:../SPL/src/stm32f10x_flash.c ****   
1180:../SPL/src/stm32f10x_flash.c ****   /* Wait for last operation to be completed */
1181:../SPL/src/stm32f10x_flash.c ****   status = FLASH_WaitForLastOperation(ProgramTimeout);
1182:../SPL/src/stm32f10x_flash.c ****   
1183:../SPL/src/stm32f10x_flash.c ****   if(status == FLASH_COMPLETE)
1184:../SPL/src/stm32f10x_flash.c ****   {  
1185:../SPL/src/stm32f10x_flash.c ****     /* Enable the Option Bytes Programming operation */
1186:../SPL/src/stm32f10x_flash.c ****     FLASH->CR |= CR_OPTPG_Set; 
1187:../SPL/src/stm32f10x_flash.c **** 
1188:../SPL/src/stm32f10x_flash.c ****     if(FLASH_BOOT == FLASH_BOOT_Bank1)
1189:../SPL/src/stm32f10x_flash.c ****     {
1190:../SPL/src/stm32f10x_flash.c ****       OB->USER |= OB_USER_BFB2;
1191:../SPL/src/stm32f10x_flash.c ****     }
1192:../SPL/src/stm32f10x_flash.c ****     else
1193:../SPL/src/stm32f10x_flash.c ****     {
1194:../SPL/src/stm32f10x_flash.c ****       OB->USER &= (uint16_t)(~(uint16_t)(OB_USER_BFB2));
1195:../SPL/src/stm32f10x_flash.c ****     }
1196:../SPL/src/stm32f10x_flash.c ****     /* Wait for last operation to be completed */
1197:../SPL/src/stm32f10x_flash.c ****     status = FLASH_WaitForLastOperation(ProgramTimeout);
1198:../SPL/src/stm32f10x_flash.c ****     if(status != FLASH_TIMEOUT)
1199:../SPL/src/stm32f10x_flash.c ****     {
1200:../SPL/src/stm32f10x_flash.c ****       /* if the program operation is completed, disable the OPTPG Bit */
1201:../SPL/src/stm32f10x_flash.c ****       FLASH->CR &= CR_OPTPG_Reset;
1202:../SPL/src/stm32f10x_flash.c ****     }
1203:../SPL/src/stm32f10x_flash.c ****   }    
1204:../SPL/src/stm32f10x_flash.c ****   /* Return the Option Byte program Status */
1205:../SPL/src/stm32f10x_flash.c ****   return status;
1206:../SPL/src/stm32f10x_flash.c **** }
1207:../SPL/src/stm32f10x_flash.c **** #endif /* STM32F10X_XL */
1208:../SPL/src/stm32f10x_flash.c **** 
1209:../SPL/src/stm32f10x_flash.c **** /**
1210:../SPL/src/stm32f10x_flash.c ****   * @brief  Returns the FLASH User Option Bytes values.
1211:../SPL/src/stm32f10x_flash.c ****   * @note   This function can be used for all STM32F10x devices.
1212:../SPL/src/stm32f10x_flash.c ****   * @param  None
1213:../SPL/src/stm32f10x_flash.c ****   * @retval The FLASH User Option Bytes values:IWDG_SW(Bit0), RST_STOP(Bit1)
1214:../SPL/src/stm32f10x_flash.c ****   *         and RST_STDBY(Bit2).
1215:../SPL/src/stm32f10x_flash.c ****   */
1216:../SPL/src/stm32f10x_flash.c **** uint32_t FLASH_GetUserOptionByte(void)
1217:../SPL/src/stm32f10x_flash.c **** {
 1562              		.loc 1 1217 0
 1563              		.cfi_startproc
 1564              		@ args = 0, pretend = 0, frame = 0
 1565              		@ frame_needed = 1, uses_anonymous_args = 0
 1566              		@ link register save eliminated.
 1567 0884 80B4     		push	{r7}
 1568              	.LCFI47:
 1569              		.cfi_def_cfa_offset 4
 1570              		.cfi_offset 7, -4
 1571 0886 00AF     		add	r7, sp, #0
 1572              	.LCFI48:
 1573              		.cfi_def_cfa_register 7
1218:../SPL/src/stm32f10x_flash.c ****   /* Return the User Option Byte */
1219:../SPL/src/stm32f10x_flash.c ****   return (uint32_t)(FLASH->OBR >> 2);
 1574              		.loc 1 1219 0
 1575 0888 034B     		ldr	r3, .L99
 1576 088a DB69     		ldr	r3, [r3, #28]
 1577 088c 4FEA9303 		lsr	r3, r3, #2
1220:../SPL/src/stm32f10x_flash.c **** }
 1578              		.loc 1 1220 0
 1579 0890 1846     		mov	r0, r3
 1580 0892 BD46     		mov	sp, r7
 1581 0894 80BC     		pop	{r7}
 1582 0896 7047     		bx	lr
 1583              	.L100:
 1584              		.align	2
 1585              	.L99:
 1586 0898 00200240 		.word	1073881088
 1587              		.cfi_endproc
 1588              	.LFE46:
 1590              		.align	2
 1591              		.global	FLASH_GetWriteProtectionOptionByte
 1592              		.thumb
 1593              		.thumb_func
 1595              	FLASH_GetWriteProtectionOptionByte:
 1596              	.LFB47:
1221:../SPL/src/stm32f10x_flash.c **** 
1222:../SPL/src/stm32f10x_flash.c **** /**
1223:../SPL/src/stm32f10x_flash.c ****   * @brief  Returns the FLASH Write Protection Option Bytes Register value.
1224:../SPL/src/stm32f10x_flash.c ****   * @note   This function can be used for all STM32F10x devices.
1225:../SPL/src/stm32f10x_flash.c ****   * @param  None
1226:../SPL/src/stm32f10x_flash.c ****   * @retval The FLASH Write Protection  Option Bytes Register value
1227:../SPL/src/stm32f10x_flash.c ****   */
1228:../SPL/src/stm32f10x_flash.c **** uint32_t FLASH_GetWriteProtectionOptionByte(void)
1229:../SPL/src/stm32f10x_flash.c **** {
 1597              		.loc 1 1229 0
 1598              		.cfi_startproc
 1599              		@ args = 0, pretend = 0, frame = 0
 1600              		@ frame_needed = 1, uses_anonymous_args = 0
 1601              		@ link register save eliminated.
 1602 089c 80B4     		push	{r7}
 1603              	.LCFI49:
 1604              		.cfi_def_cfa_offset 4
 1605              		.cfi_offset 7, -4
 1606 089e 00AF     		add	r7, sp, #0
 1607              	.LCFI50:
 1608              		.cfi_def_cfa_register 7
1230:../SPL/src/stm32f10x_flash.c ****   /* Return the Flash write protection Register value */
1231:../SPL/src/stm32f10x_flash.c ****   return (uint32_t)(FLASH->WRPR);
 1609              		.loc 1 1231 0
 1610 08a0 024B     		ldr	r3, .L103
 1611 08a2 1B6A     		ldr	r3, [r3, #32]
1232:../SPL/src/stm32f10x_flash.c **** }
 1612              		.loc 1 1232 0
 1613 08a4 1846     		mov	r0, r3
 1614 08a6 BD46     		mov	sp, r7
 1615 08a8 80BC     		pop	{r7}
 1616 08aa 7047     		bx	lr
 1617              	.L104:
 1618              		.align	2
 1619              	.L103:
 1620 08ac 00200240 		.word	1073881088
 1621              		.cfi_endproc
 1622              	.LFE47:
 1624              		.align	2
 1625              		.global	FLASH_GetReadOutProtectionStatus
 1626              		.thumb
 1627              		.thumb_func
 1629              	FLASH_GetReadOutProtectionStatus:
 1630              	.LFB48:
1233:../SPL/src/stm32f10x_flash.c **** 
1234:../SPL/src/stm32f10x_flash.c **** /**
1235:../SPL/src/stm32f10x_flash.c ****   * @brief  Checks whether the FLASH Read Out Protection Status is set or not.
1236:../SPL/src/stm32f10x_flash.c ****   * @note   This function can be used for all STM32F10x devices.
1237:../SPL/src/stm32f10x_flash.c ****   * @param  None
1238:../SPL/src/stm32f10x_flash.c ****   * @retval FLASH ReadOut Protection Status(SET or RESET)
1239:../SPL/src/stm32f10x_flash.c ****   */
1240:../SPL/src/stm32f10x_flash.c **** FlagStatus FLASH_GetReadOutProtectionStatus(void)
1241:../SPL/src/stm32f10x_flash.c **** {
 1631              		.loc 1 1241 0
 1632              		.cfi_startproc
 1633              		@ args = 0, pretend = 0, frame = 8
 1634              		@ frame_needed = 1, uses_anonymous_args = 0
 1635              		@ link register save eliminated.
 1636 08b0 80B4     		push	{r7}
 1637              	.LCFI51:
 1638              		.cfi_def_cfa_offset 4
 1639              		.cfi_offset 7, -4
 1640 08b2 83B0     		sub	sp, sp, #12
 1641              	.LCFI52:
 1642              		.cfi_def_cfa_offset 16
 1643 08b4 00AF     		add	r7, sp, #0
 1644              	.LCFI53:
 1645              		.cfi_def_cfa_register 7
1242:../SPL/src/stm32f10x_flash.c ****   FlagStatus readoutstatus = RESET;
 1646              		.loc 1 1242 0
 1647 08b6 4FF00003 		mov	r3, #0
 1648 08ba FB71     		strb	r3, [r7, #7]
1243:../SPL/src/stm32f10x_flash.c ****   if ((FLASH->OBR & RDPRT_Mask) != (uint32_t)RESET)
 1649              		.loc 1 1243 0
 1650 08bc 094B     		ldr	r3, .L109
 1651 08be DB69     		ldr	r3, [r3, #28]
 1652 08c0 03F00203 		and	r3, r3, #2
 1653 08c4 002B     		cmp	r3, #0
 1654 08c6 03D0     		beq	.L106
1244:../SPL/src/stm32f10x_flash.c ****   {
1245:../SPL/src/stm32f10x_flash.c ****     readoutstatus = SET;
 1655              		.loc 1 1245 0
 1656 08c8 4FF00103 		mov	r3, #1
 1657 08cc FB71     		strb	r3, [r7, #7]
 1658 08ce 02E0     		b	.L107
 1659              	.L106:
1246:../SPL/src/stm32f10x_flash.c ****   }
1247:../SPL/src/stm32f10x_flash.c ****   else
1248:../SPL/src/stm32f10x_flash.c ****   {
1249:../SPL/src/stm32f10x_flash.c ****     readoutstatus = RESET;
 1660              		.loc 1 1249 0
 1661 08d0 4FF00003 		mov	r3, #0
 1662 08d4 FB71     		strb	r3, [r7, #7]
 1663              	.L107:
1250:../SPL/src/stm32f10x_flash.c ****   }
1251:../SPL/src/stm32f10x_flash.c ****   return readoutstatus;
 1664              		.loc 1 1251 0
 1665 08d6 FB79     		ldrb	r3, [r7, #7]	@ zero_extendqisi2
1252:../SPL/src/stm32f10x_flash.c **** }
 1666              		.loc 1 1252 0
 1667 08d8 1846     		mov	r0, r3
 1668 08da 07F10C07 		add	r7, r7, #12
 1669 08de BD46     		mov	sp, r7
 1670 08e0 80BC     		pop	{r7}
 1671 08e2 7047     		bx	lr
 1672              	.L110:
 1673              		.align	2
 1674              	.L109:
 1675 08e4 00200240 		.word	1073881088
 1676              		.cfi_endproc
 1677              	.LFE48:
 1679              		.align	2
 1680              		.global	FLASH_GetPrefetchBufferStatus
 1681              		.thumb
 1682              		.thumb_func
 1684              	FLASH_GetPrefetchBufferStatus:
 1685              	.LFB49:
1253:../SPL/src/stm32f10x_flash.c **** 
1254:../SPL/src/stm32f10x_flash.c **** /**
1255:../SPL/src/stm32f10x_flash.c ****   * @brief  Checks whether the FLASH Prefetch Buffer status is set or not.
1256:../SPL/src/stm32f10x_flash.c ****   * @note   This function can be used for all STM32F10x devices.
1257:../SPL/src/stm32f10x_flash.c ****   * @param  None
1258:../SPL/src/stm32f10x_flash.c ****   * @retval FLASH Prefetch Buffer Status (SET or RESET).
1259:../SPL/src/stm32f10x_flash.c ****   */
1260:../SPL/src/stm32f10x_flash.c **** FlagStatus FLASH_GetPrefetchBufferStatus(void)
1261:../SPL/src/stm32f10x_flash.c **** {
 1686              		.loc 1 1261 0
 1687              		.cfi_startproc
 1688              		@ args = 0, pretend = 0, frame = 8
 1689              		@ frame_needed = 1, uses_anonymous_args = 0
 1690              		@ link register save eliminated.
 1691 08e8 80B4     		push	{r7}
 1692              	.LCFI54:
 1693              		.cfi_def_cfa_offset 4
 1694              		.cfi_offset 7, -4
 1695 08ea 83B0     		sub	sp, sp, #12
 1696              	.LCFI55:
 1697              		.cfi_def_cfa_offset 16
 1698 08ec 00AF     		add	r7, sp, #0
 1699              	.LCFI56:
 1700              		.cfi_def_cfa_register 7
1262:../SPL/src/stm32f10x_flash.c ****   FlagStatus bitstatus = RESET;
 1701              		.loc 1 1262 0
 1702 08ee 4FF00003 		mov	r3, #0
 1703 08f2 FB71     		strb	r3, [r7, #7]
1263:../SPL/src/stm32f10x_flash.c ****   
1264:../SPL/src/stm32f10x_flash.c ****   if ((FLASH->ACR & ACR_PRFTBS_Mask) != (uint32_t)RESET)
 1704              		.loc 1 1264 0
 1705 08f4 094B     		ldr	r3, .L115
 1706 08f6 1B68     		ldr	r3, [r3, #0]
 1707 08f8 03F02003 		and	r3, r3, #32
 1708 08fc 002B     		cmp	r3, #0
 1709 08fe 03D0     		beq	.L112
1265:../SPL/src/stm32f10x_flash.c ****   {
1266:../SPL/src/stm32f10x_flash.c ****     bitstatus = SET;
 1710              		.loc 1 1266 0
 1711 0900 4FF00103 		mov	r3, #1
 1712 0904 FB71     		strb	r3, [r7, #7]
 1713 0906 02E0     		b	.L113
 1714              	.L112:
1267:../SPL/src/stm32f10x_flash.c ****   }
1268:../SPL/src/stm32f10x_flash.c ****   else
1269:../SPL/src/stm32f10x_flash.c ****   {
1270:../SPL/src/stm32f10x_flash.c ****     bitstatus = RESET;
 1715              		.loc 1 1270 0
 1716 0908 4FF00003 		mov	r3, #0
 1717 090c FB71     		strb	r3, [r7, #7]
 1718              	.L113:
1271:../SPL/src/stm32f10x_flash.c ****   }
1272:../SPL/src/stm32f10x_flash.c ****   /* Return the new state of FLASH Prefetch Buffer Status (SET or RESET) */
1273:../SPL/src/stm32f10x_flash.c ****   return bitstatus; 
 1719              		.loc 1 1273 0
 1720 090e FB79     		ldrb	r3, [r7, #7]	@ zero_extendqisi2
1274:../SPL/src/stm32f10x_flash.c **** }
 1721              		.loc 1 1274 0
 1722 0910 1846     		mov	r0, r3
 1723 0912 07F10C07 		add	r7, r7, #12
 1724 0916 BD46     		mov	sp, r7
 1725 0918 80BC     		pop	{r7}
 1726 091a 7047     		bx	lr
 1727              	.L116:
 1728              		.align	2
 1729              	.L115:
 1730 091c 00200240 		.word	1073881088
 1731              		.cfi_endproc
 1732              	.LFE49:
 1734              		.align	2
 1735              		.global	FLASH_ITConfig
 1736              		.thumb
 1737              		.thumb_func
 1739              	FLASH_ITConfig:
 1740              	.LFB50:
1275:../SPL/src/stm32f10x_flash.c **** 
1276:../SPL/src/stm32f10x_flash.c **** /**
1277:../SPL/src/stm32f10x_flash.c ****   * @brief  Enables or disables the specified FLASH interrupts.
1278:../SPL/src/stm32f10x_flash.c ****   * @note   This function can be used for all STM32F10x devices.
1279:../SPL/src/stm32f10x_flash.c ****   *         - For STM32F10X_XL devices, enables or disables the specified FLASH interrupts
1280:../SPL/src/stm32f10x_flash.c ****               for Bank1 and Bank2.
1281:../SPL/src/stm32f10x_flash.c ****   *         - For other devices it enables or disables the specified FLASH interrupts for Bank1.
1282:../SPL/src/stm32f10x_flash.c ****   * @param  FLASH_IT: specifies the FLASH interrupt sources to be enabled or disabled.
1283:../SPL/src/stm32f10x_flash.c ****   *   This parameter can be any combination of the following values:
1284:../SPL/src/stm32f10x_flash.c ****   *     @arg FLASH_IT_ERROR: FLASH Error Interrupt
1285:../SPL/src/stm32f10x_flash.c ****   *     @arg FLASH_IT_EOP: FLASH end of operation Interrupt
1286:../SPL/src/stm32f10x_flash.c ****   * @param  NewState: new state of the specified Flash interrupts.
1287:../SPL/src/stm32f10x_flash.c ****   *   This parameter can be: ENABLE or DISABLE.      
1288:../SPL/src/stm32f10x_flash.c ****   * @retval None 
1289:../SPL/src/stm32f10x_flash.c ****   */
1290:../SPL/src/stm32f10x_flash.c **** void FLASH_ITConfig(uint32_t FLASH_IT, FunctionalState NewState)
1291:../SPL/src/stm32f10x_flash.c **** {
 1741              		.loc 1 1291 0
 1742              		.cfi_startproc
 1743              		@ args = 0, pretend = 0, frame = 8
 1744              		@ frame_needed = 1, uses_anonymous_args = 0
 1745 0920 80B5     		push	{r7, lr}
 1746              	.LCFI57:
 1747              		.cfi_def_cfa_offset 8
 1748              		.cfi_offset 7, -8
 1749              		.cfi_offset 14, -4
 1750 0922 82B0     		sub	sp, sp, #8
 1751              	.LCFI58:
 1752              		.cfi_def_cfa_offset 16
 1753 0924 00AF     		add	r7, sp, #0
 1754              	.LCFI59:
 1755              		.cfi_def_cfa_register 7
 1756 0926 7860     		str	r0, [r7, #4]
 1757 0928 0B46     		mov	r3, r1
 1758 092a FB70     		strb	r3, [r7, #3]
1292:../SPL/src/stm32f10x_flash.c **** #ifdef STM32F10X_XL
1293:../SPL/src/stm32f10x_flash.c ****   /* Check the parameters */
1294:../SPL/src/stm32f10x_flash.c ****   assert_param(IS_FLASH_IT(FLASH_IT)); 
1295:../SPL/src/stm32f10x_flash.c ****   assert_param(IS_FUNCTIONAL_STATE(NewState));
1296:../SPL/src/stm32f10x_flash.c **** 
1297:../SPL/src/stm32f10x_flash.c ****   if((FLASH_IT & 0x80000000) != 0x0)
1298:../SPL/src/stm32f10x_flash.c ****   {
1299:../SPL/src/stm32f10x_flash.c ****     if(NewState != DISABLE)
1300:../SPL/src/stm32f10x_flash.c ****     {
1301:../SPL/src/stm32f10x_flash.c ****       /* Enable the interrupt sources */
1302:../SPL/src/stm32f10x_flash.c ****       FLASH->CR2 |= (FLASH_IT & 0x7FFFFFFF);
1303:../SPL/src/stm32f10x_flash.c ****     }
1304:../SPL/src/stm32f10x_flash.c ****     else
1305:../SPL/src/stm32f10x_flash.c ****     {
1306:../SPL/src/stm32f10x_flash.c ****       /* Disable the interrupt sources */
1307:../SPL/src/stm32f10x_flash.c ****       FLASH->CR2 &= ~(uint32_t)(FLASH_IT & 0x7FFFFFFF);
1308:../SPL/src/stm32f10x_flash.c ****     }
1309:../SPL/src/stm32f10x_flash.c ****   }
1310:../SPL/src/stm32f10x_flash.c ****   else
1311:../SPL/src/stm32f10x_flash.c ****   {
1312:../SPL/src/stm32f10x_flash.c ****     if(NewState != DISABLE)
1313:../SPL/src/stm32f10x_flash.c ****     {
1314:../SPL/src/stm32f10x_flash.c ****       /* Enable the interrupt sources */
1315:../SPL/src/stm32f10x_flash.c ****       FLASH->CR |= FLASH_IT;
1316:../SPL/src/stm32f10x_flash.c ****     }
1317:../SPL/src/stm32f10x_flash.c ****     else
1318:../SPL/src/stm32f10x_flash.c ****     {
1319:../SPL/src/stm32f10x_flash.c ****       /* Disable the interrupt sources */
1320:../SPL/src/stm32f10x_flash.c ****       FLASH->CR &= ~(uint32_t)FLASH_IT;
1321:../SPL/src/stm32f10x_flash.c ****     }
1322:../SPL/src/stm32f10x_flash.c ****   }
1323:../SPL/src/stm32f10x_flash.c **** #else
1324:../SPL/src/stm32f10x_flash.c ****   /* Check the parameters */
1325:../SPL/src/stm32f10x_flash.c ****   assert_param(IS_FLASH_IT(FLASH_IT)); 
 1759              		.loc 1 1325 0
 1760 092c 7B68     		ldr	r3, [r7, #4]
 1761 092e 23F4A053 		bic	r3, r3, #5120
 1762 0932 002B     		cmp	r3, #0
 1763 0934 02D1     		bne	.L118
 1764              		.loc 1 1325 0 is_stmt 0 discriminator 2
 1765 0936 7B68     		ldr	r3, [r7, #4]
 1766 0938 002B     		cmp	r3, #0
 1767 093a 04D1     		bne	.L119
 1768              	.L118:
 1769              		.loc 1 1325 0 discriminator 1
 1770 093c 1248     		ldr	r0, .L123
 1771 093e 40F22D51 		movw	r1, #1325
 1772 0942 FFF7FEFF 		bl	assert_failed
 1773              	.L119:
1326:../SPL/src/stm32f10x_flash.c ****   assert_param(IS_FUNCTIONAL_STATE(NewState));
 1774              		.loc 1 1326 0 is_stmt 1
 1775 0946 FB78     		ldrb	r3, [r7, #3]	@ zero_extendqisi2
 1776 0948 002B     		cmp	r3, #0
 1777 094a 07D0     		beq	.L120
 1778              		.loc 1 1326 0 is_stmt 0 discriminator 1
 1779 094c FB78     		ldrb	r3, [r7, #3]	@ zero_extendqisi2
 1780 094e 012B     		cmp	r3, #1
 1781 0950 04D0     		beq	.L120
 1782              		.loc 1 1326 0 discriminator 2
 1783 0952 0D48     		ldr	r0, .L123
 1784 0954 40F22E51 		movw	r1, #1326
 1785 0958 FFF7FEFF 		bl	assert_failed
 1786              	.L120:
1327:../SPL/src/stm32f10x_flash.c **** 
1328:../SPL/src/stm32f10x_flash.c ****   if(NewState != DISABLE)
 1787              		.loc 1 1328 0 is_stmt 1
 1788 095c FB78     		ldrb	r3, [r7, #3]	@ zero_extendqisi2
 1789 095e 002B     		cmp	r3, #0
 1790 0960 06D0     		beq	.L121
1329:../SPL/src/stm32f10x_flash.c ****   {
1330:../SPL/src/stm32f10x_flash.c ****     /* Enable the interrupt sources */
1331:../SPL/src/stm32f10x_flash.c ****     FLASH->CR |= FLASH_IT;
 1791              		.loc 1 1331 0
 1792 0962 0A4B     		ldr	r3, .L123+4
 1793 0964 094A     		ldr	r2, .L123+4
 1794 0966 1169     		ldr	r1, [r2, #16]
 1795 0968 7A68     		ldr	r2, [r7, #4]
 1796 096a 0A43     		orrs	r2, r2, r1
 1797 096c 1A61     		str	r2, [r3, #16]
 1798 096e 07E0     		b	.L117
 1799              	.L121:
1332:../SPL/src/stm32f10x_flash.c ****   }
1333:../SPL/src/stm32f10x_flash.c ****   else
1334:../SPL/src/stm32f10x_flash.c ****   {
1335:../SPL/src/stm32f10x_flash.c ****     /* Disable the interrupt sources */
1336:../SPL/src/stm32f10x_flash.c ****     FLASH->CR &= ~(uint32_t)FLASH_IT;
 1800              		.loc 1 1336 0
 1801 0970 064B     		ldr	r3, .L123+4
 1802 0972 064A     		ldr	r2, .L123+4
 1803 0974 1169     		ldr	r1, [r2, #16]
 1804 0976 7A68     		ldr	r2, [r7, #4]
 1805 0978 6FEA0202 		mvn	r2, r2
 1806 097c 0A40     		ands	r2, r2, r1
 1807 097e 1A61     		str	r2, [r3, #16]
 1808              	.L117:
1337:../SPL/src/stm32f10x_flash.c ****   }
1338:../SPL/src/stm32f10x_flash.c **** #endif /* STM32F10X_XL */
1339:../SPL/src/stm32f10x_flash.c **** }
 1809              		.loc 1 1339 0
 1810 0980 07F10807 		add	r7, r7, #8
 1811 0984 BD46     		mov	sp, r7
 1812 0986 80BD     		pop	{r7, pc}
 1813              	.L124:
 1814              		.align	2
 1815              	.L123:
 1816 0988 00000000 		.word	.LC0
 1817 098c 00200240 		.word	1073881088
 1818              		.cfi_endproc
 1819              	.LFE50:
 1821              		.align	2
 1822              		.global	FLASH_GetFlagStatus
 1823              		.thumb
 1824              		.thumb_func
 1826              	FLASH_GetFlagStatus:
 1827              	.LFB51:
1340:../SPL/src/stm32f10x_flash.c **** 
1341:../SPL/src/stm32f10x_flash.c **** /**
1342:../SPL/src/stm32f10x_flash.c ****   * @brief  Checks whether the specified FLASH flag is set or not.
1343:../SPL/src/stm32f10x_flash.c ****   * @note   This function can be used for all STM32F10x devices.
1344:../SPL/src/stm32f10x_flash.c ****   *         - For STM32F10X_XL devices, this function checks whether the specified 
1345:../SPL/src/stm32f10x_flash.c ****   *           Bank1 or Bank2 flag is set or not.
1346:../SPL/src/stm32f10x_flash.c ****   *         - For other devices, it checks whether the specified Bank1 flag is 
1347:../SPL/src/stm32f10x_flash.c ****   *           set or not.
1348:../SPL/src/stm32f10x_flash.c ****   * @param  FLASH_FLAG: specifies the FLASH flag to check.
1349:../SPL/src/stm32f10x_flash.c ****   *   This parameter can be one of the following values:
1350:../SPL/src/stm32f10x_flash.c ****   *     @arg FLASH_FLAG_BSY: FLASH Busy flag           
1351:../SPL/src/stm32f10x_flash.c ****   *     @arg FLASH_FLAG_PGERR: FLASH Program error flag       
1352:../SPL/src/stm32f10x_flash.c ****   *     @arg FLASH_FLAG_WRPRTERR: FLASH Write protected error flag      
1353:../SPL/src/stm32f10x_flash.c ****   *     @arg FLASH_FLAG_EOP: FLASH End of Operation flag           
1354:../SPL/src/stm32f10x_flash.c ****   *     @arg FLASH_FLAG_OPTERR:  FLASH Option Byte error flag     
1355:../SPL/src/stm32f10x_flash.c ****   * @retval The new state of FLASH_FLAG (SET or RESET).
1356:../SPL/src/stm32f10x_flash.c ****   */
1357:../SPL/src/stm32f10x_flash.c **** FlagStatus FLASH_GetFlagStatus(uint32_t FLASH_FLAG)
1358:../SPL/src/stm32f10x_flash.c **** {
 1828              		.loc 1 1358 0
 1829              		.cfi_startproc
 1830              		@ args = 0, pretend = 0, frame = 16
 1831              		@ frame_needed = 1, uses_anonymous_args = 0
 1832 0990 80B5     		push	{r7, lr}
 1833              	.LCFI60:
 1834              		.cfi_def_cfa_offset 8
 1835              		.cfi_offset 7, -8
 1836              		.cfi_offset 14, -4
 1837 0992 84B0     		sub	sp, sp, #16
 1838              	.LCFI61:
 1839              		.cfi_def_cfa_offset 24
 1840 0994 00AF     		add	r7, sp, #0
 1841              	.LCFI62:
 1842              		.cfi_def_cfa_register 7
 1843 0996 7860     		str	r0, [r7, #4]
1359:../SPL/src/stm32f10x_flash.c ****   FlagStatus bitstatus = RESET;
 1844              		.loc 1 1359 0
 1845 0998 4FF00003 		mov	r3, #0
 1846 099c FB73     		strb	r3, [r7, #15]
1360:../SPL/src/stm32f10x_flash.c **** 
1361:../SPL/src/stm32f10x_flash.c **** #ifdef STM32F10X_XL
1362:../SPL/src/stm32f10x_flash.c ****   /* Check the parameters */
1363:../SPL/src/stm32f10x_flash.c ****   assert_param(IS_FLASH_GET_FLAG(FLASH_FLAG)) ;
1364:../SPL/src/stm32f10x_flash.c ****   if(FLASH_FLAG == FLASH_FLAG_OPTERR) 
1365:../SPL/src/stm32f10x_flash.c ****   {
1366:../SPL/src/stm32f10x_flash.c ****     if((FLASH->OBR & FLASH_FLAG_OPTERR) != (uint32_t)RESET)
1367:../SPL/src/stm32f10x_flash.c ****     {
1368:../SPL/src/stm32f10x_flash.c ****       bitstatus = SET;
1369:../SPL/src/stm32f10x_flash.c ****     }
1370:../SPL/src/stm32f10x_flash.c ****     else
1371:../SPL/src/stm32f10x_flash.c ****     {
1372:../SPL/src/stm32f10x_flash.c ****       bitstatus = RESET;
1373:../SPL/src/stm32f10x_flash.c ****     }
1374:../SPL/src/stm32f10x_flash.c ****   }
1375:../SPL/src/stm32f10x_flash.c ****   else
1376:../SPL/src/stm32f10x_flash.c ****   {
1377:../SPL/src/stm32f10x_flash.c ****     if((FLASH_FLAG & 0x80000000) != 0x0)
1378:../SPL/src/stm32f10x_flash.c ****     {
1379:../SPL/src/stm32f10x_flash.c ****       if((FLASH->SR2 & FLASH_FLAG) != (uint32_t)RESET)
1380:../SPL/src/stm32f10x_flash.c ****       {
1381:../SPL/src/stm32f10x_flash.c ****         bitstatus = SET;
1382:../SPL/src/stm32f10x_flash.c ****       }
1383:../SPL/src/stm32f10x_flash.c ****       else
1384:../SPL/src/stm32f10x_flash.c ****       {
1385:../SPL/src/stm32f10x_flash.c ****         bitstatus = RESET;
1386:../SPL/src/stm32f10x_flash.c ****       }
1387:../SPL/src/stm32f10x_flash.c ****     }
1388:../SPL/src/stm32f10x_flash.c ****     else
1389:../SPL/src/stm32f10x_flash.c ****     {
1390:../SPL/src/stm32f10x_flash.c ****       if((FLASH->SR & FLASH_FLAG) != (uint32_t)RESET)
1391:../SPL/src/stm32f10x_flash.c ****       {
1392:../SPL/src/stm32f10x_flash.c ****         bitstatus = SET;
1393:../SPL/src/stm32f10x_flash.c ****       }
1394:../SPL/src/stm32f10x_flash.c ****       else
1395:../SPL/src/stm32f10x_flash.c ****       {
1396:../SPL/src/stm32f10x_flash.c ****         bitstatus = RESET;
1397:../SPL/src/stm32f10x_flash.c ****       }
1398:../SPL/src/stm32f10x_flash.c ****     }
1399:../SPL/src/stm32f10x_flash.c ****   }
1400:../SPL/src/stm32f10x_flash.c **** #else
1401:../SPL/src/stm32f10x_flash.c ****   /* Check the parameters */
1402:../SPL/src/stm32f10x_flash.c ****   assert_param(IS_FLASH_GET_FLAG(FLASH_FLAG)) ;
 1847              		.loc 1 1402 0
 1848 099e 7B68     		ldr	r3, [r7, #4]
 1849 09a0 012B     		cmp	r3, #1
 1850 09a2 1CD0     		beq	.L126
 1851              		.loc 1 1402 0 is_stmt 0 discriminator 1
 1852 09a4 7B68     		ldr	r3, [r7, #4]
 1853 09a6 202B     		cmp	r3, #32
 1854 09a8 19D0     		beq	.L126
 1855              		.loc 1 1402 0 discriminator 2
 1856 09aa 7B68     		ldr	r3, [r7, #4]
 1857 09ac 042B     		cmp	r3, #4
 1858 09ae 16D0     		beq	.L126
 1859              		.loc 1 1402 0 discriminator 3
 1860 09b0 7B68     		ldr	r3, [r7, #4]
 1861 09b2 102B     		cmp	r3, #16
 1862 09b4 13D0     		beq	.L126
 1863              		.loc 1 1402 0 discriminator 4
 1864 09b6 7B68     		ldr	r3, [r7, #4]
 1865 09b8 012B     		cmp	r3, #1
 1866 09ba 10D0     		beq	.L126
 1867              		.loc 1 1402 0 discriminator 5
 1868 09bc 7B68     		ldr	r3, [r7, #4]
 1869 09be 202B     		cmp	r3, #32
 1870 09c0 0DD0     		beq	.L126
 1871              		.loc 1 1402 0 discriminator 6
 1872 09c2 7B68     		ldr	r3, [r7, #4]
 1873 09c4 042B     		cmp	r3, #4
 1874 09c6 0AD0     		beq	.L126
 1875              		.loc 1 1402 0 discriminator 7
 1876 09c8 7B68     		ldr	r3, [r7, #4]
 1877 09ca 102B     		cmp	r3, #16
 1878 09cc 07D0     		beq	.L126
 1879              		.loc 1 1402 0 discriminator 8
 1880 09ce 7B68     		ldr	r3, [r7, #4]
 1881 09d0 012B     		cmp	r3, #1
 1882 09d2 04D0     		beq	.L126
 1883              		.loc 1 1402 0 discriminator 9
 1884 09d4 1448     		ldr	r0, .L132
 1885 09d6 40F27A51 		movw	r1, #1402
 1886 09da FFF7FEFF 		bl	assert_failed
 1887              	.L126:
1403:../SPL/src/stm32f10x_flash.c ****   if(FLASH_FLAG == FLASH_FLAG_OPTERR) 
 1888              		.loc 1 1403 0 is_stmt 1
 1889 09de 7B68     		ldr	r3, [r7, #4]
 1890 09e0 012B     		cmp	r3, #1
 1891 09e2 0DD1     		bne	.L127
1404:../SPL/src/stm32f10x_flash.c ****   {
1405:../SPL/src/stm32f10x_flash.c ****     if((FLASH->OBR & FLASH_FLAG_OPTERR) != (uint32_t)RESET)
 1892              		.loc 1 1405 0
 1893 09e4 114B     		ldr	r3, .L132+4
 1894 09e6 DB69     		ldr	r3, [r3, #28]
 1895 09e8 03F00103 		and	r3, r3, #1
 1896 09ec 002B     		cmp	r3, #0
 1897 09ee 03D0     		beq	.L128
1406:../SPL/src/stm32f10x_flash.c ****     {
1407:../SPL/src/stm32f10x_flash.c ****       bitstatus = SET;
 1898              		.loc 1 1407 0
 1899 09f0 4FF00103 		mov	r3, #1
 1900 09f4 FB73     		strb	r3, [r7, #15]
 1901 09f6 10E0     		b	.L129
 1902              	.L128:
1408:../SPL/src/stm32f10x_flash.c ****     }
1409:../SPL/src/stm32f10x_flash.c ****     else
1410:../SPL/src/stm32f10x_flash.c ****     {
1411:../SPL/src/stm32f10x_flash.c ****       bitstatus = RESET;
 1903              		.loc 1 1411 0
 1904 09f8 4FF00003 		mov	r3, #0
 1905 09fc FB73     		strb	r3, [r7, #15]
 1906 09fe 0CE0     		b	.L129
 1907              	.L127:
1412:../SPL/src/stm32f10x_flash.c ****     }
1413:../SPL/src/stm32f10x_flash.c ****   }
1414:../SPL/src/stm32f10x_flash.c ****   else
1415:../SPL/src/stm32f10x_flash.c ****   {
1416:../SPL/src/stm32f10x_flash.c ****    if((FLASH->SR & FLASH_FLAG) != (uint32_t)RESET)
 1908              		.loc 1 1416 0
 1909 0a00 0A4B     		ldr	r3, .L132+4
 1910 0a02 DA68     		ldr	r2, [r3, #12]
 1911 0a04 7B68     		ldr	r3, [r7, #4]
 1912 0a06 1340     		ands	r3, r3, r2
 1913 0a08 002B     		cmp	r3, #0
 1914 0a0a 03D0     		beq	.L130
1417:../SPL/src/stm32f10x_flash.c ****     {
1418:../SPL/src/stm32f10x_flash.c ****       bitstatus = SET;
 1915              		.loc 1 1418 0
 1916 0a0c 4FF00103 		mov	r3, #1
 1917 0a10 FB73     		strb	r3, [r7, #15]
 1918 0a12 02E0     		b	.L129
 1919              	.L130:
1419:../SPL/src/stm32f10x_flash.c ****     }
1420:../SPL/src/stm32f10x_flash.c ****     else
1421:../SPL/src/stm32f10x_flash.c ****     {
1422:../SPL/src/stm32f10x_flash.c ****       bitstatus = RESET;
 1920              		.loc 1 1422 0
 1921 0a14 4FF00003 		mov	r3, #0
 1922 0a18 FB73     		strb	r3, [r7, #15]
 1923              	.L129:
1423:../SPL/src/stm32f10x_flash.c ****     }
1424:../SPL/src/stm32f10x_flash.c ****   }
1425:../SPL/src/stm32f10x_flash.c **** #endif /* STM32F10X_XL */
1426:../SPL/src/stm32f10x_flash.c **** 
1427:../SPL/src/stm32f10x_flash.c ****   /* Return the new state of FLASH_FLAG (SET or RESET) */
1428:../SPL/src/stm32f10x_flash.c ****   return bitstatus;
 1924              		.loc 1 1428 0
 1925 0a1a FB7B     		ldrb	r3, [r7, #15]	@ zero_extendqisi2
1429:../SPL/src/stm32f10x_flash.c **** }
 1926              		.loc 1 1429 0
 1927 0a1c 1846     		mov	r0, r3
 1928 0a1e 07F11007 		add	r7, r7, #16
 1929 0a22 BD46     		mov	sp, r7
 1930 0a24 80BD     		pop	{r7, pc}
 1931              	.L133:
 1932 0a26 00BF     		.align	2
 1933              	.L132:
 1934 0a28 00000000 		.word	.LC0
 1935 0a2c 00200240 		.word	1073881088
 1936              		.cfi_endproc
 1937              	.LFE51:
 1939              		.align	2
 1940              		.global	FLASH_ClearFlag
 1941              		.thumb
 1942              		.thumb_func
 1944              	FLASH_ClearFlag:
 1945              	.LFB52:
1430:../SPL/src/stm32f10x_flash.c **** 
1431:../SPL/src/stm32f10x_flash.c **** /**
1432:../SPL/src/stm32f10x_flash.c ****   * @brief  Clears the FLASH's pending flags.
1433:../SPL/src/stm32f10x_flash.c ****   * @note   This function can be used for all STM32F10x devices.
1434:../SPL/src/stm32f10x_flash.c ****   *         - For STM32F10X_XL devices, this function clears Bank1 or Bank2s pending flags
1435:../SPL/src/stm32f10x_flash.c ****   *         - For other devices, it clears Bank1s pending flags.
1436:../SPL/src/stm32f10x_flash.c ****   * @param  FLASH_FLAG: specifies the FLASH flags to clear.
1437:../SPL/src/stm32f10x_flash.c ****   *   This parameter can be any combination of the following values:         
1438:../SPL/src/stm32f10x_flash.c ****   *     @arg FLASH_FLAG_PGERR: FLASH Program error flag       
1439:../SPL/src/stm32f10x_flash.c ****   *     @arg FLASH_FLAG_WRPRTERR: FLASH Write protected error flag      
1440:../SPL/src/stm32f10x_flash.c ****   *     @arg FLASH_FLAG_EOP: FLASH End of Operation flag           
1441:../SPL/src/stm32f10x_flash.c ****   * @retval None
1442:../SPL/src/stm32f10x_flash.c ****   */
1443:../SPL/src/stm32f10x_flash.c **** void FLASH_ClearFlag(uint32_t FLASH_FLAG)
1444:../SPL/src/stm32f10x_flash.c **** {
 1946              		.loc 1 1444 0
 1947              		.cfi_startproc
 1948              		@ args = 0, pretend = 0, frame = 8
 1949              		@ frame_needed = 1, uses_anonymous_args = 0
 1950 0a30 80B5     		push	{r7, lr}
 1951              	.LCFI63:
 1952              		.cfi_def_cfa_offset 8
 1953              		.cfi_offset 7, -8
 1954              		.cfi_offset 14, -4
 1955 0a32 82B0     		sub	sp, sp, #8
 1956              	.LCFI64:
 1957              		.cfi_def_cfa_offset 16
 1958 0a34 00AF     		add	r7, sp, #0
 1959              	.LCFI65:
 1960              		.cfi_def_cfa_register 7
 1961 0a36 7860     		str	r0, [r7, #4]
1445:../SPL/src/stm32f10x_flash.c **** #ifdef STM32F10X_XL
1446:../SPL/src/stm32f10x_flash.c ****   /* Check the parameters */
1447:../SPL/src/stm32f10x_flash.c ****   assert_param(IS_FLASH_CLEAR_FLAG(FLASH_FLAG)) ;
1448:../SPL/src/stm32f10x_flash.c **** 
1449:../SPL/src/stm32f10x_flash.c ****   if((FLASH_FLAG & 0x80000000) != 0x0)
1450:../SPL/src/stm32f10x_flash.c ****   {
1451:../SPL/src/stm32f10x_flash.c ****     /* Clear the flags */
1452:../SPL/src/stm32f10x_flash.c ****     FLASH->SR2 = FLASH_FLAG;
1453:../SPL/src/stm32f10x_flash.c ****   }
1454:../SPL/src/stm32f10x_flash.c ****   else
1455:../SPL/src/stm32f10x_flash.c ****   {
1456:../SPL/src/stm32f10x_flash.c ****     /* Clear the flags */
1457:../SPL/src/stm32f10x_flash.c ****     FLASH->SR = FLASH_FLAG;
1458:../SPL/src/stm32f10x_flash.c ****   }  
1459:../SPL/src/stm32f10x_flash.c **** 
1460:../SPL/src/stm32f10x_flash.c **** #else
1461:../SPL/src/stm32f10x_flash.c ****   /* Check the parameters */
1462:../SPL/src/stm32f10x_flash.c ****   assert_param(IS_FLASH_CLEAR_FLAG(FLASH_FLAG)) ;
 1962              		.loc 1 1462 0
 1963 0a38 7B68     		ldr	r3, [r7, #4]
 1964 0a3a 23F03503 		bic	r3, r3, #53
 1965 0a3e 002B     		cmp	r3, #0
 1966 0a40 02D1     		bne	.L135
 1967              		.loc 1 1462 0 is_stmt 0 discriminator 2
 1968 0a42 7B68     		ldr	r3, [r7, #4]
 1969 0a44 002B     		cmp	r3, #0
 1970 0a46 04D1     		bne	.L136
 1971              	.L135:
 1972              		.loc 1 1462 0 discriminator 1
 1973 0a48 0548     		ldr	r0, .L137
 1974 0a4a 40F2B651 		movw	r1, #1462
 1975 0a4e FFF7FEFF 		bl	assert_failed
 1976              	.L136:
1463:../SPL/src/stm32f10x_flash.c ****   
1464:../SPL/src/stm32f10x_flash.c ****   /* Clear the flags */
1465:../SPL/src/stm32f10x_flash.c ****   FLASH->SR = FLASH_FLAG;
 1977              		.loc 1 1465 0 is_stmt 1
 1978 0a52 044B     		ldr	r3, .L137+4
 1979 0a54 7A68     		ldr	r2, [r7, #4]
 1980 0a56 DA60     		str	r2, [r3, #12]
1466:../SPL/src/stm32f10x_flash.c **** #endif /* STM32F10X_XL */
1467:../SPL/src/stm32f10x_flash.c **** }
 1981              		.loc 1 1467 0
 1982 0a58 07F10807 		add	r7, r7, #8
 1983 0a5c BD46     		mov	sp, r7
 1984 0a5e 80BD     		pop	{r7, pc}
 1985              	.L138:
 1986              		.align	2
 1987              	.L137:
 1988 0a60 00000000 		.word	.LC0
 1989 0a64 00200240 		.word	1073881088
 1990              		.cfi_endproc
 1991              	.LFE52:
 1993              		.align	2
 1994              		.global	FLASH_GetStatus
 1995              		.thumb
 1996              		.thumb_func
 1998              	FLASH_GetStatus:
 1999              	.LFB53:
1468:../SPL/src/stm32f10x_flash.c **** 
1469:../SPL/src/stm32f10x_flash.c **** /**
1470:../SPL/src/stm32f10x_flash.c ****   * @brief  Returns the FLASH Status.
1471:../SPL/src/stm32f10x_flash.c ****   * @note   This function can be used for all STM32F10x devices, it is equivalent
1472:../SPL/src/stm32f10x_flash.c ****   *         to FLASH_GetBank1Status function.
1473:../SPL/src/stm32f10x_flash.c ****   * @param  None
1474:../SPL/src/stm32f10x_flash.c ****   * @retval FLASH Status: The returned value can be: FLASH_BUSY, FLASH_ERROR_PG,
1475:../SPL/src/stm32f10x_flash.c ****   *         FLASH_ERROR_WRP or FLASH_COMPLETE
1476:../SPL/src/stm32f10x_flash.c ****   */
1477:../SPL/src/stm32f10x_flash.c **** FLASH_Status FLASH_GetStatus(void)
1478:../SPL/src/stm32f10x_flash.c **** {
 2000              		.loc 1 1478 0
 2001              		.cfi_startproc
 2002              		@ args = 0, pretend = 0, frame = 8
 2003              		@ frame_needed = 1, uses_anonymous_args = 0
 2004              		@ link register save eliminated.
 2005 0a68 80B4     		push	{r7}
 2006              	.LCFI66:
 2007              		.cfi_def_cfa_offset 4
 2008              		.cfi_offset 7, -4
 2009 0a6a 83B0     		sub	sp, sp, #12
 2010              	.LCFI67:
 2011              		.cfi_def_cfa_offset 16
 2012 0a6c 00AF     		add	r7, sp, #0
 2013              	.LCFI68:
 2014              		.cfi_def_cfa_register 7
1479:../SPL/src/stm32f10x_flash.c ****   FLASH_Status flashstatus = FLASH_COMPLETE;
 2015              		.loc 1 1479 0
 2016 0a6e 4FF00403 		mov	r3, #4
 2017 0a72 FB71     		strb	r3, [r7, #7]
1480:../SPL/src/stm32f10x_flash.c ****   
1481:../SPL/src/stm32f10x_flash.c ****   if((FLASH->SR & FLASH_FLAG_BSY) == FLASH_FLAG_BSY) 
 2018              		.loc 1 1481 0
 2019 0a74 134B     		ldr	r3, .L145
 2020 0a76 DB68     		ldr	r3, [r3, #12]
 2021 0a78 03F00103 		and	r3, r3, #1
 2022 0a7c 002B     		cmp	r3, #0
 2023 0a7e 03D0     		beq	.L140
1482:../SPL/src/stm32f10x_flash.c ****   {
1483:../SPL/src/stm32f10x_flash.c ****     flashstatus = FLASH_BUSY;
 2024              		.loc 1 1483 0
 2025 0a80 4FF00103 		mov	r3, #1
 2026 0a84 FB71     		strb	r3, [r7, #7]
 2027 0a86 16E0     		b	.L141
 2028              	.L140:
1484:../SPL/src/stm32f10x_flash.c ****   }
1485:../SPL/src/stm32f10x_flash.c ****   else 
1486:../SPL/src/stm32f10x_flash.c ****   {  
1487:../SPL/src/stm32f10x_flash.c ****     if((FLASH->SR & FLASH_FLAG_PGERR) != 0)
 2029              		.loc 1 1487 0
 2030 0a88 0E4B     		ldr	r3, .L145
 2031 0a8a DB68     		ldr	r3, [r3, #12]
 2032 0a8c 03F00403 		and	r3, r3, #4
 2033 0a90 002B     		cmp	r3, #0
 2034 0a92 03D0     		beq	.L142
1488:../SPL/src/stm32f10x_flash.c ****     { 
1489:../SPL/src/stm32f10x_flash.c ****       flashstatus = FLASH_ERROR_PG;
 2035              		.loc 1 1489 0
 2036 0a94 4FF00203 		mov	r3, #2
 2037 0a98 FB71     		strb	r3, [r7, #7]
 2038 0a9a 0CE0     		b	.L141
 2039              	.L142:
1490:../SPL/src/stm32f10x_flash.c ****     }
1491:../SPL/src/stm32f10x_flash.c ****     else 
1492:../SPL/src/stm32f10x_flash.c ****     {
1493:../SPL/src/stm32f10x_flash.c ****       if((FLASH->SR & FLASH_FLAG_WRPRTERR) != 0 )
 2040              		.loc 1 1493 0
 2041 0a9c 094B     		ldr	r3, .L145
 2042 0a9e DB68     		ldr	r3, [r3, #12]
 2043 0aa0 03F01003 		and	r3, r3, #16
 2044 0aa4 002B     		cmp	r3, #0
 2045 0aa6 03D0     		beq	.L143
1494:../SPL/src/stm32f10x_flash.c ****       {
1495:../SPL/src/stm32f10x_flash.c ****         flashstatus = FLASH_ERROR_WRP;
 2046              		.loc 1 1495 0
 2047 0aa8 4FF00303 		mov	r3, #3
 2048 0aac FB71     		strb	r3, [r7, #7]
 2049 0aae 02E0     		b	.L141
 2050              	.L143:
1496:../SPL/src/stm32f10x_flash.c ****       }
1497:../SPL/src/stm32f10x_flash.c ****       else
1498:../SPL/src/stm32f10x_flash.c ****       {
1499:../SPL/src/stm32f10x_flash.c ****         flashstatus = FLASH_COMPLETE;
 2051              		.loc 1 1499 0
 2052 0ab0 4FF00403 		mov	r3, #4
 2053 0ab4 FB71     		strb	r3, [r7, #7]
 2054              	.L141:
1500:../SPL/src/stm32f10x_flash.c ****       }
1501:../SPL/src/stm32f10x_flash.c ****     }
1502:../SPL/src/stm32f10x_flash.c ****   }
1503:../SPL/src/stm32f10x_flash.c ****   /* Return the Flash Status */
1504:../SPL/src/stm32f10x_flash.c ****   return flashstatus;
 2055              		.loc 1 1504 0
 2056 0ab6 FB79     		ldrb	r3, [r7, #7]	@ zero_extendqisi2
1505:../SPL/src/stm32f10x_flash.c **** }
 2057              		.loc 1 1505 0
 2058 0ab8 1846     		mov	r0, r3
 2059 0aba 07F10C07 		add	r7, r7, #12
 2060 0abe BD46     		mov	sp, r7
 2061 0ac0 80BC     		pop	{r7}
 2062 0ac2 7047     		bx	lr
 2063              	.L146:
 2064              		.align	2
 2065              	.L145:
 2066 0ac4 00200240 		.word	1073881088
 2067              		.cfi_endproc
 2068              	.LFE53:
 2070              		.align	2
 2071              		.global	FLASH_GetBank1Status
 2072              		.thumb
 2073              		.thumb_func
 2075              	FLASH_GetBank1Status:
 2076              	.LFB54:
1506:../SPL/src/stm32f10x_flash.c **** 
1507:../SPL/src/stm32f10x_flash.c **** /**
1508:../SPL/src/stm32f10x_flash.c ****   * @brief  Returns the FLASH Bank1 Status.
1509:../SPL/src/stm32f10x_flash.c ****   * @note   This function can be used for all STM32F10x devices, it is equivalent
1510:../SPL/src/stm32f10x_flash.c ****   *         to FLASH_GetStatus function.
1511:../SPL/src/stm32f10x_flash.c ****   * @param  None
1512:../SPL/src/stm32f10x_flash.c ****   * @retval FLASH Status: The returned value can be: FLASH_BUSY, FLASH_ERROR_PG,
1513:../SPL/src/stm32f10x_flash.c ****   *         FLASH_ERROR_WRP or FLASH_COMPLETE
1514:../SPL/src/stm32f10x_flash.c ****   */
1515:../SPL/src/stm32f10x_flash.c **** FLASH_Status FLASH_GetBank1Status(void)
1516:../SPL/src/stm32f10x_flash.c **** {
 2077              		.loc 1 1516 0
 2078              		.cfi_startproc
 2079              		@ args = 0, pretend = 0, frame = 8
 2080              		@ frame_needed = 1, uses_anonymous_args = 0
 2081              		@ link register save eliminated.
 2082 0ac8 80B4     		push	{r7}
 2083              	.LCFI69:
 2084              		.cfi_def_cfa_offset 4
 2085              		.cfi_offset 7, -4
 2086 0aca 83B0     		sub	sp, sp, #12
 2087              	.LCFI70:
 2088              		.cfi_def_cfa_offset 16
 2089 0acc 00AF     		add	r7, sp, #0
 2090              	.LCFI71:
 2091              		.cfi_def_cfa_register 7
1517:../SPL/src/stm32f10x_flash.c ****   FLASH_Status flashstatus = FLASH_COMPLETE;
 2092              		.loc 1 1517 0
 2093 0ace 4FF00403 		mov	r3, #4
 2094 0ad2 FB71     		strb	r3, [r7, #7]
1518:../SPL/src/stm32f10x_flash.c ****   
1519:../SPL/src/stm32f10x_flash.c ****   if((FLASH->SR & FLASH_FLAG_BANK1_BSY) == FLASH_FLAG_BSY) 
 2095              		.loc 1 1519 0
 2096 0ad4 134B     		ldr	r3, .L153
 2097 0ad6 DB68     		ldr	r3, [r3, #12]
 2098 0ad8 03F00103 		and	r3, r3, #1
 2099 0adc 002B     		cmp	r3, #0
 2100 0ade 03D0     		beq	.L148
1520:../SPL/src/stm32f10x_flash.c ****   {
1521:../SPL/src/stm32f10x_flash.c ****     flashstatus = FLASH_BUSY;
 2101              		.loc 1 1521 0
 2102 0ae0 4FF00103 		mov	r3, #1
 2103 0ae4 FB71     		strb	r3, [r7, #7]
 2104 0ae6 16E0     		b	.L149
 2105              	.L148:
1522:../SPL/src/stm32f10x_flash.c ****   }
1523:../SPL/src/stm32f10x_flash.c ****   else 
1524:../SPL/src/stm32f10x_flash.c ****   {  
1525:../SPL/src/stm32f10x_flash.c ****     if((FLASH->SR & FLASH_FLAG_BANK1_PGERR) != 0)
 2106              		.loc 1 1525 0
 2107 0ae8 0E4B     		ldr	r3, .L153
 2108 0aea DB68     		ldr	r3, [r3, #12]
 2109 0aec 03F00403 		and	r3, r3, #4
 2110 0af0 002B     		cmp	r3, #0
 2111 0af2 03D0     		beq	.L150
1526:../SPL/src/stm32f10x_flash.c ****     { 
1527:../SPL/src/stm32f10x_flash.c ****       flashstatus = FLASH_ERROR_PG;
 2112              		.loc 1 1527 0
 2113 0af4 4FF00203 		mov	r3, #2
 2114 0af8 FB71     		strb	r3, [r7, #7]
 2115 0afa 0CE0     		b	.L149
 2116              	.L150:
1528:../SPL/src/stm32f10x_flash.c ****     }
1529:../SPL/src/stm32f10x_flash.c ****     else 
1530:../SPL/src/stm32f10x_flash.c ****     {
1531:../SPL/src/stm32f10x_flash.c ****       if((FLASH->SR & FLASH_FLAG_BANK1_WRPRTERR) != 0 )
 2117              		.loc 1 1531 0
 2118 0afc 094B     		ldr	r3, .L153
 2119 0afe DB68     		ldr	r3, [r3, #12]
 2120 0b00 03F01003 		and	r3, r3, #16
 2121 0b04 002B     		cmp	r3, #0
 2122 0b06 03D0     		beq	.L151
1532:../SPL/src/stm32f10x_flash.c ****       {
1533:../SPL/src/stm32f10x_flash.c ****         flashstatus = FLASH_ERROR_WRP;
 2123              		.loc 1 1533 0
 2124 0b08 4FF00303 		mov	r3, #3
 2125 0b0c FB71     		strb	r3, [r7, #7]
 2126 0b0e 02E0     		b	.L149
 2127              	.L151:
1534:../SPL/src/stm32f10x_flash.c ****       }
1535:../SPL/src/stm32f10x_flash.c ****       else
1536:../SPL/src/stm32f10x_flash.c ****       {
1537:../SPL/src/stm32f10x_flash.c ****         flashstatus = FLASH_COMPLETE;
 2128              		.loc 1 1537 0
 2129 0b10 4FF00403 		mov	r3, #4
 2130 0b14 FB71     		strb	r3, [r7, #7]
 2131              	.L149:
1538:../SPL/src/stm32f10x_flash.c ****       }
1539:../SPL/src/stm32f10x_flash.c ****     }
1540:../SPL/src/stm32f10x_flash.c ****   }
1541:../SPL/src/stm32f10x_flash.c ****   /* Return the Flash Status */
1542:../SPL/src/stm32f10x_flash.c ****   return flashstatus;
 2132              		.loc 1 1542 0
 2133 0b16 FB79     		ldrb	r3, [r7, #7]	@ zero_extendqisi2
1543:../SPL/src/stm32f10x_flash.c **** }
 2134              		.loc 1 1543 0
 2135 0b18 1846     		mov	r0, r3
 2136 0b1a 07F10C07 		add	r7, r7, #12
 2137 0b1e BD46     		mov	sp, r7
 2138 0b20 80BC     		pop	{r7}
 2139 0b22 7047     		bx	lr
 2140              	.L154:
 2141              		.align	2
 2142              	.L153:
 2143 0b24 00200240 		.word	1073881088
 2144              		.cfi_endproc
 2145              	.LFE54:
 2147              		.align	2
 2148              		.global	FLASH_WaitForLastOperation
 2149              		.thumb
 2150              		.thumb_func
 2152              	FLASH_WaitForLastOperation:
 2153              	.LFB55:
1544:../SPL/src/stm32f10x_flash.c **** 
1545:../SPL/src/stm32f10x_flash.c **** #ifdef STM32F10X_XL
1546:../SPL/src/stm32f10x_flash.c **** /**
1547:../SPL/src/stm32f10x_flash.c ****   * @brief  Returns the FLASH Bank2 Status.
1548:../SPL/src/stm32f10x_flash.c ****   * @note   This function can be used for STM32F10x_XL density devices.
1549:../SPL/src/stm32f10x_flash.c ****   * @param  None
1550:../SPL/src/stm32f10x_flash.c ****   * @retval FLASH Status: The returned value can be: FLASH_BUSY, FLASH_ERROR_PG,
1551:../SPL/src/stm32f10x_flash.c ****   *        FLASH_ERROR_WRP or FLASH_COMPLETE
1552:../SPL/src/stm32f10x_flash.c ****   */
1553:../SPL/src/stm32f10x_flash.c **** FLASH_Status FLASH_GetBank2Status(void)
1554:../SPL/src/stm32f10x_flash.c **** {
1555:../SPL/src/stm32f10x_flash.c ****   FLASH_Status flashstatus = FLASH_COMPLETE;
1556:../SPL/src/stm32f10x_flash.c ****   
1557:../SPL/src/stm32f10x_flash.c ****   if((FLASH->SR2 & (FLASH_FLAG_BANK2_BSY & 0x7FFFFFFF)) == (FLASH_FLAG_BANK2_BSY & 0x7FFFFFFF)) 
1558:../SPL/src/stm32f10x_flash.c ****   {
1559:../SPL/src/stm32f10x_flash.c ****     flashstatus = FLASH_BUSY;
1560:../SPL/src/stm32f10x_flash.c ****   }
1561:../SPL/src/stm32f10x_flash.c ****   else 
1562:../SPL/src/stm32f10x_flash.c ****   {  
1563:../SPL/src/stm32f10x_flash.c ****     if((FLASH->SR2 & (FLASH_FLAG_BANK2_PGERR & 0x7FFFFFFF)) != 0)
1564:../SPL/src/stm32f10x_flash.c ****     { 
1565:../SPL/src/stm32f10x_flash.c ****       flashstatus = FLASH_ERROR_PG;
1566:../SPL/src/stm32f10x_flash.c ****     }
1567:../SPL/src/stm32f10x_flash.c ****     else 
1568:../SPL/src/stm32f10x_flash.c ****     {
1569:../SPL/src/stm32f10x_flash.c ****       if((FLASH->SR2 & (FLASH_FLAG_BANK2_WRPRTERR & 0x7FFFFFFF)) != 0 )
1570:../SPL/src/stm32f10x_flash.c ****       {
1571:../SPL/src/stm32f10x_flash.c ****         flashstatus = FLASH_ERROR_WRP;
1572:../SPL/src/stm32f10x_flash.c ****       }
1573:../SPL/src/stm32f10x_flash.c ****       else
1574:../SPL/src/stm32f10x_flash.c ****       {
1575:../SPL/src/stm32f10x_flash.c ****         flashstatus = FLASH_COMPLETE;
1576:../SPL/src/stm32f10x_flash.c ****       }
1577:../SPL/src/stm32f10x_flash.c ****     }
1578:../SPL/src/stm32f10x_flash.c ****   }
1579:../SPL/src/stm32f10x_flash.c ****   /* Return the Flash Status */
1580:../SPL/src/stm32f10x_flash.c ****   return flashstatus;
1581:../SPL/src/stm32f10x_flash.c **** }
1582:../SPL/src/stm32f10x_flash.c **** #endif /* STM32F10X_XL */
1583:../SPL/src/stm32f10x_flash.c **** /**
1584:../SPL/src/stm32f10x_flash.c ****   * @brief  Waits for a Flash operation to complete or a TIMEOUT to occur.
1585:../SPL/src/stm32f10x_flash.c ****   * @note   This function can be used for all STM32F10x devices, 
1586:../SPL/src/stm32f10x_flash.c ****   *         it is equivalent to FLASH_WaitForLastBank1Operation.
1587:../SPL/src/stm32f10x_flash.c ****   *         - For STM32F10X_XL devices this function waits for a Bank1 Flash operation
1588:../SPL/src/stm32f10x_flash.c ****   *           to complete or a TIMEOUT to occur.
1589:../SPL/src/stm32f10x_flash.c ****   *         - For all other devices it waits for a Flash operation to complete 
1590:../SPL/src/stm32f10x_flash.c ****   *           or a TIMEOUT to occur.
1591:../SPL/src/stm32f10x_flash.c ****   * @param  Timeout: FLASH programming Timeout
1592:../SPL/src/stm32f10x_flash.c ****   * @retval FLASH Status: The returned value can be: FLASH_ERROR_PG,
1593:../SPL/src/stm32f10x_flash.c ****   *         FLASH_ERROR_WRP, FLASH_COMPLETE or FLASH_TIMEOUT.
1594:../SPL/src/stm32f10x_flash.c ****   */
1595:../SPL/src/stm32f10x_flash.c **** FLASH_Status FLASH_WaitForLastOperation(uint32_t Timeout)
1596:../SPL/src/stm32f10x_flash.c **** { 
 2154              		.loc 1 1596 0
 2155              		.cfi_startproc
 2156              		@ args = 0, pretend = 0, frame = 16
 2157              		@ frame_needed = 1, uses_anonymous_args = 0
 2158 0b28 80B5     		push	{r7, lr}
 2159              	.LCFI72:
 2160              		.cfi_def_cfa_offset 8
 2161              		.cfi_offset 7, -8
 2162              		.cfi_offset 14, -4
 2163 0b2a 84B0     		sub	sp, sp, #16
 2164              	.LCFI73:
 2165              		.cfi_def_cfa_offset 24
 2166 0b2c 00AF     		add	r7, sp, #0
 2167              	.LCFI74:
 2168              		.cfi_def_cfa_register 7
 2169 0b2e 7860     		str	r0, [r7, #4]
1597:../SPL/src/stm32f10x_flash.c ****   FLASH_Status status = FLASH_COMPLETE;
 2170              		.loc 1 1597 0
 2171 0b30 4FF00403 		mov	r3, #4
 2172 0b34 FB73     		strb	r3, [r7, #15]
1598:../SPL/src/stm32f10x_flash.c ****    
1599:../SPL/src/stm32f10x_flash.c ****   /* Check for the Flash Status */
1600:../SPL/src/stm32f10x_flash.c ****   status = FLASH_GetBank1Status();
 2173              		.loc 1 1600 0
 2174 0b36 FFF7FEFF 		bl	FLASH_GetBank1Status
 2175 0b3a 0346     		mov	r3, r0
 2176 0b3c FB73     		strb	r3, [r7, #15]
1601:../SPL/src/stm32f10x_flash.c ****   /* Wait for a Flash operation to complete or a TIMEOUT to occur */
1602:../SPL/src/stm32f10x_flash.c ****   while((status == FLASH_BUSY) && (Timeout != 0x00))
 2177              		.loc 1 1602 0
 2178 0b3e 07E0     		b	.L156
 2179              	.L158:
1603:../SPL/src/stm32f10x_flash.c ****   {
1604:../SPL/src/stm32f10x_flash.c ****     status = FLASH_GetBank1Status();
 2180              		.loc 1 1604 0
 2181 0b40 FFF7FEFF 		bl	FLASH_GetBank1Status
 2182 0b44 0346     		mov	r3, r0
 2183 0b46 FB73     		strb	r3, [r7, #15]
1605:../SPL/src/stm32f10x_flash.c ****     Timeout--;
 2184              		.loc 1 1605 0
 2185 0b48 7B68     		ldr	r3, [r7, #4]
 2186 0b4a 03F1FF33 		add	r3, r3, #-1
 2187 0b4e 7B60     		str	r3, [r7, #4]
 2188              	.L156:
1602:../SPL/src/stm32f10x_flash.c ****   while((status == FLASH_BUSY) && (Timeout != 0x00))
 2189              		.loc 1 1602 0 discriminator 1
 2190 0b50 FB7B     		ldrb	r3, [r7, #15]	@ zero_extendqisi2
 2191 0b52 012B     		cmp	r3, #1
 2192 0b54 02D1     		bne	.L157
1602:../SPL/src/stm32f10x_flash.c ****   while((status == FLASH_BUSY) && (Timeout != 0x00))
 2193              		.loc 1 1602 0 is_stmt 0 discriminator 2
 2194 0b56 7B68     		ldr	r3, [r7, #4]
 2195 0b58 002B     		cmp	r3, #0
 2196 0b5a F1D1     		bne	.L158
 2197              	.L157:
1606:../SPL/src/stm32f10x_flash.c ****   }
1607:../SPL/src/stm32f10x_flash.c ****   if(Timeout == 0x00 )
 2198              		.loc 1 1607 0 is_stmt 1
 2199 0b5c 7B68     		ldr	r3, [r7, #4]
 2200 0b5e 002B     		cmp	r3, #0
 2201 0b60 02D1     		bne	.L159
1608:../SPL/src/stm32f10x_flash.c ****   {
1609:../SPL/src/stm32f10x_flash.c ****     status = FLASH_TIMEOUT;
 2202              		.loc 1 1609 0
 2203 0b62 4FF00503 		mov	r3, #5
 2204 0b66 FB73     		strb	r3, [r7, #15]
 2205              	.L159:
1610:../SPL/src/stm32f10x_flash.c ****   }
1611:../SPL/src/stm32f10x_flash.c ****   /* Return the operation status */
1612:../SPL/src/stm32f10x_flash.c ****   return status;
 2206              		.loc 1 1612 0
 2207 0b68 FB7B     		ldrb	r3, [r7, #15]	@ zero_extendqisi2
1613:../SPL/src/stm32f10x_flash.c **** }
 2208              		.loc 1 1613 0
 2209 0b6a 1846     		mov	r0, r3
 2210 0b6c 07F11007 		add	r7, r7, #16
 2211 0b70 BD46     		mov	sp, r7
 2212 0b72 80BD     		pop	{r7, pc}
 2213              		.cfi_endproc
 2214              	.LFE55:
 2216              		.align	2
 2217              		.global	FLASH_WaitForLastBank1Operation
 2218              		.thumb
 2219              		.thumb_func
 2221              	FLASH_WaitForLastBank1Operation:
 2222              	.LFB56:
1614:../SPL/src/stm32f10x_flash.c **** 
1615:../SPL/src/stm32f10x_flash.c **** /**
1616:../SPL/src/stm32f10x_flash.c ****   * @brief  Waits for a Flash operation on Bank1 to complete or a TIMEOUT to occur.
1617:../SPL/src/stm32f10x_flash.c ****   * @note   This function can be used for all STM32F10x devices, 
1618:../SPL/src/stm32f10x_flash.c ****   *         it is equivalent to FLASH_WaitForLastOperation.
1619:../SPL/src/stm32f10x_flash.c ****   * @param  Timeout: FLASH programming Timeout
1620:../SPL/src/stm32f10x_flash.c ****   * @retval FLASH Status: The returned value can be: FLASH_ERROR_PG,
1621:../SPL/src/stm32f10x_flash.c ****   *         FLASH_ERROR_WRP, FLASH_COMPLETE or FLASH_TIMEOUT.
1622:../SPL/src/stm32f10x_flash.c ****   */
1623:../SPL/src/stm32f10x_flash.c **** FLASH_Status FLASH_WaitForLastBank1Operation(uint32_t Timeout)
1624:../SPL/src/stm32f10x_flash.c **** { 
 2223              		.loc 1 1624 0
 2224              		.cfi_startproc
 2225              		@ args = 0, pretend = 0, frame = 16
 2226              		@ frame_needed = 1, uses_anonymous_args = 0
 2227 0b74 80B5     		push	{r7, lr}
 2228              	.LCFI75:
 2229              		.cfi_def_cfa_offset 8
 2230              		.cfi_offset 7, -8
 2231              		.cfi_offset 14, -4
 2232 0b76 84B0     		sub	sp, sp, #16
 2233              	.LCFI76:
 2234              		.cfi_def_cfa_offset 24
 2235 0b78 00AF     		add	r7, sp, #0
 2236              	.LCFI77:
 2237              		.cfi_def_cfa_register 7
 2238 0b7a 7860     		str	r0, [r7, #4]
1625:../SPL/src/stm32f10x_flash.c ****   FLASH_Status status = FLASH_COMPLETE;
 2239              		.loc 1 1625 0
 2240 0b7c 4FF00403 		mov	r3, #4
 2241 0b80 FB73     		strb	r3, [r7, #15]
1626:../SPL/src/stm32f10x_flash.c ****    
1627:../SPL/src/stm32f10x_flash.c ****   /* Check for the Flash Status */
1628:../SPL/src/stm32f10x_flash.c ****   status = FLASH_GetBank1Status();
 2242              		.loc 1 1628 0
 2243 0b82 FFF7FEFF 		bl	FLASH_GetBank1Status
 2244 0b86 0346     		mov	r3, r0
 2245 0b88 FB73     		strb	r3, [r7, #15]
1629:../SPL/src/stm32f10x_flash.c ****   /* Wait for a Flash operation to complete or a TIMEOUT to occur */
1630:../SPL/src/stm32f10x_flash.c ****   while((status == FLASH_FLAG_BANK1_BSY) && (Timeout != 0x00))
 2246              		.loc 1 1630 0
 2247 0b8a 07E0     		b	.L162
 2248              	.L164:
1631:../SPL/src/stm32f10x_flash.c ****   {
1632:../SPL/src/stm32f10x_flash.c ****     status = FLASH_GetBank1Status();
 2249              		.loc 1 1632 0
 2250 0b8c FFF7FEFF 		bl	FLASH_GetBank1Status
 2251 0b90 0346     		mov	r3, r0
 2252 0b92 FB73     		strb	r3, [r7, #15]
1633:../SPL/src/stm32f10x_flash.c ****     Timeout--;
 2253              		.loc 1 1633 0
 2254 0b94 7B68     		ldr	r3, [r7, #4]
 2255 0b96 03F1FF33 		add	r3, r3, #-1
 2256 0b9a 7B60     		str	r3, [r7, #4]
 2257              	.L162:
1630:../SPL/src/stm32f10x_flash.c ****   while((status == FLASH_FLAG_BANK1_BSY) && (Timeout != 0x00))
 2258              		.loc 1 1630 0 discriminator 1
 2259 0b9c FB7B     		ldrb	r3, [r7, #15]	@ zero_extendqisi2
 2260 0b9e 012B     		cmp	r3, #1
 2261 0ba0 02D1     		bne	.L163
1630:../SPL/src/stm32f10x_flash.c ****   while((status == FLASH_FLAG_BANK1_BSY) && (Timeout != 0x00))
 2262              		.loc 1 1630 0 is_stmt 0 discriminator 2
 2263 0ba2 7B68     		ldr	r3, [r7, #4]
 2264 0ba4 002B     		cmp	r3, #0
 2265 0ba6 F1D1     		bne	.L164
 2266              	.L163:
1634:../SPL/src/stm32f10x_flash.c ****   }
1635:../SPL/src/stm32f10x_flash.c ****   if(Timeout == 0x00 )
 2267              		.loc 1 1635 0 is_stmt 1
 2268 0ba8 7B68     		ldr	r3, [r7, #4]
 2269 0baa 002B     		cmp	r3, #0
 2270 0bac 02D1     		bne	.L165
1636:../SPL/src/stm32f10x_flash.c ****   {
1637:../SPL/src/stm32f10x_flash.c ****     status = FLASH_TIMEOUT;
 2271              		.loc 1 1637 0
 2272 0bae 4FF00503 		mov	r3, #5
 2273 0bb2 FB73     		strb	r3, [r7, #15]
 2274              	.L165:
1638:../SPL/src/stm32f10x_flash.c ****   }
1639:../SPL/src/stm32f10x_flash.c ****   /* Return the operation status */
1640:../SPL/src/stm32f10x_flash.c ****   return status;
 2275              		.loc 1 1640 0
 2276 0bb4 FB7B     		ldrb	r3, [r7, #15]	@ zero_extendqisi2
1641:../SPL/src/stm32f10x_flash.c **** }
 2277              		.loc 1 1641 0
 2278 0bb6 1846     		mov	r0, r3
 2279 0bb8 07F11007 		add	r7, r7, #16
 2280 0bbc BD46     		mov	sp, r7
 2281 0bbe 80BD     		pop	{r7, pc}
 2282              		.cfi_endproc
 2283              	.LFE56:
 2285              	.Letext0:
 2286              		.file 2 "c:\\program files (x86)\\codesourcery\\sourcery_codebench_lite_for_arm_eabi\\bin\\../lib/
 2287              		.file 3 "C:\\Users\\PC108\\Export_project\\stm32_ld_vl\\CMSIS/stm32f10x.h"
 2288              		.file 4 "C:\\Users\\PC108\\Export_project\\stm32_ld_vl\\SPL\\inc/stm32f10x_flash.h"
 2289              		.file 5 "C:\\Users\\PC108\\Export_project\\stm32_ld_vl\\CMSIS/core_cm3.h"